
faia.elf:     file format elf32-avr

Sections:
Idx Name          Size      VMA       LMA       File off  Algn
  0 .text         000098cc  00000000  00000000  00000094  2**1
                  CONTENTS, ALLOC, LOAD, READONLY, CODE
  1 .data         00000186  00802000  000098cc  00009960  2**1
                  CONTENTS, ALLOC, LOAD, DATA
  2 .bss          0000045a  00802188  00802188  00009ae8  2**2
                  ALLOC
  3 .stab         000011dc  00000000  00000000  00009ae8  2**2
                  CONTENTS, READONLY, DEBUGGING
  4 .stabstr      0000047c  00000000  00000000  0000acc4  2**0
                  CONTENTS, READONLY, DEBUGGING
  5 .comment      0000002f  00000000  00000000  0000b140  2**0
                  CONTENTS, READONLY
  6 .debug_aranges 00000100  00000000  00000000  0000b170  2**3
                  CONTENTS, READONLY, DEBUGGING
  7 .debug_info   00000db5  00000000  00000000  0000b270  2**0
                  CONTENTS, READONLY, DEBUGGING
  8 .debug_abbrev 00000633  00000000  00000000  0000c025  2**0
                  CONTENTS, READONLY, DEBUGGING
  9 .debug_line   00000b15  00000000  00000000  0000c658  2**0
                  CONTENTS, READONLY, DEBUGGING
 10 .debug_frame  000001b0  00000000  00000000  0000d170  2**2
                  CONTENTS, READONLY, DEBUGGING
 11 .debug_str    000003a6  00000000  00000000  0000d320  2**0
                  CONTENTS, READONLY, DEBUGGING
 12 .debug_loc    00000be8  00000000  00000000  0000d6c6  2**0
                  CONTENTS, READONLY, DEBUGGING
 13 .debug_ranges 00000070  00000000  00000000  0000e2b0  2**3
                  CONTENTS, READONLY, DEBUGGING

Disassembly of section .text:

00000000 <__vectors>:
       0:	0c 94 b4 0f 	jmp	0x1f68	; 0x1f68 <__ctors_end>
       4:	0c 94 d5 0f 	jmp	0x1faa	; 0x1faa <__bad_interrupt>
       8:	0c 94 d5 0f 	jmp	0x1faa	; 0x1faa <__bad_interrupt>
       c:	0c 94 d5 0f 	jmp	0x1faa	; 0x1faa <__bad_interrupt>
      10:	0c 94 4d 22 	jmp	0x449a	; 0x449a <__vector_4>
      14:	0c 94 d5 0f 	jmp	0x1faa	; 0x1faa <__bad_interrupt>
      18:	0c 94 d5 0f 	jmp	0x1faa	; 0x1faa <__bad_interrupt>
      1c:	0c 94 d5 0f 	jmp	0x1faa	; 0x1faa <__bad_interrupt>
      20:	0c 94 d5 0f 	jmp	0x1faa	; 0x1faa <__bad_interrupt>
      24:	0c 94 d5 0f 	jmp	0x1faa	; 0x1faa <__bad_interrupt>
      28:	0c 94 d5 0f 	jmp	0x1faa	; 0x1faa <__bad_interrupt>
      2c:	0c 94 70 35 	jmp	0x6ae0	; 0x6ae0 <__vector_11>
      30:	0c 94 d5 0f 	jmp	0x1faa	; 0x1faa <__bad_interrupt>
      34:	0c 94 ea 3c 	jmp	0x79d4	; 0x79d4 <__vector_13>
      38:	0c 94 ae 35 	jmp	0x6b5c	; 0x6b5c <__vector_14>
      3c:	0c 94 db 35 	jmp	0x6bb6	; 0x6bb6 <__vector_15>
      40:	0c 94 08 36 	jmp	0x6c10	; 0x6c10 <__vector_16>
      44:	0c 94 35 36 	jmp	0x6c6a	; 0x6c6a <__vector_17>
      48:	0c 94 62 36 	jmp	0x6cc4	; 0x6cc4 <__vector_18>
      4c:	0c 94 8f 36 	jmp	0x6d1e	; 0x6d1e <__vector_19>
      50:	0c 94 bc 36 	jmp	0x6d78	; 0x6d78 <__vector_20>
      54:	0c 94 e9 36 	jmp	0x6dd2	; 0x6dd2 <__vector_21>
      58:	0c 94 16 37 	jmp	0x6e2c	; 0x6e2c <__vector_22>
      5c:	0c 94 43 37 	jmp	0x6e86	; 0x6e86 <__vector_23>
      60:	0c 94 d5 0f 	jmp	0x1faa	; 0x1faa <__bad_interrupt>
      64:	0c 94 d5 0f 	jmp	0x1faa	; 0x1faa <__bad_interrupt>
      68:	0c 94 d5 0f 	jmp	0x1faa	; 0x1faa <__bad_interrupt>
      6c:	0c 94 d5 0f 	jmp	0x1faa	; 0x1faa <__bad_interrupt>
      70:	0c 94 d5 0f 	jmp	0x1faa	; 0x1faa <__bad_interrupt>
      74:	0c 94 d5 0f 	jmp	0x1faa	; 0x1faa <__bad_interrupt>
      78:	0c 94 d5 0f 	jmp	0x1faa	; 0x1faa <__bad_interrupt>
      7c:	0c 94 d5 0f 	jmp	0x1faa	; 0x1faa <__bad_interrupt>
      80:	0c 94 d5 0f 	jmp	0x1faa	; 0x1faa <__bad_interrupt>
      84:	0c 94 d5 0f 	jmp	0x1faa	; 0x1faa <__bad_interrupt>
      88:	0c 94 d5 0f 	jmp	0x1faa	; 0x1faa <__bad_interrupt>
      8c:	0c 94 d5 0f 	jmp	0x1faa	; 0x1faa <__bad_interrupt>
      90:	0c 94 d5 0f 	jmp	0x1faa	; 0x1faa <__bad_interrupt>
      94:	0c 94 d5 0f 	jmp	0x1faa	; 0x1faa <__bad_interrupt>
      98:	0c 94 d5 0f 	jmp	0x1faa	; 0x1faa <__bad_interrupt>
      9c:	0c 94 d5 0f 	jmp	0x1faa	; 0x1faa <__bad_interrupt>
      a0:	0c 94 d5 0f 	jmp	0x1faa	; 0x1faa <__bad_interrupt>
      a4:	0c 94 d5 0f 	jmp	0x1faa	; 0x1faa <__bad_interrupt>
      a8:	0c 94 d5 0f 	jmp	0x1faa	; 0x1faa <__bad_interrupt>
      ac:	0c 94 d5 0f 	jmp	0x1faa	; 0x1faa <__bad_interrupt>
      b0:	0c 94 d5 0f 	jmp	0x1faa	; 0x1faa <__bad_interrupt>
      b4:	0c 94 d5 0f 	jmp	0x1faa	; 0x1faa <__bad_interrupt>
      b8:	0c 94 11 3d 	jmp	0x7a22	; 0x7a22 <__vector_46>
      bc:	0c 94 32 39 	jmp	0x7264	; 0x7264 <__vector_47>
      c0:	0c 94 5f 39 	jmp	0x72be	; 0x72be <__vector_48>
      c4:	0c 94 8c 39 	jmp	0x7318	; 0x7318 <__vector_49>
      c8:	0c 94 b9 39 	jmp	0x7372	; 0x7372 <__vector_50>
      cc:	0c 94 e6 39 	jmp	0x73cc	; 0x73cc <__vector_51>
      d0:	0c 94 13 3a 	jmp	0x7426	; 0x7426 <__vector_52>
      d4:	0c 94 40 3a 	jmp	0x7480	; 0x7480 <__vector_53>
      d8:	0c 94 6d 3a 	jmp	0x74da	; 0x74da <__vector_54>
      dc:	0c 94 9a 3a 	jmp	0x7534	; 0x7534 <__vector_55>
      e0:	0c 94 c7 3a 	jmp	0x758e	; 0x758e <__vector_56>
      e4:	0c 94 d5 0f 	jmp	0x1faa	; 0x1faa <__bad_interrupt>
      e8:	0c 94 2e 2c 	jmp	0x585c	; 0x585c <__vector_58>
      ec:	0c 94 d5 0f 	jmp	0x1faa	; 0x1faa <__bad_interrupt>
      f0:	0c 94 d5 0f 	jmp	0x1faa	; 0x1faa <__bad_interrupt>
      f4:	0c 94 d5 0f 	jmp	0x1faa	; 0x1faa <__bad_interrupt>
      f8:	0c 94 d5 0f 	jmp	0x1faa	; 0x1faa <__bad_interrupt>
      fc:	0c 94 d5 0f 	jmp	0x1faa	; 0x1faa <__bad_interrupt>
     100:	0c 94 0c 23 	jmp	0x4618	; 0x4618 <__vector_64>
     104:	0c 94 d5 0f 	jmp	0x1faa	; 0x1faa <__bad_interrupt>
     108:	0c 94 d5 0f 	jmp	0x1faa	; 0x1faa <__bad_interrupt>
     10c:	0c 94 d5 0f 	jmp	0x1faa	; 0x1faa <__bad_interrupt>
     110:	0c 94 d5 0f 	jmp	0x1faa	; 0x1faa <__bad_interrupt>
     114:	0c 94 d5 0f 	jmp	0x1faa	; 0x1faa <__bad_interrupt>
     118:	0c 94 d5 0f 	jmp	0x1faa	; 0x1faa <__bad_interrupt>
     11c:	0c 94 d5 0f 	jmp	0x1faa	; 0x1faa <__bad_interrupt>
     120:	0c 94 d5 0f 	jmp	0x1faa	; 0x1faa <__bad_interrupt>
     124:	0c 94 d5 0f 	jmp	0x1faa	; 0x1faa <__bad_interrupt>
     128:	0c 94 d5 0f 	jmp	0x1faa	; 0x1faa <__bad_interrupt>
     12c:	0c 94 d5 0f 	jmp	0x1faa	; 0x1faa <__bad_interrupt>
     130:	0c 94 d5 0f 	jmp	0x1faa	; 0x1faa <__bad_interrupt>
     134:	0c 94 70 37 	jmp	0x6ee0	; 0x6ee0 <__vector_77>
     138:	0c 94 9d 37 	jmp	0x6f3a	; 0x6f3a <__vector_78>
     13c:	0c 94 ca 37 	jmp	0x6f94	; 0x6f94 <__vector_79>
     140:	0c 94 f7 37 	jmp	0x6fee	; 0x6fee <__vector_80>
     144:	0c 94 24 38 	jmp	0x7048	; 0x7048 <__vector_81>
     148:	0c 94 51 38 	jmp	0x70a2	; 0x70a2 <__vector_82>
     14c:	0c 94 7e 38 	jmp	0x70fc	; 0x70fc <__vector_83>
     150:	0c 94 ab 38 	jmp	0x7156	; 0x7156 <__vector_84>
     154:	0c 94 d8 38 	jmp	0x71b0	; 0x71b0 <__vector_85>
     158:	0c 94 05 39 	jmp	0x720a	; 0x720a <__vector_86>
     15c:	0c 94 d5 0f 	jmp	0x1faa	; 0x1faa <__bad_interrupt>
     160:	0c 94 d5 0f 	jmp	0x1faa	; 0x1faa <__bad_interrupt>
     164:	0c 94 d5 0f 	jmp	0x1faa	; 0x1faa <__bad_interrupt>
     168:	0c 94 d5 0f 	jmp	0x1faa	; 0x1faa <__bad_interrupt>
     16c:	0c 94 d5 0f 	jmp	0x1faa	; 0x1faa <__bad_interrupt>
     170:	0c 94 d5 0f 	jmp	0x1faa	; 0x1faa <__bad_interrupt>
     174:	0c 94 d5 0f 	jmp	0x1faa	; 0x1faa <__bad_interrupt>
     178:	0c 94 d5 0f 	jmp	0x1faa	; 0x1faa <__bad_interrupt>
     17c:	0c 94 d5 0f 	jmp	0x1faa	; 0x1faa <__bad_interrupt>
     180:	0c 94 d5 0f 	jmp	0x1faa	; 0x1faa <__bad_interrupt>
     184:	0c 94 d5 0f 	jmp	0x1faa	; 0x1faa <__bad_interrupt>
     188:	0c 94 d5 0f 	jmp	0x1faa	; 0x1faa <__bad_interrupt>
     18c:	0c 94 d5 0f 	jmp	0x1faa	; 0x1faa <__bad_interrupt>
     190:	0c 94 d5 0f 	jmp	0x1faa	; 0x1faa <__bad_interrupt>
     194:	0c 94 d5 0f 	jmp	0x1faa	; 0x1faa <__bad_interrupt>
     198:	0c 94 d5 0f 	jmp	0x1faa	; 0x1faa <__bad_interrupt>
     19c:	0c 94 d5 0f 	jmp	0x1faa	; 0x1faa <__bad_interrupt>
     1a0:	0c 94 d5 0f 	jmp	0x1faa	; 0x1faa <__bad_interrupt>
     1a4:	0c 94 d5 0f 	jmp	0x1faa	; 0x1faa <__bad_interrupt>
     1a8:	0c 94 d5 0f 	jmp	0x1faa	; 0x1faa <__bad_interrupt>
     1ac:	0c 94 d5 0f 	jmp	0x1faa	; 0x1faa <__bad_interrupt>
     1b0:	0c 94 f4 3a 	jmp	0x75e8	; 0x75e8 <__vector_108>
     1b4:	0c 94 21 3b 	jmp	0x7642	; 0x7642 <__vector_109>
     1b8:	0c 94 4e 3b 	jmp	0x769c	; 0x769c <__vector_110>
     1bc:	0c 94 7b 3b 	jmp	0x76f6	; 0x76f6 <__vector_111>
     1c0:	0c 94 a8 3b 	jmp	0x7750	; 0x7750 <__vector_112>
     1c4:	0c 94 d5 3b 	jmp	0x77aa	; 0x77aa <__vector_113>
     1c8:	0c 94 d5 0f 	jmp	0x1faa	; 0x1faa <__bad_interrupt>
     1cc:	0c 94 d5 0f 	jmp	0x1faa	; 0x1faa <__bad_interrupt>
     1d0:	0c 94 d5 0f 	jmp	0x1faa	; 0x1faa <__bad_interrupt>
     1d4:	0c 94 d5 0f 	jmp	0x1faa	; 0x1faa <__bad_interrupt>
     1d8:	0c 94 d5 0f 	jmp	0x1faa	; 0x1faa <__bad_interrupt>
     1dc:	0c 94 d5 0f 	jmp	0x1faa	; 0x1faa <__bad_interrupt>
     1e0:	0c 94 d5 0f 	jmp	0x1faa	; 0x1faa <__bad_interrupt>
     1e4:	0c 94 d5 0f 	jmp	0x1faa	; 0x1faa <__bad_interrupt>
     1e8:	0c 94 d5 0f 	jmp	0x1faa	; 0x1faa <__bad_interrupt>
     1ec:	0c 94 d5 0f 	jmp	0x1faa	; 0x1faa <__bad_interrupt>
     1f0:	0c 94 d5 0f 	jmp	0x1faa	; 0x1faa <__bad_interrupt>
     1f4:	0c 94 21 44 	jmp	0x8842	; 0x8842 <__vector_125>
     1f8:	0c 94 df 44 	jmp	0x89be	; 0x89be <__vector_126>

000001fc <__c.6935>:
     1fc:	64 61 74 61 6c 6f 67 67 65 72 20 69 6e 69 74 0d     datalogger init.
     20c:	0a 00                                               ..

0000020e <__c.6937>:
     20e:	0d 0a 0d 0a 5b 45 52 52 4f 52 5d 20 43 6f 6e 66     ....[ERROR] Conf
     21e:	69 67 75 72 61 74 69 6f 6e 20 69 73 20 6d 69 73     iguration is mis
     22e:	73 69 6e 67 2c 20 63 68 65 63 6b 20 74 68 65 20     sing, check the 
     23e:	69 6e 74 65 72 6e 61 6c 20 65 65 70 72 6f 6d 20     internal eeprom 
     24e:	69 6d 61 67 65 0d 0a 00                             image...

00000256 <__c.6939>:
     256:	44 4c 5f 54 41 53 4b 5f 53 54 4f 52 45 5f 44 54     DL_TASK_STORE_DT
     266:	3a 20 25 6c 75 0d 0a 00                             : %lu...

0000026e <__c.6941>:
     26e:	44 4c 5f 54 41 53 4b 5f 53 45 4e 44 5f 44 54 3a     DL_TASK_SEND_DT:
     27e:	20 25 6c 75 0d 0a 00                                 %lu...

00000285 <__c.6943>:
     285:	44 4c 5f 54 41 53 4b 5f 53 59 4e 43 5f 44 54 3a     DL_TASK_SYNC_DT:
     295:	20 25 6c 75 0d 0a 00                                 %lu...

0000029c <__c.6945>:
     29c:	44 4c 5f 54 49 4d 45 5f 44 54 3a 20 25 6c 75 0d     DL_TIME_DT: %lu.
     2ac:	0a 00                                               ..

000002ae <__c.6953>:
     2ae:	28 64 61 74 61 6c 6f 67 67 65 72 5f 69 6e 69 74     (datalogger_init
     2be:	29 20 65 65 70 72 6f 6d 20 69 74 65 72 61 74 6f     ) eeprom iterato
     2ce:	72 73 20 61 72 65 20 3a 0d 0a 00                    rs are :...

000002d9 <__c.6959>:
     2d9:	28 64 61 74 61 6c 6f 67 67 65 72 5f 69 6e 69 74     (datalogger_init
     2e9:	29 20 72 65 73 65 74 74 69 6e 67 20 69 74 65 72     ) resetting iter
     2f9:	61 74 6f 72 73 0d 0a 00                             ators...

00000301 <__c.6971>:
     301:	54 43 43 30 20 72 65 73 6f 6c 75 74 69 6f 6e 20     TCC0 resolution 
     311:	3d 20 25 6c 75 0d 0a 00                             = %lu...

00000319 <__c.7273>:
     319:	28 64 61 74 61 6c 6f 67 67 65 72 5f 73 6e 61 70     (datalogger_snap
     329:	73 68 6f 74 5f 64 61 74 61 29 20 53 6e 61 70 73     shot_data) Snaps
     339:	68 6f 74 20 6d 65 6d 6f 72 79 20 69 73 20 66 75     hot memory is fu
     349:	6c 6c 20 73 6f 6d 65 74 68 69 6e 67 20 77 72 6f     ll something wro
     359:	6e 67 20 69 73 20 68 61 70 70 65 6e 69 6e 67 0d     ng is happening.
     369:	0a 00                                               ..

0000036b <__c.6924>:
     36b:	28 64 61 74 61 6c 6f 67 67 65 72 5f 69 6e 69 74     (datalogger_init
     37b:	29 20 72 65 73 65 74 74 69 6e 67 20 65 65 70 72     ) resetting eepr
     38b:	6f 6d 0d 0a 00                                      om...

00000390 <__c.6978>:
     390:	44 4c 5f 54 41 53 4b 5f 53 59 4e 43 5f 54 49 4d     DL_TASK_SYNC_TIM
     3a0:	45 00                                               E.

000003a2 <__c.6980>:
     3a2:	28 64 61 74 61 6c 6f 67 67 65 72 5f 73 79 6e 63     (datalogger_sync
     3b2:	5f 74 69 6d 65 29 20 74 68 65 20 47 50 52 53 20     _time) the GPRS 
     3c2:	73 74 61 74 75 73 20 66 6c 61 67 20 69 73 20 6e     status flag is n
     3d2:	6f 74 20 4f 4b 2c 20 74 68 69 73 20 74 61 73 6b     ot OK, this task
     3e2:	20 77 69 6c 6c 20 66 69 6e 69 73 68 20 68 65 72      will finish her
     3f2:	65 0d 0a 00                                         e...

000003f6 <__c.6985>:
     3f6:	28 44 4c 5f 73 79 6e 63 74 69 6d 65 29 20 73 65     (DL_synctime) se
     406:	72 76 69 63 65 20 72 65 74 75 72 6e 65 64 3a 20     rvice returned: 
	...

00000417 <__c.6989>:
     417:	25 30 32 64 2f 25 30 32 64 2f 25 64 20 25 30 32     %02d/%02d/%d %02
     427:	64 3a 25 30 32 64 3a 25 30 32 64 0d 0a 00           d:%02d:%02d...

00000435 <__c.6991>:
     435:	28 44 4c 5f 73 79 6e 63 74 69 6d 65 29 20 4e 65     (DL_synctime) Ne
     445:	77 20 64 61 74 65 20 69 73 3a 20 00                 w date is: .

00000451 <__c.6999>:
     451:	28 62 65 66 6f 72 65 5f 73 65 6e 64 5f 63 68 65     (before_send_che
     461:	63 6b 29 20 54 68 65 20 47 50 52 53 20 73 74 61     ck) The GPRS sta
     471:	74 75 73 20 69 73 20 6e 6f 74 20 4f 4b 20 74 68     tus is not OK th
     481:	69 73 20 74 61 73 6b 20 77 69 6c 6c 20 65 6e 64     is task will end
     491:	20 68 65 72 65 0d 0a 00                              here...

00000499 <__c.7001>:
     499:	28 62 65 66 6f 72 65 5f 73 65 6e 64 5f 63 68 65     (before_send_che
     4a9:	63 6b 29 20 41 54 32 34 43 58 58 20 69 6e 69 74     ck) AT24CXX init
     4b9:	20 77 65 6e 74 20 77 72 6f 6e 67 2c 20 61 62 6f      went wrong, abo
     4c9:	72 74 69 6e 67 20 70 72 6f 63 65 64 75 72 65 0d     rting procedure.
     4d9:	0a 00                                               ..

000004db <__c.6997>:
     4db:	28 62 65 66 6f 72 65 5f 73 65 6e 64 5f 63 68 65     (before_send_che
     4eb:	63 6b 29 20 44 61 74 61 6c 6f 67 67 65 72 20 69     ck) Datalogger i
     4fb:	73 20 65 6d 70 74 79 2e 20 4e 6f 74 68 69 6e 67     s empty. Nothing
     50b:	20 74 6f 20 73 65 6e 64 0d 0a 00                     to send...

00000516 <__c.7014>:
     516:	44 4c 5f 54 41 53 4b 5f 53 45 4e 44 5f 44 41 54     DL_TASK_SEND_DAT
     526:	41 5f 50 52 45 50 41 52 45 5f 52 54 00              A_PREPARE_RT.

00000533 <__c.7142>:
     533:	2f 43 4d 44 5f 43 48 4b 3f 41 57 53 49 44 3d 00     /CMD_CHK?AWSID=.

00000543 <__c.7144>:
     543:	26 41 50 49 5f 56 45 52 3d 31 00                    &API_VER=1.

0000054e <__c.7110>:
     54e:	4f 4b 00                                            OK.

00000551 <__c.7112>:
     551:	09 67 6f 74 20 4f 4b 0d 0a 00                       .got OK...

0000055b <__c.7114>:
     55b:	47 45 54 5f 42 59 5f 44 41 54 45 5f 52 41 4e 47     GET_BY_DATE_RANG
     56b:	45 3a 00                                            E:.

0000056e <__c.7119>:
     56e:	09 47 45 54 5f 42 59 5f 44 41 54 45 5f 52 41 4e     .GET_BY_DATE_RAN
     57e:	47 45 20 70 61 72 61 6d 65 74 65 72 73 20 00        GE parameters .

0000058d <__c.7122>:
     58d:	64 74 42 65 67 3a 25 6c 75 09 64 74 45 6e 64 3a     dtBeg:%lu.dtEnd:
     59d:	25 6c 75 0d 0a 00                                   %lu...

000005a3 <__c.7124>:
     5a3:	46 57 5f 55 50 44 41 54 45 3a 00                    FW_UPDATE:.

000005ae <__c.7126>:
     5ae:	09 46 57 5f 55 50 44 41 54 45 20 70 61 72 61 6d     .FW_UPDATE param
     5be:	65 74 65 72 73 20 00                                eters .

000005c5 <__c.7128>:
     5c5:	4b 4f 00                                            KO.

000005c8 <__c.7130>:
     5c8:	09 5b 57 41 52 4e 49 4e 47 5d 20 53 65 72 76 65     .[WARNING] Serve
     5d8:	72 20 72 65 74 75 72 6e 65 64 20 61 20 4b 4f 20     r returned a KO 
     5e8:	6d 65 73 73 61 67 65 0d 0a 00                       message...

000005f2 <__c.7132>:
     5f2:	09 5b 57 41 52 4e 49 4e 47 5d 20 53 65 72 76 65     .[WARNING] Serve
     602:	72 20 72 65 74 75 72 6e 65 64 20 61 6e 20 75 6e     r returned an un
     612:	6b 6e 6f 77 6e 20 73 74 61 74 65 6d 65 6e 74 0d     known statement.
     622:	0a 00                                               ..

00000624 <__c.7098>:
     624:	44 4c 5f 43 4d 44 5f 47 45 54 5f 42 59 5f 44 41     DL_CMD_GET_BY_DA
     634:	54 45 5f 52 41 4e 47 45 00                          TE_RANGE.

0000063d <__c.7062>:
     63d:	44 4c 5f 53 45 41 52 43 48 5f 52 45 43 4f 52 44     DL_SEARCH_RECORD
     64d:	5f 42 59 5f 44 41 54 45 00                          _BY_DATE.

00000656 <__c.7068>:
     656:	28 64 6c 5f 73 65 61 72 63 68 5f 72 65 63 6f 72     (dl_search_recor
     666:	64 5f 62 79 5f 64 61 74 65 29 20 44 61 74 61 6c     d_by_date) Datal
     676:	6f 67 67 65 72 20 69 73 20 65 6d 70 74 79 2e 20     ogger is empty. 
     686:	4e 6f 74 68 69 6e 67 20 74 6f 20 73 65 61 72 63     Nothing to searc
     696:	68 0d 0a 00                                         h...

0000069a <__c.7070>:
     69a:	28 64 6c 5f 73 65 61 72 63 68 5f 72 65 63 6f 72     (dl_search_recor
     6aa:	64 5f 62 79 5f 64 61 74 65 29 20 41 54 32 34 43     d_by_date) AT24C
     6ba:	58 58 20 69 6e 69 74 20 77 65 6e 74 20 77 72 6f     XX init went wro
     6ca:	6e 67 2c 20 61 62 6f 72 74 69 6e 67 20 70 72 6f     ng, aborting pro
     6da:	63 65 64 75 72 65 0d 0a 00                          cedure...

000006e3 <__c.7077>:
     6e3:	53 65 61 72 63 68 20 63 61 6c 6c 65 64 20 77 69     Search called wi
     6f3:	74 68 20 64 74 3d 25 6c 75 20 66 6f 75 6e 64 20     th dt=%lu found 
     703:	25 6c 75 0d 0a 00                                   %lu...

00000709 <__c.7079>:
     709:	47 6f 69 6e 67 20 66 72 6f 6d 20 62 61 63 6b 77     Going from backw
     719:	61 72 64 20 74 6f 20 66 6f 72 77 61 72 64 0d 0a     ard to forward..
	...

0000072a <__c.7082>:
     72a:	47 6f 69 6e 67 20 66 72 6f 6d 20 66 6f 72 77 61     Going from forwa
     73a:	72 64 20 74 6f 20 62 61 63 6b 77 61 72 64 0d 0a     rd to backward..
	...

0000074b <__c.7084>:
     74b:	47 6f 69 6e 67 20 62 61 63 6b 77 61 72 64 20 2d     Going backward -
     75b:	20 4e 6f 20 6d 61 74 63 68 20 66 6f 75 6e 64 0d      No match found.
     76b:	0a 00                                               ..

0000076d <__c.7086>:
     76d:	47 6f 69 6e 67 20 66 6f 72 77 61 72 64 20 2d 20     Going forward - 
     77d:	4e 6f 20 6d 61 74 63 68 20 66 6f 75 6e 64 0d 0a     No match found..
	...

0000078e <__c.7089>:
     78e:	09 52 65 63 6f 72 64 20 66 6f 75 6e 64 20 00        .Record found .

0000079d <__c.7091>:
     79d:	0d 0a 09 52 65 63 6f 72 64 20 20 64 74 3d 25 6c     ...Record  dt=%l
     7ad:	75 0d 0a 00                                         u...

000007b1 <__c.7048>:
     7b1:	28 64 6c 5f 69 74 65 72 61 74 6f 72 5f 6d 6f 76     (dl_iterator_mov
     7c1:	65 62 61 63 6b 29 20 69 74 65 72 61 74 6f 72 20     eback) iterator 
     7d1:	72 65 61 63 68 65 64 20 74 68 65 20 45 4e 44 20     reached the END 
     7e1:	70 6f 73 69 74 69 6f 6e 0d 0a 00                    position...

000007ec <__c.7050>:
     7ec:	28 64 6c 5f 69 74 65 72 61 74 6f 72 5f 6d 6f 76     (dl_iterator_mov
     7fc:	65 66 6f 72 77 61 72 64 29 20 69 74 65 72 61 74     eforward) iterat
     80c:	6f 72 20 77 72 61 70 73 20 64 61 74 61 6c 6f 67     or wraps datalog
     81c:	67 65 72 0d 0a 00                                   ger...

00000822 <__c.7038>:
     822:	28 64 6c 5f 69 74 65 72 61 74 6f 72 5f 6d 6f 76     (dl_iterator_mov
     832:	65 62 61 63 6b 29 20 69 74 65 72 61 74 6f 72 20     eback) iterator 
     842:	77 72 61 70 73 20 64 61 74 61 6c 6f 67 67 65 72     wraps datalogger
     852:	0d 0a 00                                            ...

00000855 <__c.7036>:
     855:	28 64 6c 5f 69 74 65 72 61 74 6f 72 5f 6d 6f 76     (dl_iterator_mov
     865:	65 62 61 63 6b 29 20 69 74 65 72 61 74 6f 72 20     eback) iterator 
     875:	72 65 61 63 68 65 64 20 74 68 65 20 53 54 41 52     reached the STAR
     885:	54 20 70 6f 73 69 74 69 6f 6e 0d 0a 00              T position...

00000892 <__c.7221>:
     892:	09 4e 6f 74 68 69 6e 67 20 6c 65 66 74 20 74 6f     .Nothing left to
     8a2:	20 73 65 6e 64 2c 20 71 75 69 74 20 74 68 65 20      send, quit the 
     8b2:	70 72 6f 63 65 64 75 72 65 0d 0a 00                 procedure...

000008be <__c.7229>:
     8be:	26 54 49 44 3d 25 6c 75 00                          &TID=%lu.

000008c7 <__c.7238>:
     8c7:	09 42 65 67 69 6e 20 6f 66 20 6d 65 6d 6f 72 79     .Begin of memory
     8d7:	20 72 65 61 63 68 65 64 0d 0a 00                     reached...

000008e2 <__c.7241>:
     8e2:	09 72 65 63 6f 72 64 20 00                          .record .

000008eb <__c.7244>:
     8eb:	09 52 65 63 6f 72 64 20 74 69 6d 65 73 74 61 6d     .Record timestam
     8fb:	70 20 25 6c 75 0d 0a 00                             p %lu...

00000903 <__c.7246>:
     903:	09 4d 69 6e 69 6d 75 6d 20 64 61 74 65 20 72 65     .Minimum date re
     913:	61 63 68 65 64 0d 0a 00                             ached...

0000091b <__c.7248>:
     91b:	09 66 6c 61 67 20 73 65 6e 74 20 69 73 20 73 65     .flag sent is se
     92b:	74 2c 20 73 6b 69 70 0d 0a 00                       t, skip...

00000935 <__c.7253>:
     935:	23 54 49 4d 45 3d 25 6c 75 26 42 3d 25 75 26 50     #TIME=%lu&B=%u&P
     945:	3d 25 75 26 53 3d 25 75 00                          =%u&S=%u.

0000094e <__c.7259>:
     94e:	09 48 54 54 50 20 72 65 61 64 20 67 6f 74 20 3a     .HTTP read got :
     95e:	20 00                                                .

00000960 <__c.7265>:
     960:	09 72 65 71 75 65 73 74 69 6e 67 20 61 6e 6f 74     .requesting anot
     970:	68 65 72 20 69 74 65 72 61 74 69 6f 6e 0d 0a 00     her iteration...

00000980 <__c.7289>:
     980:	56 42 61 74 20 3d 20 25 75 0d 0a 72 65 63 49 44     VBat = %u..recID
     990:	20 25 6c 75 20 00                                    %lu .

00000996 <__c.6698>:
     996:	50 6f 77 65 72 20 4f 6e 0d 0a 00                    Power On...

000009a1 <__c.6700>:
     9a1:	4d 43 55 20 52 65 76 69 73 69 6f 6e 20 3a 20 00     MCU Revision : .

000009b1 <__c.6705>:
     9b1:	45 6e 61 62 6c 69 6e 67 20 6f 73 63 69 6c 61 74     Enabling oscilat
     9c1:	6f 72 20 66 6f 72 20 44 46 4c 4c 0d 0a 00           or for DFLL...

000009cf <__c.6710>:
     9cf:	6f 73 63 69 6c 61 74 6f 72 20 6f 6b 0d 0a 00        oscilator ok...

000009de <__c.6590>:
     9de:	57 72 69 74 65 20 46 61 69 6c 65 64 3a 20 45 52     Write Failed: ER
     9ee:	52 5f 49 4f 5f 45 52 52 4f 52 0d 0a 00              R_IO_ERROR...

000009fb <__c.6594>:
     9fb:	57 72 69 74 65 20 46 61 69 6c 65 64 3a 20 45 52     Write Failed: ER
     a0b:	52 5f 46 4c 55 53 48 45 44 0d 0a 00                 R_FLUSHED...

00000a17 <__c.6597>:
     a17:	57 72 69 74 65 20 46 61 69 6c 65 64 3a 20 45 52     Write Failed: ER
     a27:	52 5f 54 49 4d 45 4f 55 54 0d 0a 00                 R_TIMEOUT...

00000a33 <__c.6600>:
     a33:	57 72 69 74 65 20 46 61 69 6c 65 64 3a 20 45 52     Write Failed: ER
     a43:	52 5f 42 41 44 5f 44 41 54 41 0d 0a 00              R_BAD_DATA...

00000a50 <__c.6603>:
     a50:	57 72 69 74 65 20 46 61 69 6c 65 64 3a 20 45 52     Write Failed: ER
     a60:	52 5f 50 52 4f 54 4f 43 4f 4c 0d 0a 00              R_PROTOCOL...

00000a6d <__c.6606>:
     a6d:	57 72 69 74 65 20 46 61 69 6c 65 64 3a 20 45 52     Write Failed: ER
     a7d:	52 5f 55 4e 53 55 50 50 4f 52 54 45 44 5f 44 45     R_UNSUPPORTED_DE
     a8d:	56 0d 0a 00                                         V...

00000a91 <__c.6609>:
     a91:	57 72 69 74 65 20 46 61 69 6c 65 64 3a 20 45 52     Write Failed: ER
     aa1:	52 5f 4e 4f 5f 4d 45 4d 4f 52 59 0d 0a 00           R_NO_MEMORY...

00000aaf <__c.6612>:
     aaf:	57 72 69 74 65 20 46 61 69 6c 65 64 3a 20 45 52     Write Failed: ER
     abf:	52 5f 49 4e 56 41 4c 49 44 5f 41 52 47 0d 0a 00     R_INVALID_ARG...

00000acf <__c.6615>:
     acf:	57 72 69 74 65 20 46 61 69 6c 65 64 3a 20 45 52     Write Failed: ER
     adf:	52 5f 42 41 44 5f 41 44 44 52 45 53 53 0d 0a 00     R_BAD_ADDRESS...

00000aef <__c.6618>:
     aef:	57 72 69 74 65 20 46 61 69 6c 65 64 3a 20 45 52     Write Failed: ER
     aff:	52 5f 42 55 53 59 0d 0a 00                          R_BUSY...

00000b08 <__c.6621>:
     b08:	57 72 69 74 65 20 46 61 69 6c 65 64 3a 20 45 52     Write Failed: ER
     b18:	52 5f 42 41 44 5f 46 4f 52 4d 41 54 0d 0a 00        R_BAD_FORMAT...

00000b27 <__c.6624>:
     b27:	57 72 69 74 65 20 46 61 69 6c 65 64 3a 20 55 4e     Write Failed: UN
     b37:	4b 4f 4e 57 4e 20 45 52 52 4f 52 0d 0a 00           KONWN ERROR...

00000b45 <__c.6632>:
     b45:	52 45 41 44 20 46 61 69 6c 65 64 3a 20 45 52 52     READ Failed: ERR
     b55:	5f 49 4f 5f 45 52 52 4f 52 0d 0a 00                 _IO_ERROR...

00000b61 <__c.6636>:
     b61:	52 45 41 44 20 20 46 61 69 6c 65 64 3a 20 45 52     READ  Failed: ER
     b71:	52 5f 46 4c 55 53 48 45 44 0d 0a 00                 R_FLUSHED...

00000b7d <__c.6639>:
     b7d:	52 45 41 44 20 20 46 61 69 6c 65 64 3a 20 45 52     READ  Failed: ER
     b8d:	52 5f 54 49 4d 45 4f 55 54 0d 0a 00                 R_TIMEOUT...

00000b99 <__c.6642>:
     b99:	52 45 41 44 20 20 46 61 69 6c 65 64 3a 20 45 52     READ  Failed: ER
     ba9:	52 5f 42 41 44 5f 44 41 54 41 0d 0a 00              R_BAD_DATA...

00000bb6 <__c.6645>:
     bb6:	52 45 41 44 20 20 46 61 69 6c 65 64 3a 20 45 52     READ  Failed: ER
     bc6:	52 5f 50 52 4f 54 4f 43 4f 4c 0d 0a 00              R_PROTOCOL...

00000bd3 <__c.6648>:
     bd3:	52 45 41 44 20 20 46 61 69 6c 65 64 3a 20 45 52     READ  Failed: ER
     be3:	52 5f 55 4e 53 55 50 50 4f 52 54 45 44 5f 44 45     R_UNSUPPORTED_DE
     bf3:	56 0d 0a 00                                         V...

00000bf7 <__c.6651>:
     bf7:	52 45 41 44 20 20 46 61 69 6c 65 64 3a 20 45 52     READ  Failed: ER
     c07:	52 5f 4e 4f 5f 4d 45 4d 4f 52 59 0d 0a 00           R_NO_MEMORY...

00000c15 <__c.6654>:
     c15:	52 45 41 44 20 20 46 61 69 6c 65 64 3a 20 45 52     READ  Failed: ER
     c25:	52 5f 49 4e 56 41 4c 49 44 5f 41 52 47 0d 0a 00     R_INVALID_ARG...

00000c35 <__c.6657>:
     c35:	52 45 41 44 20 20 46 61 69 6c 65 64 3a 20 45 52     READ  Failed: ER
     c45:	52 5f 42 41 44 5f 41 44 44 52 45 53 53 0d 0a 00     R_BAD_ADDRESS...

00000c55 <__c.6660>:
     c55:	52 45 41 44 20 20 46 61 69 6c 65 64 3a 20 45 52     READ  Failed: ER
     c65:	52 5f 42 55 53 59 0d 0a 00                          R_BUSY...

00000c6e <__c.6663>:
     c6e:	52 45 41 44 20 20 46 61 69 6c 65 64 3a 20 45 52     READ  Failed: ER
     c7e:	52 5f 42 41 44 5f 46 4f 52 4d 41 54 0d 0a 00        R_BAD_FORMAT...

00000c8d <__c.6666>:
     c8d:	52 45 41 44 20 20 46 61 69 6c 65 64 3a 20 55 4e     READ  Failed: UN
     c9d:	4b 4f 4e 57 4e 20 45 52 52 4f 52 0d 0a 00           KONWN ERROR...

00000cab <__c.6714>:
     cab:	40 20 00                                            @ .

00000cae <__c.6716>:
     cae:	20 3a 20 00                                          : .

00000cb2 <__c.6718>:
     cb2:	20 3a 20 00                                          : .

00000cb6 <__c.6720>:
     cb6:	0d 0a 00                                            ...

00000cb9 <z.6406>:
     cb9:	ff ff ff ff ff ff ff ff 00 00                       ..........

00000cc3 <__c.6394>:
     cc3:	5b 45 56 45 4e 54 5d 20 55 53 42 20 6f 66 66 0d     [EVENT] USB off.
     cd3:	0a 00                                               ..

00000cd5 <__c.6396>:
     cd5:	5b 45 56 45 4e 54 5d 20 55 53 42 20 6f 6e 0d 0a     [EVENT] USB on..
	...

00000ce6 <__c.6549>:
     ce6:	41 44 43 3a 20 25 64 09 67 61 69 6e 3a 20 25 64     ADC: %d.gain: %d
     cf6:	0d 0a 00                                            ...

00000cf9 <__c.6560>:
     cf9:	74 65 6d 70 65 72 61 74 75 72 65 3a 20 25 64 0d     temperature: %d.
     d09:	0a 00                                               ..

00000d0b <__c.6707>:
     d0b:	28 73 69 6d 39 30 30 5f 70 6f 77 65 72 5f 6f 66     (sim900_power_of
     d1b:	66 29 20 6d 6f 64 75 6c 65 20 69 73 20 4f 4e 20     f) module is ON 
     d2b:	73 6f 20 70 6f 77 65 72 20 63 79 63 6c 69 6e 67     so power cycling
     d3b:	0d 0a 00                                            ...

00000d3e <__c.6709>:
     d3e:	28 73 69 6d 39 30 30 5f 70 6f 77 65 72 5f 6f 66     (sim900_power_of
     d4e:	66 29 20 6d 6f 64 75 6c 65 20 69 73 20 61 6c 72     f) module is alr
     d5e:	65 61 64 79 20 4f 46 46 0d 0a 00                    eady OFF...

00000d69 <__c.6834>:
     d69:	53 49 4d 39 30 30 5f 49 4e 49 54 00                 SIM900_INIT.

00000d75 <__c.6836>:
     d75:	28 73 69 6d 39 30 30 5f 69 6e 69 74 29 20 63 6f     (sim900_init) co
     d85:	64 65 20 63 6f 6d 70 69 6c 65 64 20 77 69 74 68     de compiled with
     d95:	20 69 6e 74 65 72 72 75 70 74 20 75 73 61 72 74      interrupt usart
     da5:	0d 0a 00                                            ...

00000da8 <sz_AT>:
     da8:	41 54 0d 0a 00                                      AT...

00000dad <sz_OK>:
     dad:	4f 4b 00                                            OK.

00000db0 <__c.6842>:
     db0:	28 53 49 4d 39 30 30 5f 69 6e 69 74 29 20 74 72     (SIM900_init) tr
     dc0:	79 69 6e 67 20 74 6f 20 73 65 74 20 61 20 73 65     ying to set a se
     dd0:	72 69 61 6c 20 6c 69 6e 65 20 73 70 65 65 64 0d     rial line speed.
     de0:	0a 00                                               ..

00000de2 <__c.6848>:
     de2:	28 53 49 4d 39 30 30 5f 69 6e 69 74 29 20 4e 6f     (SIM900_init) No
     df2:	74 20 62 65 69 6e 67 20 61 62 6c 65 20 74 6f 20     t being able to 
     e02:	63 6f 6e 6e 65 63 74 20 74 6f 20 53 49 4d 39 30     connect to SIM90
     e12:	30 2e 20 54 72 79 20 74 6f 20 70 6f 77 65 72 20     0. Try to power 
     e22:	69 74 20 6f 6e 20 61 67 61 69 6e 0d 0a 00           it on again...

00000e30 <__c.6852>:
     e30:	28 53 49 4d 39 30 30 5f 69 6e 69 74 29 20 66 61     (SIM900_init) fa
     e40:	69 6c 65 64 20 74 6f 20 73 79 6e 63 68 72 6f 6e     iled to synchron
     e50:	69 7a 65 20 77 69 74 68 20 47 50 52 53 20 55 41     ize with GPRS UA
     e60:	52 54 2e 20 54 68 65 20 70 72 6f 63 65 73 73 20     RT. The process 
     e70:	77 69 6c 6c 20 65 6e 64 20 68 65 72 65 0d 0a 00     will end here...

00000e80 <__c.6854>:
     e80:	41 54 45 30 0d 0a 00                                ATE0...

00000e87 <__c.6856>:
     e87:	28 53 49 4d 39 30 30 5f 69 6e 69 74 29 20 74 68     (SIM900_init) th
     e97:	69 73 20 73 69 6d 39 30 30 20 64 6f 65 73 6e 27     is sim900 doesn'
     ea7:	74 20 73 75 70 70 6f 72 74 20 41 54 45 30 0d 0a     t support ATE0..
	...

00000eb8 <__c.6858>:
     eb8:	28 53 49 4d 39 30 30 5f 69 6e 69 74 29 20 63 6f     (SIM900_init) co
     ec8:	72 72 65 63 74 6c 79 20 69 73 73 75 65 64 20 41     rrectly issued A
     ed8:	54 45 30 0d 0a 00                                   TE0...

00000ede <__c.6860>:
     ede:	41 54 2b 43 52 45 47 3d 30 0d 0a 00                 AT+CREG=0...

00000eea <__c.6862>:
     eea:	28 53 49 4d 39 30 30 5f 69 6e 69 74 29 20 74 68     (SIM900_init) th
     efa:	69 73 20 73 69 6d 39 30 30 20 64 6f 65 73 6e 27     is sim900 doesn'
     f0a:	74 20 73 75 70 70 6f 72 74 20 41 54 2b 43 52 45     t support AT+CRE
     f1a:	47 0d 0a 00                                         G...

00000f1e <__c.6864>:
     f1e:	28 53 49 4d 39 30 30 5f 69 6e 69 74 29 20 63 6f     (SIM900_init) co
     f2e:	72 72 65 63 74 6c 79 20 69 73 73 75 65 64 20 41     rrectly issued A
     f3e:	54 2b 43 52 45 47 3d 30 0d 0a 00                    T+CREG=0...

00000f49 <__c.6866>:
     f49:	41 54 2b 47 53 4e 3d 3f 0d 0a 00                    AT+GSN=?...

00000f54 <__c.6868>:
     f54:	28 53 49 4d 39 30 30 5f 69 6e 69 74 29 20 74 68     (SIM900_init) th
     f64:	69 73 20 73 69 6d 39 30 30 20 64 6f 65 73 6e 27     is sim900 doesn'
     f74:	74 20 73 75 70 70 6f 72 74 20 41 54 2b 47 53 4e     t support AT+GSN
     f84:	0d 0a 00                                            ...

00000f87 <__c.6871>:
     f87:	41 54 2b 47 53 4e 0d 0a 00                          AT+GSN...

00000f90 <__c.6873>:
     f90:	49 4d 45 49 20 63 6f 64 65 20 69 73 20 3a 20 00     IMEI code is : .

00000fa0 <__c.6875>:
     fa0:	28 53 49 4d 39 30 30 5f 69 6e 69 74 29 20 41 54     (SIM900_init) AT
     fb0:	2b 47 53 4e 20 6d 65 73 73 65 64 20 75 70 0d 0a     +GSN messed up..
	...

00000fc1 <__c.6877>:
     fc1:	28 53 49 4d 39 30 30 5f 69 6e 69 74 29 20 41 54     (SIM900_init) AT
     fd1:	2b 47 53 4e 20 47 4f 54 20 4f 4b 0d 0a 00           +GSN GOT OK...

00000fdf <__c.6879>:
     fdf:	41 54 2b 43 50 49 4e 3d 3f 0d 0a 00                 AT+CPIN=?...

00000feb <__c.6881>:
     feb:	28 53 49 4d 39 30 30 5f 69 6e 69 74 29 20 53 49     (SIM900_init) SI
     ffb:	4d 20 69 73 20 6e 6f 74 20 70 72 65 73 65 6e 74     M is not present
    100b:	0d 0a 00                                            ...

0000100e <__c.6883>:
    100e:	41 54 2b 43 50 49 4e 3f 0d 0a 00                    AT+CPIN?...

00001019 <tbl_CPIN_rets>:
    1019:	ad 0d 9b 1e a1 1e 2b 10 1c 11 a7 1e b2 1e bd 1e     ......+.........
    1029:	c6 1e                                               ..

0000102b <szCPIN_SIM_PIN>:
    102b:	53 49 4d 20 50 49 4e 00                             SIM PIN.

00001033 <__c.6886>:
    1033:	28 53 49 4d 39 30 30 5f 69 6e 69 74 29 20 53 49     (SIM900_init) SI
    1043:	4d 20 70 72 65 73 65 6e 74 20 61 6e 64 20 69 73     M present and is
    1053:	20 50 49 4e 20 6c 6f 63 6b 65 64 0d 0a 00            PIN locked...

00001061 <__c.6888>:
    1061:	28 53 49 4d 39 30 30 5f 69 6e 69 74 29 20 50 49     (SIM900_init) PI
    1071:	4e 20 63 6f 64 65 20 69 73 20 6e 6f 74 20 70 72     N code is not pr
    1081:	65 73 65 6e 74 20 69 6e 20 6d 65 6d 6f 72 79 20     esent in memory 
    1091:	53 49 4d 20 77 69 6c 6c 20 72 65 6d 61 69 6e 20     SIM will remain 
    10a1:	6c 6f 63 6b 65 64 0d 0a 00                          locked...

000010aa <__c.6890>:
    10aa:	28 53 49 4d 39 30 30 5f 69 6e 69 74 29 20 50 49     (SIM900_init) PI
    10ba:	4e 20 63 6f 64 65 20 69 73 20 70 72 65 73 65 6e     N code is presen
    10ca:	74 20 69 6e 20 6d 65 6d 6f 72 79 20 74 72 79 69     t in memory tryi
    10da:	6e 67 20 74 6f 20 75 6e 6c 6f 63 6b 0d 0a 50 49     ng to unlock..PI
    10ea:	4e 3a 20 00                                         N: .

000010ee <__c.6892>:
    10ee:	41 54 2b 43 50 49 4e 3d 00                          AT+CPIN=.

000010f7 <__c.6895>:
    10f7:	28 73 69 6d 39 30 30 5f 69 6e 69 74 29 20 57 41     (sim900_init) WA
    1107:	52 4e 49 4e 47 20 50 49 4e 20 69 73 20 57 52 4f     RNING PIN is WRO
    1117:	4e 47 0d 0a 00                                      NG...

0000111c <szCPIN_SIM_PUK>:
    111c:	53 49 4d 20 50 55 4b 00                             SIM PUK.

00001124 <__c.6897>:
    1124:	28 53 49 4d 39 30 30 5f 69 6e 69 74 29 20 53 49     (SIM900_init) SI
    1134:	4d 20 70 72 65 73 65 6e 74 20 61 6e 64 20 69 73     M present and is
    1144:	20 50 55 4b 20 6c 6f 63 6b 65 64 0d 0a 00            PUK locked...

00001152 <__c.6899>:
    1152:	28 53 49 4d 39 30 30 5f 69 6e 69 74 29 20 6e 6f     (SIM900_init) no
    1162:	20 50 55 4b 20 63 6f 64 65 2c 20 53 49 4d 20 69      PUK code, SIM i
    1172:	6e 69 74 20 77 69 6c 6c 20 66 61 69 6c 20 68 65     nit will fail he
    1182:	72 65 0d 0a 00                                      re...

00001187 <__c.6901>:
    1187:	41 54 2b 43 52 45 47 3f 0d 0a 00                    AT+CREG?...

00001192 <__c.6904>:
    1192:	2b 43 52 45 47 3a 20 31 2c 31 00                    +CREG: 1,1.

0000119d <__c.6906>:
    119d:	28 53 49 4d 39 30 30 5f 69 6e 69 74 29 20 64 65     (SIM900_init) de
    11ad:	76 69 63 65 20 69 73 20 6e 6f 74 20 61 6e 73 77     vice is not answ
    11bd:	65 72 69 6e 67 20 61 73 20 69 74 20 73 68 6f 75     ering as it shou
    11cd:	6c 64 20 72 65 73 74 61 72 74 69 6e 67 20 69 74     ld restarting it
    11dd:	0d 0a 00                                            ...

000011e0 <__c.6908>:
    11e0:	28 53 49 4d 39 30 30 5f 69 6e 69 74 29 20 64 65     (SIM900_init) de
    11f0:	76 69 63 65 20 63 6f 72 72 65 63 74 6c 79 20 72     vice correctly r
    1200:	65 67 69 73 74 65 72 65 64 20 69 6e 20 74 68 65     egistered in the
    1210:	20 6e 65 74 77 6f 72 6b 0d 0a 00                     network...

0000121b <__c.6911>:
    121b:	28 53 49 4d 39 30 30 5f 69 6e 69 74 29 20 64 65     (SIM900_init) de
    122b:	76 69 63 65 20 61 6e 73 77 65 72 65 64 20 00        vice answered .

0000123a <__c.6913>:
    123a:	20 73 65 65 6d 73 20 6e 6f 74 20 72 65 67 69 73      seems not regis
    124a:	74 65 72 65 64 20 69 6e 20 74 68 65 20 6e 65 74     tered in the net
    125a:	77 6f 72 6b 0d 0a 00                                work...

00001261 <__c.6915>:
    1261:	28 53 49 4d 39 30 30 5f 69 6e 69 74 29 20 77 69     (SIM900_init) wi
    1271:	6c 6c 20 63 68 65 63 6b 20 61 67 61 69 6e 20 69     ll check again i
    1281:	6e 20 35 20 73 65 63 6f 6e 64 0d 0a 00              n 5 second...

0000128e <__c.6811>:
    128e:	28 73 69 6d 39 30 30 5f 63 6d 64 5f 77 69 74 68     (sim900_cmd_with
    129e:	5f 72 65 61 64 5f 73 74 72 69 6e 67 29 20 67 6f     _read_string) go
    12ae:	74 20 74 69 6d 65 6f 74 20 72 65 74 72 69 6e 67     t timeot retring
    12be:	0d 0a 00                                            ...

000012c1 <__c.6816>:
    12c1:	28 73 69 6d 39 30 30 5f 63 6d 64 5f 77 69 74 68     (sim900_cmd_with
    12d1:	5f 72 65 61 64 5f 73 74 72 69 6e 67 29 20 66 61     _read_string) fa
    12e1:	69 6c 65 64 0d 0a 00                                iled...

000012e8 <__c.6777>:
    12e8:	28 73 69 6d 39 30 30 5f 77 61 69 74 34 64 69 63     (sim900_wait4dic
    12f8:	74 69 6f 6e 61 72 79 29 20 74 69 6d 65 6f 75 74     tionary) timeout
    1308:	20 77 61 69 74 69 6e 67 20 66 6f 72 20 73 69 6d      waiting for sim
    1318:	39 30 30 20 72 65 73 70 6f 6e 73 65 0d 0a 28 73     900 response..(s
    1328:	69 6d 39 30 30 5f 77 61 69 74 34 64 69 63 74 69     im900_wait4dicti
    1338:	6f 6e 61 72 79 29 20 4f 55 54 0d 0a 00              onary) OUT...

00001345 <__c.6747>:
    1345:	28 73 69 6d 39 30 30 5f 77 61 69 74 5f 64 61 74     (sim900_wait_dat
    1355:	61 5f 6f 6e 5f 75 73 61 72 74 29 20 74 69 6d 65     a_on_usart) time
    1365:	64 2d 6f 75 74 0d 0a 00                             d-out...

0000136d <tbl_returns>:
    136d:	ad 0d 9b 1e                                         ....

00001371 <__c.6757>:
    1371:	28 73 69 6d 39 30 30 5f 72 65 61 64 5f 73 74 72     (sim900_read_str
    1381:	69 6e 67 29 20 67 6f 74 20 74 69 6d 65 6f 75 74     ing) got timeout
    1391:	20 77 61 69 74 69 6e 67 20 66 6f 72 20 61 20 63      waiting for a c
    13a1:	68 61 72 61 63 74 65 72 0d 0a 00                    haracter...

000013ac <__c.6761>:
    13ac:	28 73 69 6d 39 30 30 5f 72 65 61 64 5f 73 74 72     (sim900_read_str
    13bc:	69 6e 67 29 20 67 6f 74 20 74 69 6d 65 6f 75 74     ing) got timeout
    13cc:	20 77 61 69 74 69 6e 67 20 66 6f 72 20 61 20 63      waiting for a c
    13dc:	68 61 72 61 63 74 65 72 0d 0a 00                    haracter...

000013e7 <__c.6766>:
    13e7:	28 73 69 6d 39 30 30 5f 72 65 61 64 5f 73 74 72     (sim900_read_str
    13f7:	69 6e 67 29 20 50 72 6f 76 69 64 65 64 20 62 75     ing) Provided bu
    1407:	66 66 65 72 20 69 73 20 6e 6f 74 20 62 69 67 20     ffer is not big 
    1417:	65 6e 6f 75 67 68 2e 20 44 69 73 63 61 72 64 69     enough. Discardi
    1427:	6e 67 20 63 68 61 72 73 0d 0a 00                    ng chars...

00001432 <__c.6794>:
    1432:	28 73 69 6d 39 30 30 5f 77 61 69 74 5f 73 74 72     (sim900_wait_str
    1442:	69 6e 67 29 20 74 69 6d 65 6f 75 74 20 77 61 69     ing) timeout wai
    1452:	74 69 6e 67 20 66 6f 72 20 73 69 6d 39 30 30 20     ting for sim900 
    1462:	72 65 73 70 6f 6e 73 65 0d 0a 28 73 69 6d 39 30     response..(sim90
    1472:	30 5f 77 61 69 74 5f 73 74 72 69 6e 67 29 20 4f     0_wait_string) O
    1482:	55 54 0d 0a 00                                      UT...

00001487 <__c.6963>:
    1487:	28 73 69 6d 39 30 30 5f 47 50 52 53 5f 73 69 6d     (sim900_GPRS_sim
    1497:	70 6c 65 5f 6f 70 65 6e 29 20 55 73 69 6e 67 20     ple_open) Using 
    14a7:	41 50 4e 20 00                                      APN .

000014ac <__c.6977>:
    14ac:	53 49 4d 39 30 30 5f 47 50 52 53 5f 49 4e 49 54     SIM900_GPRS_INIT
	...

000014bd <__c.6979>:
    14bd:	41 54 2b 53 41 50 42 52 3d 32 2c 31 0d 0a 00        AT+SAPBR=2,1...

000014cc <__c.6981>:
    14cc:	28 73 69 6d 39 30 30 5f 67 70 72 73 5f 69 6e 69     (sim900_gprs_ini
    14dc:	74 29 20 74 68 65 20 53 41 50 42 52 20 23 31 20     t) the SAPBR #1 
    14ec:	71 75 65 72 79 20 77 65 6e 74 20 77 72 6f 6e 67     query went wrong
    14fc:	20 66 6f 72 20 73 6f 6d 65 20 72 65 61 73 6f 6e      for some reason
    150c:	2c 20 70 72 6f 63 65 64 75 72 65 20 61 62 6f 72     , procedure abor
    151c:	74 65 64 0d 0a 00                                   ted...

00001522 <__c.6983>:
    1522:	28 73 69 6d 39 30 30 5f 67 70 72 73 5f 69 6e 69     (sim900_gprs_ini
    1532:	74 29 20 62 65 61 72 65 72 20 69 73 20 3a 20 00     t) bearer is : .

00001542 <__c.6985>:
    1542:	28 73 69 6d 39 30 30 5f 67 70 72 73 5f 69 6e 69     (sim900_gprs_ini
    1552:	74 29 20 74 68 65 20 53 41 50 42 52 20 23 32 20     t) the SAPBR #2 
    1562:	71 75 65 72 79 20 77 65 6e 74 20 77 72 6f 6e 67     query went wrong
    1572:	20 66 6f 72 20 73 6f 6d 65 20 72 65 61 73 6f 6e      for some reason
    1582:	2c 20 70 72 6f 63 65 64 75 72 65 20 61 62 6f 72     , procedure abor
    1592:	74 65 64 0d 0a 00                                   ted...

00001598 <__c.6987>:
    1598:	2b 53 41 50 42 52 3a 20 31 2c 33 2c 22 30 2e 30     +SAPBR: 1,3,"0.0
    15a8:	2e 30 2e 30 22 00                                   .0.0".

000015ae <__c.6990>:
    15ae:	28 73 69 6d 39 30 30 5f 67 70 72 73 5f 69 6e 69     (sim900_gprs_ini
    15be:	74 29 20 74 68 65 20 72 65 71 75 65 73 74 65 64     t) the requested
    15ce:	20 62 65 61 72 65 72 20 69 73 20 69 6e 20 63 6c      bearer is in cl
    15de:	6f 73 69 6e 67 20 73 74 61 74 75 73 20 28 57 41     osing status (WA
    15ee:	52 4e 49 4e 47 29 0d 0a 00                          RNING)...

000015f7 <__c.6992>:
    15f7:	28 73 69 6d 39 30 30 5f 67 70 72 73 5f 69 6e 69     (sim900_gprs_ini
    1607:	74 29 20 74 68 65 20 72 65 71 75 65 73 74 65 64     t) the requested
    1617:	20 62 65 61 72 65 72 20 69 73 20 61 6c 72 65 61      bearer is alrea
    1627:	64 79 20 6f 70 65 6e 28 57 41 52 4e 49 4e 47 29     dy open(WARNING)
    1637:	0d 0a 00                                            ...

0000163a <__c.6994>:
    163a:	41 54 2b 53 41 50 42 52 3d 33 2c 31 2c 22 43 6f     AT+SAPBR=3,1,"Co
    164a:	6e 74 79 70 65 22 2c 22 47 50 52 53 22 0d 0a 00     ntype","GPRS"...

0000165a <__c.6996>:
    165a:	28 73 69 6d 39 30 30 5f 67 70 72 73 5f 69 6e 69     (sim900_gprs_ini
    166a:	74 29 20 74 68 65 20 53 41 50 42 52 3d 33 2c 31     t) the SAPBR=3,1
    167a:	2c 22 43 6f 6e 74 79 70 65 22 2c 22 47 50 52 53     ,"Contype","GPRS
    168a:	22 20 71 75 65 72 79 20 77 65 6e 74 20 77 72 6f     " query went wro
    169a:	6e 67 20 66 6f 72 20 73 6f 6d 65 20 72 65 61 73     ng for some reas
    16aa:	6f 6e 2c 20 70 72 6f 63 65 64 75 72 65 20 61 62     on, procedure ab
    16ba:	6f 72 74 65 64 0d 0a 00                             orted...

000016c2 <__c.6998>:
    16c2:	41 54 2b 53 41 50 42 52 3d 33 2c 31 2c 22 41 50     AT+SAPBR=3,1,"AP
    16d2:	4e 22 2c 22 00                                      N",".

000016d7 <__c.7000>:
    16d7:	22 0d 0a 00                                         "...

000016db <__c.7004>:
    16db:	28 73 69 6d 39 30 30 5f 67 70 72 73 5f 69 6e 69     (sim900_gprs_ini
    16eb:	74 29 20 74 68 65 20 53 41 50 42 52 3d 33 2c 31     t) the SAPBR=3,1
    16fb:	2c 22 41 50 4e 22 20 71 75 65 72 79 20 77 65 6e     ,"APN" query wen
    170b:	74 20 77 72 6f 6e 67 20 66 6f 72 20 73 6f 6d 65     t wrong for some
    171b:	20 72 65 61 73 6f 6e 2c 20 70 72 6f 63 65 64 75      reason, procedu
    172b:	72 65 20 61 62 6f 72 74 65 64 0d 0a 00              re aborted...

00001738 <__c.7008>:
    1738:	41 54 2b 53 41 50 42 52 3d 31 2c 31 0d 0a 00        AT+SAPBR=1,1...

00001747 <__c.7010>:
    1747:	28 73 69 6d 39 30 30 5f 67 70 72 73 5f 69 6e 69     (sim900_gprs_ini
    1757:	74 29 20 74 68 65 20 53 41 50 42 52 3d 31 2c 31     t) the SAPBR=1,1
    1767:	20 71 75 65 72 79 20 77 65 6e 74 20 77 72 6f 6e      query went wron
    1777:	67 20 66 6f 72 20 73 6f 6d 65 20 72 65 61 73 6f     g for some reaso
    1787:	6e 2c 20 70 72 6f 63 65 64 75 72 65 20 61 62 6f     n, procedure abo
    1797:	72 74 65 64 0d 0a 00                                rted...

0000179e <__c.7012>:
    179e:	41 54 2b 53 41 50 42 52 3d 32 2c 31 0d 0a 00        AT+SAPBR=2,1...

000017ad <__c.7014>:
    17ad:	28 73 69 6d 39 30 30 5f 67 70 72 73 5f 69 6e 69     (sim900_gprs_ini
    17bd:	74 29 20 74 68 65 20 53 41 50 42 52 20 71 75 65     t) the SAPBR que
    17cd:	72 79 20 77 65 6e 74 20 77 72 6f 6e 67 20 66 6f     ry went wrong fo
    17dd:	72 20 73 6f 6d 65 20 72 65 61 73 6f 6e 2c 20 70     r some reason, p
    17ed:	72 6f 63 65 64 75 72 65 20 61 62 6f 72 74 65 64     rocedure aborted
    17fd:	0d 0a 00                                            ...

00001800 <__c.7016>:
    1800:	28 73 69 6d 39 30 30 5f 67 70 72 73 5f 69 6e 69     (sim900_gprs_ini
    1810:	74 29 20 62 65 61 72 65 72 20 69 73 20 3a 20 00     t) bearer is : .

00001820 <__c.7018>:
    1820:	28 73 69 6d 39 30 30 5f 67 70 72 73 5f 69 6e 69     (sim900_gprs_ini
    1830:	74 29 20 74 68 65 20 53 41 50 42 52 20 71 75 65     t) the SAPBR que
    1840:	72 79 20 77 65 6e 74 20 77 72 6f 6e 67 2c 20 70     ry went wrong, p
    1850:	72 6f 63 65 64 75 72 65 20 61 62 6f 72 74 65 64     rocedure aborted
    1860:	0d 0a 00                                            ...

00001863 <__c.7021>:
    1863:	28 73 69 6d 39 30 30 5f 67 70 72 73 5f 69 6e 69     (sim900_gprs_ini
    1873:	74 29 20 74 68 65 20 72 65 71 75 65 73 74 65 64     t) the requested
    1883:	20 62 65 61 72 65 72 20 69 73 20 69 6e 20 27 63      bearer is in 'c
    1893:	6f 6e 6e 65 63 74 69 6e 67 27 20 73 74 61 74 75     onnecting' statu
    18a3:	73 2e 20 43 68 65 63 6b 20 61 67 61 69 6e 20 69     s. Check again i
    18b3:	6e 20 32 20 73 65 63 6f 6e 64 73 0d 0a 00           n 2 seconds...

000018c1 <__c.7024>:
    18c1:	28 73 69 6d 39 30 30 5f 67 70 72 73 5f 69 6e 69     (sim900_gprs_ini
    18d1:	74 29 20 74 68 65 20 72 65 71 75 65 73 74 65 64     t) the requested
    18e1:	20 62 65 61 72 65 72 20 69 73 20 6f 70 65 6e 0d      bearer is open.
    18f1:	0a 00                                               ..

000018f3 <__c.7027>:
    18f3:	28 73 69 6d 39 30 30 5f 67 70 72 73 5f 69 6e 69     (sim900_gprs_ini
    1903:	74 29 20 74 68 65 20 72 65 71 75 65 73 74 65 64     t) the requested
    1913:	20 62 65 61 72 65 72 20 69 73 20 63 6c 6f 73 65      bearer is close
    1923:	64 20 6f 72 20 69 6e 20 63 6c 6f 73 69 6e 67 20     d or in closing 
    1933:	73 74 61 74 75 73 20 28 45 52 52 4f 52 29 0d 0a     status (ERROR)..
	...

00001944 <__c.7034>:
    1944:	41 54 2b 53 41 50 42 52 3d 30 2c 31 0d 0a 00        AT+SAPBR=0,1...

00001953 <__c.7043>:
    1953:	41 54 2b 48 54 54 50 52 45 41 44 0d 0a 00           AT+HTTPREAD...

00001961 <__c.7045>:
    1961:	2b 48 54 54 50 52 45 41 44 3a 00                    +HTTPREAD:.

0000196c <__c.7048>:
    196c:	28 73 69 6d 39 30 30 5f 68 74 74 70 5f 72 65 61     (sim900_http_rea
    197c:	64 31 29 20 23 31 20 67 6f 74 20 74 69 6d 65 6f     d1) #1 got timeo
    198c:	75 74 20 77 61 69 74 69 6e 67 20 66 6f 72 20 73     ut waiting for s
    199c:	69 6d 39 30 30 20 72 65 73 70 6f 6e 73 65 0d 0a     im900 response..
	...

000019ad <__c.7050>:
    19ad:	28 73 69 6d 39 30 30 5f 68 74 74 70 5f 72 65 61     (sim900_http_rea
    19bd:	64 31 29 20 23 31 20 70 72 6f 76 69 64 65 64 20     d1) #1 provided 
    19cd:	62 75 66 66 65 72 20 69 73 20 6e 6f 74 20 62 69     buffer is not bi
    19dd:	67 20 65 6e 6f 75 67 68 0d 0a 00                    g enough...

000019e8 <__c.7052>:
    19e8:	28 73 69 6d 39 30 30 5f 68 74 74 70 5f 72 65 61     (sim900_http_rea
    19f8:	64 32 29 20 23 32 20 67 6f 74 20 74 69 6d 65 6f     d2) #2 got timeo
    1a08:	75 74 20 77 61 69 74 69 6e 67 20 66 6f 72 20 73     ut waiting for s
    1a18:	69 6d 39 30 30 20 72 65 73 70 6f 6e 73 65 0d 0a     im900 response..
	...

00001a29 <__c.7054>:
    1a29:	28 73 69 6d 39 30 30 5f 68 74 74 70 5f 72 65 61     (sim900_http_rea
    1a39:	64 32 29 20 23 32 20 70 72 6f 76 69 64 65 64 20     d2) #2 provided 
    1a49:	62 75 66 66 65 72 20 69 73 20 6e 6f 74 20 62 69     buffer is not bi
    1a59:	67 20 65 6e 6f 75 67 68 0d 0a 00                    g enough...

00001a64 <__c.7062>:
    1a64:	41 54 0d 0a 00                                      AT...

00001a69 <__c.7064>:
    1a69:	28 73 69 6d 39 30 30 5f 68 74 74 70 5f 67 65 74     (sim900_http_get
    1a79:	29 20 53 49 4d 39 30 30 20 6e 6f 74 20 72 65 73     ) SIM900 not res
    1a89:	70 6f 6e 64 69 6e 67 20 0d 0a 00                    ponding ...

00001a94 <__c.7066>:
    1a94:	41 54 2b 48 54 54 50 49 4e 49 54 0d 0a 00           AT+HTTPINIT...

00001aa2 <__c.7068>:
    1aa2:	28 73 69 6d 39 30 30 5f 68 74 74 70 5f 67 65 74     (sim900_http_get
    1ab2:	29 20 41 54 2b 48 54 54 50 49 4e 49 54 20 6e 6f     ) AT+HTTPINIT no
    1ac2:	74 20 4f 4b 0d 0a 00                                t OK...

00001ac9 <__c.7070>:
    1ac9:	41 54 2b 48 54 54 50 50 41 52 41 3d 22 43 49 44     AT+HTTPPARA="CID
    1ad9:	22 2c 31 0d 0a 00                                   ",1...

00001adf <__c.7072>:
    1adf:	28 73 69 6d 39 30 30 5f 68 74 74 70 5f 67 65 74     (sim900_http_get
    1aef:	29 20 41 54 2b 48 54 54 50 50 41 52 41 3d 22 43     ) AT+HTTPPARA="C
    1aff:	49 44 22 20 6e 6f 74 20 4f 4b 0d 0a 00              ID" not OK...

00001b0c <__c.7074>:
    1b0c:	41 54 2b 48 54 54 50 50 41 52 41 3d 22 55 52 4c     AT+HTTPPARA="URL
    1b1c:	22 2c 22 00                                         ",".

00001b20 <__c.7076>:
    1b20:	22 0d 0a 00                                         "...

00001b24 <__c.7078>:
    1b24:	41 54 2b 48 54 54 50 41 43 54 49 4f 4e 3d 30 0d     AT+HTTPACTION=0.
    1b34:	0a 00                                               ..

00001b36 <__c.7080>:
    1b36:	28 68 74 74 70 5f 67 65 74 29 20 48 54 54 50 41     (http_get) HTTPA
    1b46:	43 54 49 4f 4e 20 64 69 64 6e 27 74 20 72 65 74     CTION didn't ret
    1b56:	75 72 6e 20 4f 4b 0d 0a 00                          urn OK...

00001b5f <__c.7082>:
    1b5f:	2b 48 54 54 50 41 43 54 49 4f 4e 3a 00              +HTTPACTION:.

00001b6c <__c.7084>:
    1b6c:	28 68 74 74 70 5f 67 65 74 29 20 64 69 64 6e 27     (http_get) didn'
    1b7c:	74 20 67 6f 74 20 2b 68 74 74 70 61 63 74 69 6f     t got +httpactio
    1b8c:	6e 20 61 62 6f 72 74 69 6e 67 0d 0a 00              n aborting...

00001b99 <__c.7090>:
    1b99:	28 73 69 6d 39 30 30 5f 68 74 74 70 5f 67 65 74     (sim900_http_get
    1ba9:	29 20 67 6f 74 20 74 69 6d 65 6f 75 74 20 77 61     ) got timeout wa
    1bb9:	69 74 69 6e 67 20 66 6f 72 20 68 74 74 70 61 63     iting for httpac
    1bc9:	74 69 6f 6e 20 72 65 73 70 6f 6e 73 65 0d 0a 00     tion response...

00001bd9 <__c.7092>:
    1bd9:	28 73 69 6d 39 30 30 5f 68 74 74 70 5f 67 65 74     (sim900_http_get
    1be9:	29 20 68 74 74 70 61 63 74 69 6f 6e 20 72 65 74     ) httpaction ret
    1bf9:	75 72 6e 65 64 3a 20 00                             urned: .

00001c01 <__c.7094>:
    1c01:	28 73 69 6d 39 30 30 5f 68 74 74 70 5f 67 65 74     (sim900_http_get
    1c11:	29 20 68 74 74 70 67 65 74 20 72 65 73 70 6f 6e     ) httpget respon
    1c21:	73 65 20 77 61 73 20 6e 6f 74 20 4f 4b 0d 0a 00     se was not OK...

00001c31 <__c.7096>:
    1c31:	41 54 2b 48 54 54 50 52 45 41 44 0d 0a 00           AT+HTTPREAD...

00001c3f <__c.7098>:
    1c3f:	2b 48 54 54 50 52 45 41 44 3a 00                    +HTTPREAD:.

00001c4a <__c.7100>:
    1c4a:	28 73 69 6d 39 30 30 5f 68 74 74 70 5f 67 65 74     (sim900_http_get
    1c5a:	29 20 23 31 20 67 6f 74 20 74 69 6d 65 6f 75 74     ) #1 got timeout
    1c6a:	20 77 61 69 74 69 6e 67 20 66 6f 72 20 73 69 6d      waiting for sim
    1c7a:	39 30 30 20 72 65 73 70 6f 6e 73 65 0d 0a 00        900 response...

00001c89 <__c.7102>:
    1c89:	28 73 69 6d 39 30 30 5f 68 74 74 70 5f 67 65 74     (sim900_http_get
    1c99:	29 20 23 31 20 70 72 6f 76 69 64 65 64 20 62 75     ) #1 provided bu
    1ca9:	66 66 65 72 20 69 73 20 6e 6f 74 20 62 69 67 20     ffer is not big 
    1cb9:	65 6e 6f 75 67 68 0d 0a 00                          enough...

00001cc2 <__c.7115>:
    1cc2:	41 54 0d 0a 00                                      AT...

00001cc7 <__c.7117>:
    1cc7:	28 73 69 6d 39 30 30 5f 68 74 74 70 5f 70 6f 73     (sim900_http_pos
    1cd7:	74 29 20 53 49 4d 39 30 30 20 6e 6f 74 20 72 65     t) SIM900 not re
    1ce7:	73 70 6f 6e 64 69 6e 67 20 0d 0a 00                 sponding ...

00001cf3 <__c.7119>:
    1cf3:	41 54 2b 48 54 54 50 49 4e 49 54 0d 0a 00           AT+HTTPINIT...

00001d01 <__c.7121>:
    1d01:	41 54 2b 48 54 54 50 50 41 52 41 3d 22 43 49 44     AT+HTTPPARA="CID
    1d11:	22 2c 31 0d 0a 00                                   ",1...

00001d17 <__c.7123>:
    1d17:	41 54 2b 48 54 54 50 50 41 52 41 3d 22 55 52 4c     AT+HTTPPARA="URL
    1d27:	22 2c 22 00                                         ",".

00001d2b <__c.7125>:
    1d2b:	22 0d 0a 00                                         "...

00001d2f <__c.7129>:
    1d2f:	41 54 2b 48 54 54 50 44 41 54 41 3d 25 64 2c 25     AT+HTTPDATA=%d,%
    1d3f:	64 0d 0a 00                                         d...

00001d43 <__c.7131>:
    1d43:	44 4f 57 4e 4c 4f 41 44 00                          DOWNLOAD.

00001d4c <__c.7133>:
    1d4c:	41 54 2b 48 54 54 50 41 43 54 49 4f 4e 3d 31 0d     AT+HTTPACTION=1.
    1d5c:	0a 00                                               ..

00001d5e <__c.7135>:
    1d5e:	28 68 74 74 70 5f 70 6f 73 74 29 20 48 54 54 50     (http_post) HTTP
    1d6e:	41 43 54 49 4f 4e 20 64 69 64 6e 27 74 20 72 65     ACTION didn't re
    1d7e:	74 75 72 6e 20 4f 4b 0d 0a 00                       turn OK...

00001d88 <__c.7137>:
    1d88:	2b 48 54 54 50 41 43 54 49 4f 4e 3a 00              +HTTPACTION:.

00001d95 <__c.7139>:
    1d95:	28 68 74 74 70 5f 70 6f 73 74 29 20 2b 68 74 74     (http_post) +htt
    1da5:	70 61 63 74 69 6f 6e 20 69 73 20 74 61 6b 69 6e     paction is takin
    1db5:	67 20 61 20 77 68 69 6c 65 0d 0a 00                 g a while...

00001dc1 <__c.7141>:
    1dc1:	2b 48 54 54 50 41 43 54 49 4f 4e 3a 00              +HTTPACTION:.

00001dce <__c.7143>:
    1dce:	28 68 74 74 70 5f 70 6f 73 74 29 20 2b 68 74 74     (http_post) +htt
    1dde:	70 61 63 74 69 6f 6e 20 69 73 20 74 61 6b 69 6e     paction is takin
    1dee:	67 20 61 20 6c 6f 74 0d 0a 00                       g a lot...

00001df8 <__c.7145>:
    1df8:	2b 48 54 54 50 41 43 54 49 4f 4e 3a 00              +HTTPACTION:.

00001e05 <__c.7147>:
    1e05:	28 68 74 74 70 5f 70 6f 73 74 29 20 64 69 64 6e     (http_post) didn
    1e15:	27 74 20 67 6f 74 20 2b 68 74 74 70 61 63 74 69     't got +httpacti
    1e25:	6f 6e 20 61 62 6f 72 74 69 6e 67 0d 0a 00           on aborting...

00001e33 <__c.7151>:
    1e33:	28 73 69 6d 39 30 30 5f 68 74 74 70 5f 70 6f 73     (sim900_http_pos
    1e43:	74 29 20 68 74 74 70 61 63 74 69 6f 6e 20 72 65     t) httpaction re
    1e53:	74 75 72 6e 65 64 3a 20 00                          turned: .

00001e5c <__c.7153>:
    1e5c:	28 73 69 6d 39 30 30 5f 68 74 74 70 5f 67 65 74     (sim900_http_get
    1e6c:	29 20 68 74 74 70 70 6f 73 74 20 72 65 73 70 6f     ) httppost respo
    1e7c:	6e 73 65 20 77 61 73 20 6e 6f 74 20 4f 4b 0d 0a     nse was not OK..
	...

00001e8d <__c.7158>:
    1e8d:	41 54 2b 48 54 54 50 54 45 52 4d 0d 0a 00           AT+HTTPTERM...

00001e9b <sz_ERROR>:
    1e9b:	45 52 52 4f 52 00                                   ERROR.

00001ea1 <szCPIN_SIM_READY>:
    1ea1:	52 45 41 44 59 00                                   READY.

00001ea7 <szCPIN_PHSIM_PIN>:
    1ea7:	50 48 5f 53 49 4d 20 50 49 4e 00                    PH_SIM PIN.

00001eb2 <szCPIN_PHSIM_PUK>:
    1eb2:	50 48 5f 53 49 4d 20 50 55 4b 00                    PH_SIM PUK.

00001ebd <szCPIN_SIM_PIN2>:
    1ebd:	53 49 4d 20 50 49 4e 32 00                          SIM PIN2.

00001ec6 <szCPIN_SIM_PUK2>:
    1ec6:	53 49 4d 20 50 55 4b 32 00                          SIM PUK2.

00001ecf <szCRLF>:
    1ecf:	0d 0a 00                                            ...

00001ed2 <__c.6569>:
    1ed2:	20 20 5b 4f 55 54 5d 09 2f 5c 20 00                   [OUT]./\ .

00001ede <__c.6571>:
    1ede:	0d 0a 00                                            ...

00001ee1 <__c.6577>:
    1ee1:	20 20 5b 49 4e 5d 09 5c 2f 20 00                      [IN].\/ .

00001eec <__c.6579>:
    1eec:	0d 0a 00                                            ...

00001eef <__c.6585>:
    1eef:	20 20 5b 49 4e 5d 09 5c 2f 20 00                      [IN].\/ .

00001efa <__c.6587>:
    1efa:	0d 0a 00                                            ...

00001efd <__c.6592>:
    1efd:	20 20 5b 4f 55 54 5d 09 2f 5c 20 00                   [OUT]./\ .

00001f09 <__c.6594>:
    1f09:	0d 0a 00                                            ...

00001f0c <__c.6601>:
    1f0c:	09 66 69 72 73 74 20 74 69 70 20 63 65 6e 74 73     .first tip cents
    1f1c:	3a 20 25 75 0d 0a 09 6c 61 73 74 20 74 69 70 20     : %u...last tip 
    1f2c:	63 65 6e 74 73 3a 25 75 0d 0a 09 6d 61 78 20 73     cents:%u...max s
    1f3c:	6c 6f 70 65 20 63 65 6e 74 73 3a 20 25 75 0d 0a     lope cents: %u..
    1f4c:	09 74 69 70 73 3a 20 25 75 0d 0a 09 6d 61 78 20     .tips: %u...max 
    1f5c:	73 6c 6f 70 65 20 25 75 0d 0a 00 00                 slope %u....

00001f68 <__ctors_end>:
    1f68:	11 24       	eor	r1, r1
    1f6a:	1f be       	out	0x3f, r1	; 63
    1f6c:	cf ef       	ldi	r28, 0xFF	; 255
    1f6e:	df e5       	ldi	r29, 0x5F	; 95
    1f70:	de bf       	out	0x3e, r29	; 62
    1f72:	cd bf       	out	0x3d, r28	; 61
    1f74:	00 e0       	ldi	r16, 0x00	; 0
    1f76:	0c bf       	out	0x3c, r16	; 60

00001f78 <__do_copy_data>:
    1f78:	11 e2       	ldi	r17, 0x21	; 33
    1f7a:	a0 e0       	ldi	r26, 0x00	; 0
    1f7c:	b0 e2       	ldi	r27, 0x20	; 32
    1f7e:	ec ec       	ldi	r30, 0xCC	; 204
    1f80:	f8 e9       	ldi	r31, 0x98	; 152
    1f82:	00 e0       	ldi	r16, 0x00	; 0
    1f84:	0b bf       	out	0x3b, r16	; 59
    1f86:	02 c0       	rjmp	.+4      	; 0x1f8c <__do_copy_data+0x14>
    1f88:	07 90       	elpm	r0, Z+
    1f8a:	0d 92       	st	X+, r0
    1f8c:	a6 38       	cpi	r26, 0x86	; 134
    1f8e:	b1 07       	cpc	r27, r17
    1f90:	d9 f7       	brne	.-10     	; 0x1f88 <__do_copy_data+0x10>

00001f92 <__do_clear_bss>:
    1f92:	25 e2       	ldi	r18, 0x25	; 37
    1f94:	a8 e8       	ldi	r26, 0x88	; 136
    1f96:	b1 e2       	ldi	r27, 0x21	; 33
    1f98:	01 c0       	rjmp	.+2      	; 0x1f9c <.do_clear_bss_start>

00001f9a <.do_clear_bss_loop>:
    1f9a:	1d 92       	st	X+, r1

00001f9c <.do_clear_bss_start>:
    1f9c:	a2 3e       	cpi	r26, 0xE2	; 226
    1f9e:	b2 07       	cpc	r27, r18
    1fa0:	e1 f7       	brne	.-8      	; 0x1f9a <.do_clear_bss_loop>
    1fa2:	0e 94 91 1f 	call	0x3f22	; 0x3f22 <main>
    1fa6:	0c 94 64 4c 	jmp	0x98c8	; 0x98c8 <_exit>

00001faa <__bad_interrupt>:
    1faa:	0c 94 00 00 	jmp	0	; 0x0 <__vectors>

00001fae <cfg_get>:
    1fae:	ff 92       	push	r15
    1fb0:	0f 93       	push	r16
    1fb2:	1f 93       	push	r17
    1fb4:	cf 93       	push	r28
    1fb6:	df 93       	push	r29
    1fb8:	1f 92       	push	r1
    1fba:	1f 92       	push	r1
    1fbc:	cd b7       	in	r28, 0x3d	; 61
    1fbe:	de b7       	in	r29, 0x3e	; 62
    1fc0:	8b 01       	movw	r16, r22
    1fc2:	f4 2e       	mov	r15, r20
    1fc4:	42 e0       	ldi	r20, 0x02	; 2
    1fc6:	50 e0       	ldi	r21, 0x00	; 0
    1fc8:	be 01       	movw	r22, r28
    1fca:	6f 5f       	subi	r22, 0xFF	; 255
    1fcc:	7f 4f       	sbci	r23, 0xFF	; 255
    1fce:	90 e0       	ldi	r25, 0x00	; 0
    1fd0:	0e 94 54 34 	call	0x68a8	; 0x68a8 <nvm_eeprom_read_buffer>
    1fd4:	89 81       	ldd	r24, Y+1	; 0x01
    1fd6:	9a 81       	ldd	r25, Y+2	; 0x02
    1fd8:	e0 e0       	ldi	r30, 0x00	; 0
    1fda:	f0 e1       	ldi	r31, 0x10	; 16
    1fdc:	e8 1b       	sub	r30, r24
    1fde:	f9 0b       	sbc	r31, r25
    1fe0:	4f 2d       	mov	r20, r15
    1fe2:	50 e0       	ldi	r21, 0x00	; 0
    1fe4:	e4 17       	cp	r30, r20
    1fe6:	f5 07       	cpc	r31, r21
    1fe8:	08 f4       	brcc	.+2      	; 0x1fec <cfg_get+0x3e>
    1fea:	af 01       	movw	r20, r30
    1fec:	b8 01       	movw	r22, r16
    1fee:	0e 94 54 34 	call	0x68a8	; 0x68a8 <nvm_eeprom_read_buffer>
    1ff2:	0f 90       	pop	r0
    1ff4:	0f 90       	pop	r0
    1ff6:	df 91       	pop	r29
    1ff8:	cf 91       	pop	r28
    1ffa:	1f 91       	pop	r17
    1ffc:	0f 91       	pop	r16
    1ffe:	ff 90       	pop	r15
    2000:	08 95       	ret

00002002 <cfg_check>:
    2002:	cf 93       	push	r28
    2004:	df 93       	push	r29
    2006:	1f 92       	push	r1
    2008:	1f 92       	push	r1
    200a:	cd b7       	in	r28, 0x3d	; 61
    200c:	de b7       	in	r29, 0x3e	; 62
    200e:	42 e0       	ldi	r20, 0x02	; 2
    2010:	50 e0       	ldi	r21, 0x00	; 0
    2012:	be 01       	movw	r22, r28
    2014:	6f 5f       	subi	r22, 0xFF	; 255
    2016:	7f 4f       	sbci	r23, 0xFF	; 255
    2018:	80 e0       	ldi	r24, 0x00	; 0
    201a:	90 e0       	ldi	r25, 0x00	; 0
    201c:	0e 94 54 34 	call	0x68a8	; 0x68a8 <nvm_eeprom_read_buffer>
    2020:	81 e0       	ldi	r24, 0x01	; 1
    2022:	29 81       	ldd	r18, Y+1	; 0x01
    2024:	3a 81       	ldd	r19, Y+2	; 0x02
    2026:	2c 3a       	cpi	r18, 0xAC	; 172
    2028:	31 40       	sbci	r19, 0x01	; 1
    202a:	09 f0       	breq	.+2      	; 0x202e <cfg_check+0x2c>
    202c:	80 e0       	ldi	r24, 0x00	; 0
    202e:	0f 90       	pop	r0
    2030:	0f 90       	pop	r0
    2032:	df 91       	pop	r29
    2034:	cf 91       	pop	r28
    2036:	08 95       	ret

00002038 <cfg_get_sim_pin>:
    2038:	46 2f       	mov	r20, r22
    203a:	bc 01       	movw	r22, r24
    203c:	88 e0       	ldi	r24, 0x08	; 8
    203e:	b7 cf       	rjmp	.-146    	; 0x1fae <cfg_get>

00002040 <cfg_get_gprs_apn>:
    2040:	46 2f       	mov	r20, r22
    2042:	bc 01       	movw	r22, r24
    2044:	86 e0       	ldi	r24, 0x06	; 6
    2046:	b3 cf       	rjmp	.-154    	; 0x1fae <cfg_get>

00002048 <cfg_get_aws_id>:
    2048:	46 2f       	mov	r20, r22
    204a:	bc 01       	movw	r22, r24
    204c:	84 e0       	ldi	r24, 0x04	; 4
    204e:	af cf       	rjmp	.-162    	; 0x1fae <cfg_get>

00002050 <cfg_get_service_url_time>:
    2050:	46 2f       	mov	r20, r22
    2052:	bc 01       	movw	r22, r24
    2054:	8a e0       	ldi	r24, 0x0A	; 10
    2056:	ab cf       	rjmp	.-170    	; 0x1fae <cfg_get>

00002058 <cfg_get_service_url_send>:
    2058:	46 2f       	mov	r20, r22
    205a:	bc 01       	movw	r22, r24
    205c:	8c e0       	ldi	r24, 0x0C	; 12
    205e:	a7 cf       	rjmp	.-178    	; 0x1fae <cfg_get>

00002060 <cfg_get_datalogger_timings>:
    2060:	af 92       	push	r10
    2062:	bf 92       	push	r11
    2064:	cf 92       	push	r12
    2066:	df 92       	push	r13
    2068:	ef 92       	push	r14
    206a:	ff 92       	push	r15
    206c:	0f 93       	push	r16
    206e:	1f 93       	push	r17
    2070:	cf 93       	push	r28
    2072:	df 93       	push	r29
    2074:	cd b7       	in	r28, 0x3d	; 61
    2076:	de b7       	in	r29, 0x3e	; 62
    2078:	60 97       	sbiw	r28, 0x10	; 16
    207a:	cd bf       	out	0x3d, r28	; 61
    207c:	de bf       	out	0x3e, r29	; 62
    207e:	5c 01       	movw	r10, r24
    2080:	6b 01       	movw	r12, r22
    2082:	7a 01       	movw	r14, r20
    2084:	89 01       	movw	r16, r18
    2086:	40 e1       	ldi	r20, 0x10	; 16
    2088:	be 01       	movw	r22, r28
    208a:	6f 5f       	subi	r22, 0xFF	; 255
    208c:	7f 4f       	sbci	r23, 0xFF	; 255
    208e:	8e e0       	ldi	r24, 0x0E	; 14
    2090:	8e df       	rcall	.-228    	; 0x1fae <cfg_get>
    2092:	89 81       	ldd	r24, Y+1	; 0x01
    2094:	9a 81       	ldd	r25, Y+2	; 0x02
    2096:	ab 81       	ldd	r26, Y+3	; 0x03
    2098:	bc 81       	ldd	r27, Y+4	; 0x04
    209a:	f5 01       	movw	r30, r10
    209c:	80 83       	st	Z, r24
    209e:	91 83       	std	Z+1, r25	; 0x01
    20a0:	a2 83       	std	Z+2, r26	; 0x02
    20a2:	b3 83       	std	Z+3, r27	; 0x03
    20a4:	8d 81       	ldd	r24, Y+5	; 0x05
    20a6:	9e 81       	ldd	r25, Y+6	; 0x06
    20a8:	af 81       	ldd	r26, Y+7	; 0x07
    20aa:	b8 85       	ldd	r27, Y+8	; 0x08
    20ac:	f6 01       	movw	r30, r12
    20ae:	80 83       	st	Z, r24
    20b0:	91 83       	std	Z+1, r25	; 0x01
    20b2:	a2 83       	std	Z+2, r26	; 0x02
    20b4:	b3 83       	std	Z+3, r27	; 0x03
    20b6:	89 85       	ldd	r24, Y+9	; 0x09
    20b8:	9a 85       	ldd	r25, Y+10	; 0x0a
    20ba:	ab 85       	ldd	r26, Y+11	; 0x0b
    20bc:	bc 85       	ldd	r27, Y+12	; 0x0c
    20be:	f7 01       	movw	r30, r14
    20c0:	80 83       	st	Z, r24
    20c2:	91 83       	std	Z+1, r25	; 0x01
    20c4:	a2 83       	std	Z+2, r26	; 0x02
    20c6:	b3 83       	std	Z+3, r27	; 0x03
    20c8:	8d 85       	ldd	r24, Y+13	; 0x0d
    20ca:	9e 85       	ldd	r25, Y+14	; 0x0e
    20cc:	af 85       	ldd	r26, Y+15	; 0x0f
    20ce:	b8 89       	ldd	r27, Y+16	; 0x10
    20d0:	f8 01       	movw	r30, r16
    20d2:	80 83       	st	Z, r24
    20d4:	91 83       	std	Z+1, r25	; 0x01
    20d6:	a2 83       	std	Z+2, r26	; 0x02
    20d8:	b3 83       	std	Z+3, r27	; 0x03
    20da:	60 96       	adiw	r28, 0x10	; 16
    20dc:	cd bf       	out	0x3d, r28	; 61
    20de:	de bf       	out	0x3e, r29	; 62
    20e0:	df 91       	pop	r29
    20e2:	cf 91       	pop	r28
    20e4:	1f 91       	pop	r17
    20e6:	0f 91       	pop	r16
    20e8:	ff 90       	pop	r15
    20ea:	ef 90       	pop	r14
    20ec:	df 90       	pop	r13
    20ee:	cf 90       	pop	r12
    20f0:	bf 90       	pop	r11
    20f2:	af 90       	pop	r10
    20f4:	08 95       	ret

000020f6 <__portable_avr_delay_cycles>:
    20f6:	61 50       	subi	r22, 0x01	; 1
    20f8:	71 09       	sbc	r23, r1
    20fa:	81 09       	sbc	r24, r1
    20fc:	91 09       	sbc	r25, r1
    20fe:	d9 f7       	brne	.-10     	; 0x20f6 <__portable_avr_delay_cycles>
    2100:	08 95       	ret

00002102 <datalogger_init_iterators_to_eeprom>:
    2102:	8f 92       	push	r8
    2104:	9f 92       	push	r9
    2106:	af 92       	push	r10
    2108:	bf 92       	push	r11
    210a:	cf 92       	push	r12
    210c:	df 92       	push	r13
    210e:	ef 92       	push	r14
    2110:	ff 92       	push	r15
    2112:	0f 93       	push	r16
    2114:	cf 93       	push	r28
    2116:	df 93       	push	r29
    2118:	0e 94 32 21 	call	0x4264	; 0x4264 <AT24CXX_Init>
    211c:	94 e0       	ldi	r25, 0x04	; 4
    211e:	c9 2e       	mov	r12, r25
    2120:	d1 2c       	mov	r13, r1
    2122:	e1 2c       	mov	r14, r1
    2124:	f1 2c       	mov	r15, r1
    2126:	c0 e0       	ldi	r28, 0x00	; 0
    2128:	d0 e0       	ldi	r29, 0x00	; 0
    212a:	9e 01       	movw	r18, r28
    212c:	22 0f       	add	r18, r18
    212e:	33 1f       	adc	r19, r19
    2130:	22 0f       	add	r18, r18
    2132:	33 1f       	adc	r19, r19
    2134:	29 54       	subi	r18, 0x49	; 73
    2136:	3d 4d       	sbci	r19, 0xDD	; 221
    2138:	04 e0       	ldi	r16, 0x04	; 4
    213a:	4c 2d       	mov	r20, r12
    213c:	6d 2d       	mov	r22, r13
    213e:	8e 2d       	mov	r24, r14
    2140:	0e 94 67 21 	call	0x42ce	; 0x42ce <AT24CXX_WriteBlockA>
    2144:	60 e2       	ldi	r22, 0x20	; 32
    2146:	7e e4       	ldi	r23, 0x4E	; 78
    2148:	80 e0       	ldi	r24, 0x00	; 0
    214a:	90 e0       	ldi	r25, 0x00	; 0
    214c:	d4 df       	rcall	.-88     	; 0x20f6 <__portable_avr_delay_cycles>
    214e:	46 01       	movw	r8, r12
    2150:	54 01       	movw	r10, r8
    2152:	84 e0       	ldi	r24, 0x04	; 4
    2154:	a8 0e       	add	r10, r24
    2156:	b1 1c       	adc	r11, r1
    2158:	80 e2       	ldi	r24, 0x20	; 32
    215a:	88 0e       	add	r8, r24
    215c:	91 1c       	adc	r9, r1
    215e:	c5 01       	movw	r24, r10
    2160:	04 e0       	ldi	r16, 0x04	; 4
    2162:	22 ec       	ldi	r18, 0xC2	; 194
    2164:	30 e2       	ldi	r19, 0x20	; 32
    2166:	4a 2d       	mov	r20, r10
    2168:	69 2f       	mov	r22, r25
    216a:	80 e0       	ldi	r24, 0x00	; 0
    216c:	0e 94 67 21 	call	0x42ce	; 0x42ce <AT24CXX_WriteBlockA>
    2170:	60 e2       	ldi	r22, 0x20	; 32
    2172:	7e e4       	ldi	r23, 0x4E	; 78
    2174:	80 e0       	ldi	r24, 0x00	; 0
    2176:	90 e0       	ldi	r25, 0x00	; 0
    2178:	be df       	rcall	.-132    	; 0x20f6 <__portable_avr_delay_cycles>
    217a:	84 e0       	ldi	r24, 0x04	; 4
    217c:	a8 0e       	add	r10, r24
    217e:	b1 1c       	adc	r11, r1
    2180:	a8 14       	cp	r10, r8
    2182:	b9 04       	cpc	r11, r9
    2184:	61 f7       	brne	.-40     	; 0x215e <datalogger_init_iterators_to_eeprom+0x5c>
    2186:	21 96       	adiw	r28, 0x01	; 1
    2188:	88 e0       	ldi	r24, 0x08	; 8
    218a:	c8 0e       	add	r12, r24
    218c:	d1 1c       	adc	r13, r1
    218e:	e1 1c       	adc	r14, r1
    2190:	f1 1c       	adc	r15, r1
    2192:	c2 30       	cpi	r28, 0x02	; 2
    2194:	d1 05       	cpc	r29, r1
    2196:	49 f6       	brne	.-110    	; 0x212a <datalogger_init_iterators_to_eeprom+0x28>
    2198:	80 e0       	ldi	r24, 0x00	; 0
    219a:	df 91       	pop	r29
    219c:	cf 91       	pop	r28
    219e:	0f 91       	pop	r16
    21a0:	ff 90       	pop	r15
    21a2:	ef 90       	pop	r14
    21a4:	df 90       	pop	r13
    21a6:	cf 90       	pop	r12
    21a8:	bf 90       	pop	r11
    21aa:	af 90       	pop	r10
    21ac:	9f 90       	pop	r9
    21ae:	8f 90       	pop	r8
    21b0:	08 95       	ret

000021b2 <dl_get_record>:
    21b2:	df 92       	push	r13
    21b4:	ef 92       	push	r14
    21b6:	ff 92       	push	r15
    21b8:	0f 93       	push	r16
    21ba:	1f 93       	push	r17
    21bc:	cf 93       	push	r28
    21be:	df 93       	push	r29
    21c0:	ec 01       	movw	r28, r24
    21c2:	7b 01       	movw	r14, r22
    21c4:	18 81       	ld	r17, Y
    21c6:	69 81       	ldd	r22, Y+1	; 0x01
    21c8:	8a 81       	ldd	r24, Y+2	; 0x02
    21ca:	91 2f       	mov	r25, r17
    21cc:	91 50       	subi	r25, 0x01	; 1
    21ce:	90 31       	cpi	r25, 0x10	; 16
    21d0:	30 f0       	brcs	.+12     	; 0x21de <dl_get_record+0x2c>
    21d2:	01 e1       	ldi	r16, 0x11	; 17
    21d4:	97 01       	movw	r18, r14
    21d6:	41 2f       	mov	r20, r17
    21d8:	0e 94 8b 21 	call	0x4316	; 0x4316 <AT24CXX_ReadBlockA>
    21dc:	16 c0       	rjmp	.+44     	; 0x220a <dl_get_record+0x58>
    21de:	21 e1       	ldi	r18, 0x11	; 17
    21e0:	d2 2e       	mov	r13, r18
    21e2:	d1 1a       	sub	r13, r17
    21e4:	0d 2d       	mov	r16, r13
    21e6:	97 01       	movw	r18, r14
    21e8:	41 2f       	mov	r20, r17
    21ea:	0e 94 8b 21 	call	0x4316	; 0x4316 <AT24CXX_ReadBlockA>
    21ee:	60 ee       	ldi	r22, 0xE0	; 224
    21f0:	7e e2       	ldi	r23, 0x2E	; 46
    21f2:	80 e0       	ldi	r24, 0x00	; 0
    21f4:	90 e0       	ldi	r25, 0x00	; 0
    21f6:	7f df       	rcall	.-258    	; 0x20f6 <__portable_avr_delay_cycles>
    21f8:	97 01       	movw	r18, r14
    21fa:	2d 0d       	add	r18, r13
    21fc:	31 1d       	adc	r19, r1
    21fe:	01 2f       	mov	r16, r17
    2200:	40 e0       	ldi	r20, 0x00	; 0
    2202:	69 81       	ldd	r22, Y+1	; 0x01
    2204:	8a 81       	ldd	r24, Y+2	; 0x02
    2206:	0e 94 8b 21 	call	0x4316	; 0x4316 <AT24CXX_ReadBlockA>
    220a:	80 e0       	ldi	r24, 0x00	; 0
    220c:	df 91       	pop	r29
    220e:	cf 91       	pop	r28
    2210:	1f 91       	pop	r17
    2212:	0f 91       	pop	r16
    2214:	ff 90       	pop	r15
    2216:	ef 90       	pop	r14
    2218:	df 90       	pop	r13
    221a:	08 95       	ret

0000221c <dl_iterator_moveback>:
    221c:	8f 92       	push	r8
    221e:	9f 92       	push	r9
    2220:	af 92       	push	r10
    2222:	bf 92       	push	r11
    2224:	cf 92       	push	r12
    2226:	df 92       	push	r13
    2228:	ef 92       	push	r14
    222a:	ff 92       	push	r15
    222c:	0f 93       	push	r16
    222e:	1f 93       	push	r17
    2230:	cf 93       	push	r28
    2232:	df 93       	push	r29
    2234:	ec 01       	movw	r28, r24
    2236:	81 e1       	ldi	r24, 0x11	; 17
    2238:	86 9f       	mul	r24, r22
    223a:	a0 01       	movw	r20, r0
    223c:	87 9f       	mul	r24, r23
    223e:	50 0d       	add	r21, r0
    2240:	11 24       	eor	r1, r1
    2242:	60 e0       	ldi	r22, 0x00	; 0
    2244:	70 e0       	ldi	r23, 0x00	; 0
    2246:	81 2c       	mov	r8, r1
    2248:	91 2c       	mov	r9, r1
    224a:	54 01       	movw	r10, r8
    224c:	93 94       	inc	r9
    224e:	84 0e       	add	r8, r20
    2250:	95 1e       	adc	r9, r21
    2252:	a6 1e       	adc	r10, r22
    2254:	b7 1e       	adc	r11, r23
    2256:	c8 80       	ld	r12, Y
    2258:	d9 80       	ldd	r13, Y+1	; 0x01
    225a:	ea 80       	ldd	r14, Y+2	; 0x02
    225c:	fb 80       	ldd	r15, Y+3	; 0x03
    225e:	80 91 b7 22 	lds	r24, 0x22B7
    2262:	90 91 b8 22 	lds	r25, 0x22B8
    2266:	a0 91 b9 22 	lds	r26, 0x22B9
    226a:	b0 91 ba 22 	lds	r27, 0x22BA
    226e:	97 01       	movw	r18, r14
    2270:	86 01       	movw	r16, r12
    2272:	08 1b       	sub	r16, r24
    2274:	19 0b       	sbc	r17, r25
    2276:	2a 0b       	sbc	r18, r26
    2278:	3b 0b       	sbc	r19, r27
    227a:	04 17       	cp	r16, r20
    227c:	15 07       	cpc	r17, r21
    227e:	26 07       	cpc	r18, r22
    2280:	37 07       	cpc	r19, r23
    2282:	9c f4       	brge	.+38     	; 0x22aa <dl_iterator_moveback+0x8e>
    2284:	41 e0       	ldi	r20, 0x01	; 1
    2286:	65 e5       	ldi	r22, 0x55	; 85
    2288:	78 e0       	ldi	r23, 0x08	; 8
    228a:	81 e0       	ldi	r24, 0x01	; 1
    228c:	0e 94 12 2f 	call	0x5e24	; 0x5e24 <debug_string>
    2290:	80 91 b7 22 	lds	r24, 0x22B7
    2294:	90 91 b8 22 	lds	r25, 0x22B8
    2298:	a0 91 b9 22 	lds	r26, 0x22B9
    229c:	b0 91 ba 22 	lds	r27, 0x22BA
    22a0:	88 83       	st	Y, r24
    22a2:	99 83       	std	Y+1, r25	; 0x01
    22a4:	aa 83       	std	Y+2, r26	; 0x02
    22a6:	bb 83       	std	Y+3, r27	; 0x03
    22a8:	1f c0       	rjmp	.+62     	; 0x22e8 <dl_iterator_moveback+0xcc>
    22aa:	c8 14       	cp	r12, r8
    22ac:	d9 04       	cpc	r13, r9
    22ae:	ea 04       	cpc	r14, r10
    22b0:	fb 04       	cpc	r15, r11
    22b2:	94 f4       	brge	.+36     	; 0x22d8 <dl_iterator_moveback+0xbc>
    22b4:	41 e0       	ldi	r20, 0x01	; 1
    22b6:	62 e2       	ldi	r22, 0x22	; 34
    22b8:	78 e0       	ldi	r23, 0x08	; 8
    22ba:	81 e0       	ldi	r24, 0x01	; 1
    22bc:	0e 94 12 2f 	call	0x5e24	; 0x5e24 <debug_string>
    22c0:	c8 18       	sub	r12, r8
    22c2:	d9 08       	sbc	r13, r9
    22c4:	ea 08       	sbc	r14, r10
    22c6:	fb 08       	sbc	r15, r11
    22c8:	18 e0       	ldi	r17, 0x08	; 8
    22ca:	e1 0e       	add	r14, r17
    22cc:	f1 1c       	adc	r15, r1
    22ce:	c8 82       	st	Y, r12
    22d0:	d9 82       	std	Y+1, r13	; 0x01
    22d2:	ea 82       	std	Y+2, r14	; 0x02
    22d4:	fb 82       	std	Y+3, r15	; 0x03
    22d6:	08 c0       	rjmp	.+16     	; 0x22e8 <dl_iterator_moveback+0xcc>
    22d8:	c4 1a       	sub	r12, r20
    22da:	d5 0a       	sbc	r13, r21
    22dc:	e6 0a       	sbc	r14, r22
    22de:	f7 0a       	sbc	r15, r23
    22e0:	c8 82       	st	Y, r12
    22e2:	d9 82       	std	Y+1, r13	; 0x01
    22e4:	ea 82       	std	Y+2, r14	; 0x02
    22e6:	fb 82       	std	Y+3, r15	; 0x03
    22e8:	df 91       	pop	r29
    22ea:	cf 91       	pop	r28
    22ec:	1f 91       	pop	r17
    22ee:	0f 91       	pop	r16
    22f0:	ff 90       	pop	r15
    22f2:	ef 90       	pop	r14
    22f4:	df 90       	pop	r13
    22f6:	cf 90       	pop	r12
    22f8:	bf 90       	pop	r11
    22fa:	af 90       	pop	r10
    22fc:	9f 90       	pop	r9
    22fe:	8f 90       	pop	r8
    2300:	08 95       	ret

00002302 <send_data_with_post>:
    2302:	2f 92       	push	r2
    2304:	3f 92       	push	r3
    2306:	4f 92       	push	r4
    2308:	5f 92       	push	r5
    230a:	6f 92       	push	r6
    230c:	7f 92       	push	r7
    230e:	8f 92       	push	r8
    2310:	9f 92       	push	r9
    2312:	af 92       	push	r10
    2314:	bf 92       	push	r11
    2316:	cf 92       	push	r12
    2318:	df 92       	push	r13
    231a:	ef 92       	push	r14
    231c:	ff 92       	push	r15
    231e:	0f 93       	push	r16
    2320:	1f 93       	push	r17
    2322:	cf 93       	push	r28
    2324:	df 93       	push	r29
    2326:	cd b7       	in	r28, 0x3d	; 61
    2328:	de b7       	in	r29, 0x3e	; 62
    232a:	c0 5e       	subi	r28, 0xE0	; 224
    232c:	d1 09       	sbc	r29, r1
    232e:	cd bf       	out	0x3d, r28	; 61
    2330:	de bf       	out	0x3e, r29	; 62
    2332:	3c 01       	movw	r6, r24
    2334:	2d b7       	in	r18, 0x3d	; 61
    2336:	3e b7       	in	r19, 0x3e	; 62
    2338:	c3 52       	subi	r28, 0x23	; 35
    233a:	df 4f       	sbci	r29, 0xFF	; 255
    233c:	28 83       	st	Y, r18
    233e:	39 83       	std	Y+1, r19	; 0x01
    2340:	cd 5d       	subi	r28, 0xDD	; 221
    2342:	d0 40       	sbci	r29, 0x00	; 0
    2344:	8d b7       	in	r24, 0x3d	; 61
    2346:	9e b7       	in	r25, 0x3e	; 62
    2348:	94 50       	subi	r25, 0x04	; 4
    234a:	8d bf       	out	0x3d, r24	; 61
    234c:	9e bf       	out	0x3e, r25	; 62
    234e:	0d b7       	in	r16, 0x3d	; 61
    2350:	1e b7       	in	r17, 0x3e	; 62
    2352:	0f 5f       	subi	r16, 0xFF	; 255
    2354:	1f 4f       	sbci	r17, 0xFF	; 255
    2356:	5e 01       	movw	r10, r28
    2358:	91 e8       	ldi	r25, 0x81	; 129
    235a:	a9 0e       	add	r10, r25
    235c:	b1 1c       	adc	r11, r1
    235e:	80 e4       	ldi	r24, 0x40	; 64
    2360:	f5 01       	movw	r30, r10
    2362:	11 92       	st	Z+, r1
    2364:	8a 95       	dec	r24
    2366:	e9 f7       	brne	.-6      	; 0x2362 <send_data_with_post+0x60>
    2368:	85 e3       	ldi	r24, 0x35	; 53
    236a:	91 e2       	ldi	r25, 0x21	; 33
    236c:	ca 52       	subi	r28, 0x2A	; 42
    236e:	df 4f       	sbci	r29, 0xFF	; 255
    2370:	88 83       	st	Y, r24
    2372:	99 83       	std	Y+1, r25	; 0x01
    2374:	c6 5d       	subi	r28, 0xD6	; 214
    2376:	d0 40       	sbci	r29, 0x00	; 0
    2378:	bc 01       	movw	r22, r24
    237a:	82 e0       	ldi	r24, 0x02	; 2
    237c:	0e 94 52 2f 	call	0x5ea4	; 0x5ea4 <debug_function_in_name_print>
    2380:	f3 01       	movw	r30, r6
    2382:	40 81       	ld	r20, Z
    2384:	51 81       	ldd	r21, Z+1	; 0x01
    2386:	62 81       	ldd	r22, Z+2	; 0x02
    2388:	73 81       	ldd	r23, Z+3	; 0x03
    238a:	80 91 b7 22 	lds	r24, 0x22B7
    238e:	90 91 b8 22 	lds	r25, 0x22B8
    2392:	a0 91 b9 22 	lds	r26, 0x22B9
    2396:	b0 91 ba 22 	lds	r27, 0x22BA
    239a:	48 17       	cp	r20, r24
    239c:	59 07       	cpc	r21, r25
    239e:	6a 07       	cpc	r22, r26
    23a0:	7b 07       	cpc	r23, r27
    23a2:	49 f4       	brne	.+18     	; 0x23b6 <send_data_with_post+0xb4>
    23a4:	41 e0       	ldi	r20, 0x01	; 1
    23a6:	62 e9       	ldi	r22, 0x92	; 146
    23a8:	78 e0       	ldi	r23, 0x08	; 8
    23aa:	81 e0       	ldi	r24, 0x01	; 1
    23ac:	0e 94 12 2f 	call	0x5e24	; 0x5e24 <debug_string>
    23b0:	00 e0       	ldi	r16, 0x00	; 0
    23b2:	10 e0       	ldi	r17, 0x00	; 0
    23b4:	50 c2       	rjmp	.+1184   	; 0x2856 <send_data_with_post+0x554>
    23b6:	c1 52       	subi	r28, 0x21	; 33
    23b8:	df 4f       	sbci	r29, 0xFF	; 255
    23ba:	08 83       	st	Y, r16
    23bc:	cf 5d       	subi	r28, 0xDF	; 223
    23be:	d0 40       	sbci	r29, 0x00	; 0
    23c0:	c0 52       	subi	r28, 0x20	; 32
    23c2:	df 4f       	sbci	r29, 0xFF	; 255
    23c4:	18 83       	st	Y, r17
    23c6:	c0 5e       	subi	r28, 0xE0	; 224
    23c8:	d0 40       	sbci	r29, 0x00	; 0
    23ca:	60 e4       	ldi	r22, 0x40	; 64
    23cc:	c8 01       	movw	r24, r16
    23ce:	44 de       	rcall	.-888    	; 0x2058 <cfg_get_service_url_send>
    23d0:	60 e4       	ldi	r22, 0x40	; 64
    23d2:	70 e0       	ldi	r23, 0x00	; 0
    23d4:	c8 01       	movw	r24, r16
    23d6:	0e 94 33 49 	call	0x9266	; 0x9266 <strnlen>
    23da:	6c 01       	movw	r12, r24
    23dc:	f8 01       	movw	r30, r16
    23de:	e8 0f       	add	r30, r24
    23e0:	f9 1f       	adc	r31, r25
    23e2:	df 01       	movw	r26, r30
    23e4:	11 97       	sbiw	r26, 0x01	; 1
    23e6:	1c 92       	st	X, r1
    23e8:	81 e4       	ldi	r24, 0x41	; 65
    23ea:	80 83       	st	Z, r24
    23ec:	87 e5       	ldi	r24, 0x57	; 87
    23ee:	81 83       	std	Z+1, r24	; 0x01
    23f0:	83 e5       	ldi	r24, 0x53	; 83
    23f2:	82 83       	std	Z+2, r24	; 0x02
    23f4:	89 e4       	ldi	r24, 0x49	; 73
    23f6:	83 83       	std	Z+3, r24	; 0x03
    23f8:	84 e4       	ldi	r24, 0x44	; 68
    23fa:	84 83       	std	Z+4, r24	; 0x04
    23fc:	8d e3       	ldi	r24, 0x3D	; 61
    23fe:	85 83       	std	Z+5, r24	; 0x05
    2400:	76 01       	movw	r14, r12
    2402:	f6 e0       	ldi	r31, 0x06	; 6
    2404:	ef 0e       	add	r14, r31
    2406:	f1 1c       	adc	r15, r1
    2408:	28 01       	movw	r4, r16
    240a:	4e 0c       	add	r4, r14
    240c:	5f 1c       	adc	r5, r15
    240e:	60 e4       	ldi	r22, 0x40	; 64
    2410:	c2 01       	movw	r24, r4
    2412:	1a de       	rcall	.-972    	; 0x2048 <cfg_get_aws_id>
    2414:	60 e4       	ldi	r22, 0x40	; 64
    2416:	70 e0       	ldi	r23, 0x00	; 0
    2418:	c2 01       	movw	r24, r4
    241a:	0e 94 33 49 	call	0x9266	; 0x9266 <strnlen>
    241e:	e8 0e       	add	r14, r24
    2420:	f9 1e       	adc	r15, r25
    2422:	0e 94 dc 34 	call	0x69b8	; 0x69b8 <rtc_get_time>
    2426:	28 01       	movw	r4, r16
    2428:	4e 0c       	add	r4, r14
    242a:	5f 1c       	adc	r5, r15
    242c:	9f 93       	push	r25
    242e:	8f 93       	push	r24
    2430:	7f 93       	push	r23
    2432:	6f 93       	push	r22
    2434:	8e eb       	ldi	r24, 0xBE	; 190
    2436:	98 e0       	ldi	r25, 0x08	; 8
    2438:	9f 93       	push	r25
    243a:	8f 93       	push	r24
    243c:	80 e0       	ldi	r24, 0x00	; 0
    243e:	94 e0       	ldi	r25, 0x04	; 4
    2440:	8e 19       	sub	r24, r14
    2442:	9f 09       	sbc	r25, r15
    2444:	9f 93       	push	r25
    2446:	8f 93       	push	r24
    2448:	5f 92       	push	r5
    244a:	4f 92       	push	r4
    244c:	0e 94 5d 49 	call	0x92ba	; 0x92ba <snprintf_P>
    2450:	60 e4       	ldi	r22, 0x40	; 64
    2452:	70 e0       	ldi	r23, 0x00	; 0
    2454:	c2 01       	movw	r24, r4
    2456:	0e 94 33 49 	call	0x9266	; 0x9266 <strnlen>
    245a:	e8 0e       	add	r14, r24
    245c:	f9 1e       	adc	r15, r25
    245e:	20 90 cd 22 	lds	r2, 0x22CD
    2462:	30 90 ce 22 	lds	r3, 0x22CE
    2466:	40 90 cf 22 	lds	r4, 0x22CF
    246a:	50 90 d0 22 	lds	r5, 0x22D0
    246e:	f3 01       	movw	r30, r6
    2470:	f0 85       	ldd	r31, Z+8	; 0x08
    2472:	c4 52       	subi	r28, 0x24	; 36
    2474:	df 4f       	sbci	r29, 0xFF	; 255
    2476:	f8 83       	st	Y, r31
    2478:	cc 5d       	subi	r28, 0xDC	; 220
    247a:	d0 40       	sbci	r29, 0x00	; 0
    247c:	4e 01       	movw	r8, r28
    247e:	22 ed       	ldi	r18, 0xD2	; 210
    2480:	82 0e       	add	r8, r18
    2482:	91 1c       	adc	r9, r1
    2484:	f3 01       	movw	r30, r6
    2486:	80 81       	ld	r24, Z
    2488:	91 81       	ldd	r25, Z+1	; 0x01
    248a:	a2 81       	ldd	r26, Z+2	; 0x02
    248c:	b3 81       	ldd	r27, Z+3	; 0x03
    248e:	f4 01       	movw	r30, r8
    2490:	80 83       	st	Z, r24
    2492:	91 83       	std	Z+1, r25	; 0x01
    2494:	a2 83       	std	Z+2, r26	; 0x02
    2496:	b3 83       	std	Z+3, r27	; 0x03
    2498:	2d b7       	in	r18, 0x3d	; 61
    249a:	3e b7       	in	r19, 0x3e	; 62
    249c:	26 5f       	subi	r18, 0xF6	; 246
    249e:	3f 4f       	sbci	r19, 0xFF	; 255
    24a0:	2d bf       	out	0x3d, r18	; 61
    24a2:	3e bf       	out	0x3e, r19	; 62
    24a4:	c5 52       	subi	r28, 0x25	; 37
    24a6:	df 4f       	sbci	r29, 0xFF	; 255
    24a8:	18 82       	st	Y, r1
    24aa:	cb 5d       	subi	r28, 0xDB	; 219
    24ac:	d0 40       	sbci	r29, 0x00	; 0
    24ae:	9e 01       	movw	r18, r28
    24b0:	2f 5f       	subi	r18, 0xFF	; 255
    24b2:	3f 4f       	sbci	r19, 0xFF	; 255
    24b4:	c7 52       	subi	r28, 0x27	; 39
    24b6:	df 4f       	sbci	r29, 0xFF	; 255
    24b8:	28 83       	st	Y, r18
    24ba:	39 83       	std	Y+1, r19	; 0x01
    24bc:	c9 5d       	subi	r28, 0xD9	; 217
    24be:	d0 40       	sbci	r29, 0x00	; 0
    24c0:	ce 52       	subi	r28, 0x2E	; 46
    24c2:	df 4f       	sbci	r29, 0xFF	; 255
    24c4:	48 81       	ld	r20, Y
    24c6:	59 81       	ldd	r21, Y+1	; 0x01
    24c8:	6a 81       	ldd	r22, Y+2	; 0x02
    24ca:	7b 81       	ldd	r23, Y+3	; 0x03
    24cc:	c2 5d       	subi	r28, 0xD2	; 210
    24ce:	d0 40       	sbci	r29, 0x00	; 0
    24d0:	80 91 b7 22 	lds	r24, 0x22B7
    24d4:	90 91 b8 22 	lds	r25, 0x22B8
    24d8:	a0 91 b9 22 	lds	r26, 0x22B9
    24dc:	b0 91 ba 22 	lds	r27, 0x22BA
    24e0:	48 17       	cp	r20, r24
    24e2:	59 07       	cpc	r21, r25
    24e4:	6a 07       	cpc	r22, r26
    24e6:	7b 07       	cpc	r23, r27
    24e8:	39 f4       	brne	.+14     	; 0x24f8 <send_data_with_post+0x1f6>
    24ea:	41 e0       	ldi	r20, 0x01	; 1
    24ec:	67 ec       	ldi	r22, 0xC7	; 199
    24ee:	78 e0       	ldi	r23, 0x08	; 8
    24f0:	81 e0       	ldi	r24, 0x01	; 1
    24f2:	0e 94 12 2f 	call	0x5e24	; 0x5e24 <debug_string>
    24f6:	ef c0       	rjmp	.+478    	; 0x26d6 <send_data_with_post+0x3d4>
    24f8:	61 e0       	ldi	r22, 0x01	; 1
    24fa:	70 e0       	ldi	r23, 0x00	; 0
    24fc:	c4 01       	movw	r24, r8
    24fe:	8e de       	rcall	.-740    	; 0x221c <dl_iterator_moveback>
    2500:	80 91 10 20 	lds	r24, 0x2010
    2504:	82 30       	cpi	r24, 0x02	; 2
    2506:	40 f0       	brcs	.+16     	; 0x2518 <send_data_with_post+0x216>
    2508:	41 e0       	ldi	r20, 0x01	; 1
    250a:	62 ee       	ldi	r22, 0xE2	; 226
    250c:	78 e0       	ldi	r23, 0x08	; 8
    250e:	0e 94 12 2f 	call	0x5e24	; 0x5e24 <debug_string>
    2512:	c4 01       	movw	r24, r8
    2514:	0e 94 af 21 	call	0x435e	; 0x435e <AT24CXX_iterator_report>
    2518:	be 01       	movw	r22, r28
    251a:	6f 53       	subi	r22, 0x3F	; 63
    251c:	7f 4f       	sbci	r23, 0xFF	; 255
    251e:	c4 01       	movw	r24, r8
    2520:	48 de       	rcall	.-880    	; 0x21b2 <dl_get_record>
    2522:	80 91 10 20 	lds	r24, 0x2010
    2526:	88 23       	and	r24, r24
    2528:	b1 f1       	breq	.+108    	; 0x2596 <send_data_with_post+0x294>
    252a:	cc 53       	subi	r28, 0x3C	; 60
    252c:	df 4f       	sbci	r29, 0xFF	; 255
    252e:	88 81       	ld	r24, Y
    2530:	c4 5c       	subi	r28, 0xC4	; 196
    2532:	d0 40       	sbci	r29, 0x00	; 0
    2534:	8f 93       	push	r24
    2536:	cd 53       	subi	r28, 0x3D	; 61
    2538:	df 4f       	sbci	r29, 0xFF	; 255
    253a:	88 81       	ld	r24, Y
    253c:	c3 5c       	subi	r28, 0xC3	; 195
    253e:	d0 40       	sbci	r29, 0x00	; 0
    2540:	8f 93       	push	r24
    2542:	ce 53       	subi	r28, 0x3E	; 62
    2544:	df 4f       	sbci	r29, 0xFF	; 255
    2546:	88 81       	ld	r24, Y
    2548:	c2 5c       	subi	r28, 0xC2	; 194
    254a:	d0 40       	sbci	r29, 0x00	; 0
    254c:	8f 93       	push	r24
    254e:	cf 53       	subi	r28, 0x3F	; 63
    2550:	df 4f       	sbci	r29, 0xFF	; 255
    2552:	88 81       	ld	r24, Y
    2554:	c1 5c       	subi	r28, 0xC1	; 193
    2556:	d0 40       	sbci	r29, 0x00	; 0
    2558:	8f 93       	push	r24
    255a:	8b ee       	ldi	r24, 0xEB	; 235
    255c:	98 e0       	ldi	r25, 0x08	; 8
    255e:	9f 93       	push	r25
    2560:	8f 93       	push	r24
    2562:	c6 52       	subi	r28, 0x26	; 38
    2564:	df 4f       	sbci	r29, 0xFF	; 255
    2566:	f8 81       	ld	r31, Y
    2568:	ca 5d       	subi	r28, 0xDA	; 218
    256a:	d0 40       	sbci	r29, 0x00	; 0
    256c:	ff 93       	push	r31
    256e:	c7 52       	subi	r28, 0x27	; 39
    2570:	df 4f       	sbci	r29, 0xFF	; 255
    2572:	28 81       	ld	r18, Y
    2574:	c9 5d       	subi	r28, 0xD9	; 217
    2576:	d0 40       	sbci	r29, 0x00	; 0
    2578:	2f 93       	push	r18
    257a:	0e 94 93 49 	call	0x9326	; 0x9326 <sprintf_P>
    257e:	40 e0       	ldi	r20, 0x00	; 0
    2580:	be 01       	movw	r22, r28
    2582:	6f 5f       	subi	r22, 0xFF	; 255
    2584:	7f 4f       	sbci	r23, 0xFF	; 255
    2586:	81 e0       	ldi	r24, 0x01	; 1
    2588:	0e 94 12 2f 	call	0x5e24	; 0x5e24 <debug_string>
    258c:	8d b7       	in	r24, 0x3d	; 61
    258e:	9e b7       	in	r25, 0x3e	; 62
    2590:	08 96       	adiw	r24, 0x08	; 8
    2592:	8d bf       	out	0x3d, r24	; 61
    2594:	9e bf       	out	0x3e, r25	; 62
    2596:	cf 53       	subi	r28, 0x3F	; 63
    2598:	df 4f       	sbci	r29, 0xFF	; 255
    259a:	88 81       	ld	r24, Y
    259c:	99 81       	ldd	r25, Y+1	; 0x01
    259e:	aa 81       	ldd	r26, Y+2	; 0x02
    25a0:	bb 81       	ldd	r27, Y+3	; 0x03
    25a2:	c1 5c       	subi	r28, 0xC1	; 193
    25a4:	d0 40       	sbci	r29, 0x00	; 0
    25a6:	82 15       	cp	r24, r2
    25a8:	93 05       	cpc	r25, r3
    25aa:	a4 05       	cpc	r26, r4
    25ac:	b5 05       	cpc	r27, r5
    25ae:	38 f4       	brcc	.+14     	; 0x25be <send_data_with_post+0x2bc>
    25b0:	41 e0       	ldi	r20, 0x01	; 1
    25b2:	63 e0       	ldi	r22, 0x03	; 3
    25b4:	79 e0       	ldi	r23, 0x09	; 9
    25b6:	81 e0       	ldi	r24, 0x01	; 1
    25b8:	0e 94 12 2f 	call	0x5e24	; 0x5e24 <debug_string>
    25bc:	8c c0       	rjmp	.+280    	; 0x26d6 <send_data_with_post+0x3d4>
    25be:	c4 52       	subi	r28, 0x24	; 36
    25c0:	df 4f       	sbci	r29, 0xFF	; 255
    25c2:	28 81       	ld	r18, Y
    25c4:	cc 5d       	subi	r28, 0xDC	; 220
    25c6:	d0 40       	sbci	r29, 0x00	; 0
    25c8:	22 23       	and	r18, r18
    25ca:	79 f0       	breq	.+30     	; 0x25ea <send_data_with_post+0x2e8>
    25cc:	cf 52       	subi	r28, 0x2F	; 47
    25ce:	df 4f       	sbci	r29, 0xFF	; 255
    25d0:	28 81       	ld	r18, Y
    25d2:	c1 5d       	subi	r28, 0xD1	; 209
    25d4:	d0 40       	sbci	r29, 0x00	; 0
    25d6:	22 23       	and	r18, r18
    25d8:	41 f0       	breq	.+16     	; 0x25ea <send_data_with_post+0x2e8>
    25da:	41 e0       	ldi	r20, 0x01	; 1
    25dc:	6b e1       	ldi	r22, 0x1B	; 27
    25de:	79 e0       	ldi	r23, 0x09	; 9
    25e0:	80 91 10 20 	lds	r24, 0x2010
    25e4:	0e 94 12 2f 	call	0x5e24	; 0x5e24 <debug_string>
    25e8:	7f c0       	rjmp	.+254    	; 0x26e8 <send_data_with_post+0x3e6>
    25ea:	58 01       	movw	r10, r16
    25ec:	ae 0c       	add	r10, r14
    25ee:	bf 1c       	adc	r11, r15
    25f0:	c4 53       	subi	r28, 0x34	; 52
    25f2:	df 4f       	sbci	r29, 0xFF	; 255
    25f4:	28 81       	ld	r18, Y
    25f6:	cc 5c       	subi	r28, 0xCC	; 204
    25f8:	d0 40       	sbci	r29, 0x00	; 0
    25fa:	2f 93       	push	r18
    25fc:	c5 53       	subi	r28, 0x35	; 53
    25fe:	df 4f       	sbci	r29, 0xFF	; 255
    2600:	28 81       	ld	r18, Y
    2602:	cb 5c       	subi	r28, 0xCB	; 203
    2604:	d0 40       	sbci	r29, 0x00	; 0
    2606:	2f 93       	push	r18
    2608:	c2 53       	subi	r28, 0x32	; 50
    260a:	df 4f       	sbci	r29, 0xFF	; 255
    260c:	28 81       	ld	r18, Y
    260e:	ce 5c       	subi	r28, 0xCE	; 206
    2610:	d0 40       	sbci	r29, 0x00	; 0
    2612:	2f 93       	push	r18
    2614:	c3 53       	subi	r28, 0x33	; 51
    2616:	df 4f       	sbci	r29, 0xFF	; 255
    2618:	28 81       	ld	r18, Y
    261a:	cd 5c       	subi	r28, 0xCD	; 205
    261c:	d0 40       	sbci	r29, 0x00	; 0
    261e:	2f 93       	push	r18
    2620:	c0 53       	subi	r28, 0x30	; 48
    2622:	df 4f       	sbci	r29, 0xFF	; 255
    2624:	28 81       	ld	r18, Y
    2626:	c0 5d       	subi	r28, 0xD0	; 208
    2628:	d0 40       	sbci	r29, 0x00	; 0
    262a:	2f 93       	push	r18
    262c:	c1 53       	subi	r28, 0x31	; 49
    262e:	df 4f       	sbci	r29, 0xFF	; 255
    2630:	28 81       	ld	r18, Y
    2632:	cf 5c       	subi	r28, 0xCF	; 207
    2634:	d0 40       	sbci	r29, 0x00	; 0
    2636:	2f 93       	push	r18
    2638:	bf 93       	push	r27
    263a:	af 93       	push	r26
    263c:	9f 93       	push	r25
    263e:	8f 93       	push	r24
    2640:	85 e3       	ldi	r24, 0x35	; 53
    2642:	99 e0       	ldi	r25, 0x09	; 9
    2644:	9f 93       	push	r25
    2646:	8f 93       	push	r24
    2648:	80 e0       	ldi	r24, 0x00	; 0
    264a:	94 e0       	ldi	r25, 0x04	; 4
    264c:	8e 19       	sub	r24, r14
    264e:	9f 09       	sbc	r25, r15
    2650:	9f 93       	push	r25
    2652:	8f 93       	push	r24
    2654:	bf 92       	push	r11
    2656:	af 92       	push	r10
    2658:	0e 94 5d 49 	call	0x92ba	; 0x92ba <snprintf_P>
    265c:	60 e4       	ldi	r22, 0x40	; 64
    265e:	70 e0       	ldi	r23, 0x00	; 0
    2660:	c5 01       	movw	r24, r10
    2662:	0e 94 33 49 	call	0x9266	; 0x9266 <strnlen>
    2666:	e8 0e       	add	r14, r24
    2668:	f9 1e       	adc	r15, r25
    266a:	2d b7       	in	r18, 0x3d	; 61
    266c:	3e b7       	in	r19, 0x3e	; 62
    266e:	20 5f       	subi	r18, 0xF0	; 240
    2670:	3f 4f       	sbci	r19, 0xFF	; 255
    2672:	2d bf       	out	0x3d, r18	; 61
    2674:	3e bf       	out	0x3e, r19	; 62
    2676:	cf 52       	subi	r28, 0x2F	; 47
    2678:	df 4f       	sbci	r29, 0xFF	; 255
    267a:	88 81       	ld	r24, Y
    267c:	c1 5d       	subi	r28, 0xD1	; 209
    267e:	d0 40       	sbci	r29, 0x00	; 0
    2680:	81 11       	cpse	r24, r1
    2682:	1d c0       	rjmp	.+58     	; 0x26be <send_data_with_post+0x3bc>
    2684:	e1 e8       	ldi	r30, 0x81	; 129
    2686:	f0 e0       	ldi	r31, 0x00	; 0
    2688:	ec 0f       	add	r30, r28
    268a:	fd 1f       	adc	r31, r29
    268c:	c5 52       	subi	r28, 0x25	; 37
    268e:	df 4f       	sbci	r29, 0xFF	; 255
    2690:	28 81       	ld	r18, Y
    2692:	cb 5d       	subi	r28, 0xDB	; 219
    2694:	d0 40       	sbci	r29, 0x00	; 0
    2696:	34 e0       	ldi	r19, 0x04	; 4
    2698:	23 9f       	mul	r18, r19
    269a:	e0 0d       	add	r30, r0
    269c:	f1 1d       	adc	r31, r1
    269e:	11 24       	eor	r1, r1
    26a0:	ce 52       	subi	r28, 0x2E	; 46
    26a2:	df 4f       	sbci	r29, 0xFF	; 255
    26a4:	88 81       	ld	r24, Y
    26a6:	99 81       	ldd	r25, Y+1	; 0x01
    26a8:	aa 81       	ldd	r26, Y+2	; 0x02
    26aa:	bb 81       	ldd	r27, Y+3	; 0x03
    26ac:	c2 5d       	subi	r28, 0xD2	; 210
    26ae:	d0 40       	sbci	r29, 0x00	; 0
    26b0:	40 96       	adiw	r24, 0x10	; 16
    26b2:	a1 1d       	adc	r26, r1
    26b4:	b1 1d       	adc	r27, r1
    26b6:	80 83       	st	Z, r24
    26b8:	91 83       	std	Z+1, r25	; 0x01
    26ba:	a2 83       	std	Z+2, r26	; 0x02
    26bc:	b3 83       	std	Z+3, r27	; 0x03
    26be:	c5 52       	subi	r28, 0x25	; 37
    26c0:	df 4f       	sbci	r29, 0xFF	; 255
    26c2:	38 81       	ld	r19, Y
    26c4:	cb 5d       	subi	r28, 0xDB	; 219
    26c6:	d0 40       	sbci	r29, 0x00	; 0
    26c8:	3f 5f       	subi	r19, 0xFF	; 255
    26ca:	c5 52       	subi	r28, 0x25	; 37
    26cc:	df 4f       	sbci	r29, 0xFF	; 255
    26ce:	38 83       	st	Y, r19
    26d0:	cb 5d       	subi	r28, 0xDB	; 219
    26d2:	d0 40       	sbci	r29, 0x00	; 0
    26d4:	09 c0       	rjmp	.+18     	; 0x26e8 <send_data_with_post+0x3e6>
    26d6:	c5 52       	subi	r28, 0x25	; 37
    26d8:	df 4f       	sbci	r29, 0xFF	; 255
    26da:	28 81       	ld	r18, Y
    26dc:	cb 5d       	subi	r28, 0xDB	; 219
    26de:	d0 40       	sbci	r29, 0x00	; 0
    26e0:	22 23       	and	r18, r18
    26e2:	09 f4       	brne	.+2      	; 0x26e6 <send_data_with_post+0x3e4>
    26e4:	b6 c0       	rjmp	.+364    	; 0x2852 <send_data_with_post+0x550>
    26e6:	08 c0       	rjmp	.+16     	; 0x26f8 <send_data_with_post+0x3f6>
    26e8:	c5 52       	subi	r28, 0x25	; 37
    26ea:	df 4f       	sbci	r29, 0xFF	; 255
    26ec:	38 81       	ld	r19, Y
    26ee:	cb 5d       	subi	r28, 0xDB	; 219
    26f0:	d0 40       	sbci	r29, 0x00	; 0
    26f2:	30 31       	cpi	r19, 0x10	; 16
    26f4:	08 f4       	brcc	.+2      	; 0x26f8 <send_data_with_post+0x3f6>
    26f6:	e4 ce       	rjmp	.-568    	; 0x24c0 <send_data_with_post+0x1be>
    26f8:	ce 52       	subi	r28, 0x2E	; 46
    26fa:	df 4f       	sbci	r29, 0xFF	; 255
    26fc:	88 81       	ld	r24, Y
    26fe:	99 81       	ldd	r25, Y+1	; 0x01
    2700:	aa 81       	ldd	r26, Y+2	; 0x02
    2702:	bb 81       	ldd	r27, Y+3	; 0x03
    2704:	c2 5d       	subi	r28, 0xD2	; 210
    2706:	d0 40       	sbci	r29, 0x00	; 0
    2708:	f3 01       	movw	r30, r6
    270a:	80 83       	st	Z, r24
    270c:	91 83       	std	Z+1, r25	; 0x01
    270e:	a2 83       	std	Z+2, r26	; 0x02
    2710:	b3 83       	std	Z+3, r27	; 0x03
    2712:	97 01       	movw	r18, r14
    2714:	2c 19       	sub	r18, r12
    2716:	3d 09       	sbc	r19, r13
    2718:	a8 01       	movw	r20, r16
    271a:	4c 0d       	add	r20, r12
    271c:	5d 1d       	adc	r21, r13
    271e:	00 e0       	ldi	r16, 0x00	; 0
    2720:	60 e0       	ldi	r22, 0x00	; 0
    2722:	c1 52       	subi	r28, 0x21	; 33
    2724:	df 4f       	sbci	r29, 0xFF	; 255
    2726:	88 81       	ld	r24, Y
    2728:	cf 5d       	subi	r28, 0xDF	; 223
    272a:	d0 40       	sbci	r29, 0x00	; 0
    272c:	c0 52       	subi	r28, 0x20	; 32
    272e:	df 4f       	sbci	r29, 0xFF	; 255
    2730:	98 81       	ld	r25, Y
    2732:	c0 5e       	subi	r28, 0xE0	; 224
    2734:	d0 40       	sbci	r29, 0x00	; 0
    2736:	0e 94 34 2b 	call	0x5668	; 0x5668 <sim900_http_post>
    273a:	8c 01       	movw	r16, r24
    273c:	00 97       	sbiw	r24, 0x00	; 0
    273e:	09 f0       	breq	.+2      	; 0x2742 <send_data_with_post+0x440>
    2740:	8a c0       	rjmp	.+276    	; 0x2856 <send_data_with_post+0x554>
    2742:	80 e2       	ldi	r24, 0x20	; 32
    2744:	c8 52       	subi	r28, 0x28	; 40
    2746:	df 4f       	sbci	r29, 0xFF	; 255
    2748:	88 83       	st	Y, r24
    274a:	c8 5d       	subi	r28, 0xD8	; 216
    274c:	d0 40       	sbci	r29, 0x00	; 0
    274e:	be 01       	movw	r22, r28
    2750:	68 52       	subi	r22, 0x28	; 40
    2752:	7f 4f       	sbci	r23, 0xFF	; 255
    2754:	ce 01       	movw	r24, r28
    2756:	01 96       	adiw	r24, 0x01	; 1
    2758:	0e 94 f1 29 	call	0x53e2	; 0x53e2 <sim900_http_read>
    275c:	41 e0       	ldi	r20, 0x01	; 1
    275e:	6e e4       	ldi	r22, 0x4E	; 78
    2760:	79 e0       	ldi	r23, 0x09	; 9
    2762:	81 e0       	ldi	r24, 0x01	; 1
    2764:	0e 94 12 2f 	call	0x5e24	; 0x5e24 <debug_string>
    2768:	18 a2       	std	Y+32, r1	; 0x20
    276a:	40 e0       	ldi	r20, 0x00	; 0
    276c:	be 01       	movw	r22, r28
    276e:	6f 5f       	subi	r22, 0xFF	; 255
    2770:	7f 4f       	sbci	r23, 0xFF	; 255
    2772:	81 e0       	ldi	r24, 0x01	; 1
    2774:	0e 94 12 2f 	call	0x5e24	; 0x5e24 <debug_string>
    2778:	41 e0       	ldi	r20, 0x01	; 1
    277a:	6f ec       	ldi	r22, 0xCF	; 207
    277c:	7e e1       	ldi	r23, 0x1E	; 30
    277e:	81 e0       	ldi	r24, 0x01	; 1
    2780:	0e 94 12 2f 	call	0x5e24	; 0x5e24 <debug_string>
    2784:	0e 94 1f 2c 	call	0x583e	; 0x583e <sim900_http_close>
    2788:	81 e0       	ldi	r24, 0x01	; 1
    278a:	cf 52       	subi	r28, 0x2F	; 47
    278c:	df 4f       	sbci	r29, 0xFF	; 255
    278e:	88 83       	st	Y, r24
    2790:	c1 5d       	subi	r28, 0xD1	; 209
    2792:	d0 40       	sbci	r29, 0x00	; 0
    2794:	6e 01       	movw	r12, r28
    2796:	f1 e8       	ldi	r31, 0x81	; 129
    2798:	cf 0e       	add	r12, r31
    279a:	d1 1c       	adc	r13, r1
    279c:	e1 2c       	mov	r14, r1
    279e:	f1 2c       	mov	r15, r1
    27a0:	56 01       	movw	r10, r12
    27a2:	51 ec       	ldi	r21, 0xC1	; 193
    27a4:	85 2e       	mov	r8, r21
    27a6:	91 2c       	mov	r9, r1
    27a8:	8c 0e       	add	r8, r28
    27aa:	9d 1e       	adc	r9, r29
    27ac:	20 e1       	ldi	r18, 0x10	; 16
    27ae:	82 0e       	add	r8, r18
    27b0:	91 1c       	adc	r9, r1
    27b2:	f6 01       	movw	r30, r12
    27b4:	81 91       	ld	r24, Z+
    27b6:	91 91       	ld	r25, Z+
    27b8:	a1 91       	ld	r26, Z+
    27ba:	b1 91       	ld	r27, Z+
    27bc:	6f 01       	movw	r12, r30
    27be:	89 2b       	or	r24, r25
    27c0:	8a 2b       	or	r24, r26
    27c2:	8b 2b       	or	r24, r27
    27c4:	99 f0       	breq	.+38     	; 0x27ec <send_data_with_post+0x4ea>
    27c6:	f7 01       	movw	r30, r14
    27c8:	ee 0f       	add	r30, r30
    27ca:	ff 1f       	adc	r31, r31
    27cc:	ee 0f       	add	r30, r30
    27ce:	ff 1f       	adc	r31, r31
    27d0:	ea 0d       	add	r30, r10
    27d2:	fb 1d       	adc	r31, r11
    27d4:	01 e0       	ldi	r16, 0x01	; 1
    27d6:	94 01       	movw	r18, r8
    27d8:	40 81       	ld	r20, Z
    27da:	61 81       	ldd	r22, Z+1	; 0x01
    27dc:	82 81       	ldd	r24, Z+2	; 0x02
    27de:	0e 94 67 21 	call	0x42ce	; 0x42ce <AT24CXX_WriteBlockA>
    27e2:	60 e2       	ldi	r22, 0x20	; 32
    27e4:	7e e4       	ldi	r23, 0x4E	; 78
    27e6:	80 e0       	ldi	r24, 0x00	; 0
    27e8:	90 e0       	ldi	r25, 0x00	; 0
    27ea:	85 dc       	rcall	.-1782   	; 0x20f6 <__portable_avr_delay_cycles>
    27ec:	ff ef       	ldi	r31, 0xFF	; 255
    27ee:	ef 1a       	sub	r14, r31
    27f0:	ff 0a       	sbc	r15, r31
    27f2:	20 e1       	ldi	r18, 0x10	; 16
    27f4:	e2 16       	cp	r14, r18
    27f6:	f1 04       	cpc	r15, r1
    27f8:	e1 f6       	brne	.-72     	; 0x27b2 <send_data_with_post+0x4b0>
    27fa:	cf 53       	subi	r28, 0x3F	; 63
    27fc:	df 4f       	sbci	r29, 0xFF	; 255
    27fe:	88 81       	ld	r24, Y
    2800:	99 81       	ldd	r25, Y+1	; 0x01
    2802:	aa 81       	ldd	r26, Y+2	; 0x02
    2804:	bb 81       	ldd	r27, Y+3	; 0x03
    2806:	c1 5c       	subi	r28, 0xC1	; 193
    2808:	d0 40       	sbci	r29, 0x00	; 0
    280a:	82 15       	cp	r24, r2
    280c:	93 05       	cpc	r25, r3
    280e:	a4 05       	cpc	r26, r4
    2810:	b5 05       	cpc	r27, r5
    2812:	f8 f0       	brcs	.+62     	; 0x2852 <send_data_with_post+0x550>
    2814:	f3 01       	movw	r30, r6
    2816:	40 81       	ld	r20, Z
    2818:	51 81       	ldd	r21, Z+1	; 0x01
    281a:	62 81       	ldd	r22, Z+2	; 0x02
    281c:	73 81       	ldd	r23, Z+3	; 0x03
    281e:	80 91 b7 22 	lds	r24, 0x22B7
    2822:	90 91 b8 22 	lds	r25, 0x22B8
    2826:	a0 91 b9 22 	lds	r26, 0x22B9
    282a:	b0 91 ba 22 	lds	r27, 0x22BA
    282e:	48 17       	cp	r20, r24
    2830:	59 07       	cpc	r21, r25
    2832:	6a 07       	cpc	r22, r26
    2834:	7b 07       	cpc	r23, r27
    2836:	69 f0       	breq	.+26     	; 0x2852 <send_data_with_post+0x550>
    2838:	41 e0       	ldi	r20, 0x01	; 1
    283a:	60 e6       	ldi	r22, 0x60	; 96
    283c:	79 e0       	ldi	r23, 0x09	; 9
    283e:	80 91 10 20 	lds	r24, 0x2010
    2842:	0e 94 12 2f 	call	0x5e24	; 0x5e24 <debug_string>
    2846:	81 e0       	ldi	r24, 0x01	; 1
    2848:	80 93 10 20 	sts	0x2010, r24
    284c:	03 e6       	ldi	r16, 0x63	; 99
    284e:	10 e0       	ldi	r17, 0x00	; 0
    2850:	0d c0       	rjmp	.+26     	; 0x286c <send_data_with_post+0x56a>
    2852:	00 e0       	ldi	r16, 0x00	; 0
    2854:	10 e0       	ldi	r17, 0x00	; 0
    2856:	0e 94 1f 2c 	call	0x583e	; 0x583e <sim900_http_close>
    285a:	80 91 18 20 	lds	r24, 0x2018
    285e:	80 93 10 20 	sts	0x2010, r24
    2862:	f3 01       	movw	r30, r6
    2864:	10 82       	st	Z, r1
    2866:	11 82       	std	Z+1, r1	; 0x01
    2868:	12 82       	std	Z+2, r1	; 0x02
    286a:	13 82       	std	Z+3, r1	; 0x03
    286c:	ce 01       	movw	r24, r28
    286e:	8a 52       	subi	r24, 0x2A	; 42
    2870:	9f 4f       	sbci	r25, 0xFF	; 255
    2872:	0e 94 3e 2f 	call	0x5e7c	; 0x5e7c <debug_function_out_name_print>
    2876:	c8 01       	movw	r24, r16
    2878:	c3 52       	subi	r28, 0x23	; 35
    287a:	df 4f       	sbci	r29, 0xFF	; 255
    287c:	28 81       	ld	r18, Y
    287e:	39 81       	ldd	r19, Y+1	; 0x01
    2880:	cd 5d       	subi	r28, 0xDD	; 221
    2882:	d0 40       	sbci	r29, 0x00	; 0
    2884:	2d bf       	out	0x3d, r18	; 61
    2886:	3e bf       	out	0x3e, r19	; 62
    2888:	c0 52       	subi	r28, 0x20	; 32
    288a:	df 4f       	sbci	r29, 0xFF	; 255
    288c:	cd bf       	out	0x3d, r28	; 61
    288e:	de bf       	out	0x3e, r29	; 62
    2890:	df 91       	pop	r29
    2892:	cf 91       	pop	r28
    2894:	1f 91       	pop	r17
    2896:	0f 91       	pop	r16
    2898:	ff 90       	pop	r15
    289a:	ef 90       	pop	r14
    289c:	df 90       	pop	r13
    289e:	cf 90       	pop	r12
    28a0:	bf 90       	pop	r11
    28a2:	af 90       	pop	r10
    28a4:	9f 90       	pop	r9
    28a6:	8f 90       	pop	r8
    28a8:	7f 90       	pop	r7
    28aa:	6f 90       	pop	r6
    28ac:	5f 90       	pop	r5
    28ae:	4f 90       	pop	r4
    28b0:	3f 90       	pop	r3
    28b2:	2f 90       	pop	r2
    28b4:	08 95       	ret

000028b6 <dl_task_cmd_check_prepare>:
    28b6:	40 91 bb 22 	lds	r20, 0x22BB
    28ba:	50 91 bc 22 	lds	r21, 0x22BC
    28be:	60 91 bd 22 	lds	r22, 0x22BD
    28c2:	70 91 be 22 	lds	r23, 0x22BE
    28c6:	80 91 b7 22 	lds	r24, 0x22B7
    28ca:	90 91 b8 22 	lds	r25, 0x22B8
    28ce:	a0 91 b9 22 	lds	r26, 0x22B9
    28d2:	b0 91 ba 22 	lds	r27, 0x22BA
    28d6:	48 17       	cp	r20, r24
    28d8:	59 07       	cpc	r21, r25
    28da:	6a 07       	cpc	r22, r26
    28dc:	7b 07       	cpc	r23, r27
    28de:	49 f4       	brne	.+18     	; 0x28f2 <dl_task_cmd_check_prepare+0x3c>
    28e0:	41 e0       	ldi	r20, 0x01	; 1
    28e2:	6b ed       	ldi	r22, 0xDB	; 219
    28e4:	74 e0       	ldi	r23, 0x04	; 4
    28e6:	81 e0       	ldi	r24, 0x01	; 1
    28e8:	0e 94 12 2f 	call	0x5e24	; 0x5e24 <debug_string>
    28ec:	20 e0       	ldi	r18, 0x00	; 0
    28ee:	30 e0       	ldi	r19, 0x00	; 0
    28f0:	1e c0       	rjmp	.+60     	; 0x292e <dl_task_cmd_check_prepare+0x78>
    28f2:	80 91 bf 22 	lds	r24, 0x22BF
    28f6:	81 11       	cpse	r24, r1
    28f8:	09 c0       	rjmp	.+18     	; 0x290c <dl_task_cmd_check_prepare+0x56>
    28fa:	41 e0       	ldi	r20, 0x01	; 1
    28fc:	61 e5       	ldi	r22, 0x51	; 81
    28fe:	74 e0       	ldi	r23, 0x04	; 4
    2900:	81 e0       	ldi	r24, 0x01	; 1
    2902:	0e 94 12 2f 	call	0x5e24	; 0x5e24 <debug_string>
    2906:	2f ef       	ldi	r18, 0xFF	; 255
    2908:	3f ef       	ldi	r19, 0xFF	; 255
    290a:	11 c0       	rjmp	.+34     	; 0x292e <dl_task_cmd_check_prepare+0x78>
    290c:	0e 94 32 21 	call	0x4264	; 0x4264 <AT24CXX_Init>
    2910:	89 2b       	or	r24, r25
    2912:	49 f0       	breq	.+18     	; 0x2926 <dl_task_cmd_check_prepare+0x70>
    2914:	41 e0       	ldi	r20, 0x01	; 1
    2916:	69 e9       	ldi	r22, 0x99	; 153
    2918:	74 e0       	ldi	r23, 0x04	; 4
    291a:	81 e0       	ldi	r24, 0x01	; 1
    291c:	0e 94 12 2f 	call	0x5e24	; 0x5e24 <debug_string>
    2920:	2f ef       	ldi	r18, 0xFF	; 255
    2922:	3f ef       	ldi	r19, 0xFF	; 255
    2924:	04 c0       	rjmp	.+8      	; 0x292e <dl_task_cmd_check_prepare+0x78>
    2926:	0e 94 bb 29 	call	0x5376	; 0x5376 <sim900_GPRS_simple_open>
    292a:	28 2f       	mov	r18, r24
    292c:	30 e0       	ldi	r19, 0x00	; 0
    292e:	c9 01       	movw	r24, r18
    2930:	08 95       	ret

00002932 <datalogger_tick>:
    2932:	8f 92       	push	r8
    2934:	9f 92       	push	r9
    2936:	af 92       	push	r10
    2938:	bf 92       	push	r11
    293a:	cf 92       	push	r12
    293c:	df 92       	push	r13
    293e:	ef 92       	push	r14
    2940:	ff 92       	push	r15
    2942:	cf 93       	push	r28
    2944:	df 93       	push	r29
    2946:	6b 01       	movw	r12, r22
    2948:	7c 01       	movw	r14, r24
    294a:	60 91 b3 22 	lds	r22, 0x22B3
    294e:	70 91 b4 22 	lds	r23, 0x22B4
    2952:	80 91 b5 22 	lds	r24, 0x22B5
    2956:	90 91 b6 22 	lds	r25, 0x22B6
    295a:	6c 0d       	add	r22, r12
    295c:	7d 1d       	adc	r23, r13
    295e:	8e 1d       	adc	r24, r14
    2960:	9f 1d       	adc	r25, r15
    2962:	0e 94 f2 34 	call	0x69e4	; 0x69e4 <rtc_set_alarm>
    2966:	21 e0       	ldi	r18, 0x01	; 1
    2968:	20 93 67 06 	sts	0x0667, r18
    296c:	10 92 08 20 	sts	0x2008, r1
    2970:	a8 95       	wdr
    2972:	80 91 00 20 	lds	r24, 0x2000
    2976:	90 91 01 20 	lds	r25, 0x2001
    297a:	a0 91 02 20 	lds	r26, 0x2002
    297e:	b0 91 03 20 	lds	r27, 0x2003
    2982:	46 01       	movw	r8, r12
    2984:	57 01       	movw	r10, r14
    2986:	88 1a       	sub	r8, r24
    2988:	99 0a       	sbc	r9, r25
    298a:	aa 0a       	sbc	r10, r26
    298c:	bb 0a       	sbc	r11, r27
    298e:	c0 92 00 20 	sts	0x2000, r12
    2992:	d0 92 01 20 	sts	0x2001, r13
    2996:	e0 92 02 20 	sts	0x2002, r14
    299a:	f0 92 03 20 	sts	0x2003, r15
    299e:	80 91 9d 22 	lds	r24, 0x229D
    29a2:	90 91 9e 22 	lds	r25, 0x229E
    29a6:	a0 91 9f 22 	lds	r26, 0x229F
    29aa:	b0 91 a0 22 	lds	r27, 0x22A0
    29ae:	88 0d       	add	r24, r8
    29b0:	99 1d       	adc	r25, r9
    29b2:	aa 1d       	adc	r26, r10
    29b4:	bb 1d       	adc	r27, r11
    29b6:	80 93 9d 22 	sts	0x229D, r24
    29ba:	90 93 9e 22 	sts	0x229E, r25
    29be:	a0 93 9f 22 	sts	0x229F, r26
    29c2:	b0 93 a0 22 	sts	0x22A0, r27
    29c6:	80 91 a2 22 	lds	r24, 0x22A2
    29ca:	81 11       	cpse	r24, r1
    29cc:	1f c0       	rjmp	.+62     	; 0x2a0c <datalogger_tick+0xda>
    29ce:	40 91 9d 22 	lds	r20, 0x229D
    29d2:	50 91 9e 22 	lds	r21, 0x229E
    29d6:	60 91 9f 22 	lds	r22, 0x229F
    29da:	70 91 a0 22 	lds	r23, 0x22A0
    29de:	80 91 af 22 	lds	r24, 0x22AF
    29e2:	90 91 b0 22 	lds	r25, 0x22B0
    29e6:	a0 91 b1 22 	lds	r26, 0x22B1
    29ea:	b0 91 b2 22 	lds	r27, 0x22B2
    29ee:	48 17       	cp	r20, r24
    29f0:	59 07       	cpc	r21, r25
    29f2:	6a 07       	cpc	r22, r26
    29f4:	7b 07       	cpc	r23, r27
    29f6:	50 f0       	brcs	.+20     	; 0x2a0c <datalogger_tick+0xda>
    29f8:	10 92 9d 22 	sts	0x229D, r1
    29fc:	10 92 9e 22 	sts	0x229E, r1
    2a00:	10 92 9f 22 	sts	0x229F, r1
    2a04:	10 92 a0 22 	sts	0x22A0, r1
    2a08:	20 93 a2 22 	sts	0x22A2, r18
    2a0c:	80 91 99 22 	lds	r24, 0x2299
    2a10:	90 91 9a 22 	lds	r25, 0x229A
    2a14:	a0 91 9b 22 	lds	r26, 0x229B
    2a18:	b0 91 9c 22 	lds	r27, 0x229C
    2a1c:	88 0d       	add	r24, r8
    2a1e:	99 1d       	adc	r25, r9
    2a20:	aa 1d       	adc	r26, r10
    2a22:	bb 1d       	adc	r27, r11
    2a24:	80 93 99 22 	sts	0x2299, r24
    2a28:	90 93 9a 22 	sts	0x229A, r25
    2a2c:	a0 93 9b 22 	sts	0x229B, r26
    2a30:	b0 93 9c 22 	sts	0x229C, r27
    2a34:	80 91 a3 22 	lds	r24, 0x22A3
    2a38:	81 11       	cpse	r24, r1
    2a3a:	56 c0       	rjmp	.+172    	; 0x2ae8 <datalogger_tick+0x1b6>
    2a3c:	40 91 99 22 	lds	r20, 0x2299
    2a40:	50 91 9a 22 	lds	r21, 0x229A
    2a44:	60 91 9b 22 	lds	r22, 0x229B
    2a48:	70 91 9c 22 	lds	r23, 0x229C
    2a4c:	80 91 ab 22 	lds	r24, 0x22AB
    2a50:	90 91 ac 22 	lds	r25, 0x22AC
    2a54:	a0 91 ad 22 	lds	r26, 0x22AD
    2a58:	b0 91 ae 22 	lds	r27, 0x22AE
    2a5c:	48 17       	cp	r20, r24
    2a5e:	59 07       	cpc	r21, r25
    2a60:	6a 07       	cpc	r22, r26
    2a62:	7b 07       	cpc	r23, r27
    2a64:	08 f4       	brcc	.+2      	; 0x2a68 <datalogger_tick+0x136>
    2a66:	40 c0       	rjmp	.+128    	; 0x2ae8 <datalogger_tick+0x1b6>
    2a68:	10 92 99 22 	sts	0x2299, r1
    2a6c:	10 92 9a 22 	sts	0x229A, r1
    2a70:	10 92 9b 22 	sts	0x229B, r1
    2a74:	10 92 9c 22 	sts	0x229C, r1
    2a78:	80 91 88 21 	lds	r24, 0x2188
    2a7c:	91 e1       	ldi	r25, 0x11	; 17
    2a7e:	89 9f       	mul	r24, r25
    2a80:	e0 01       	movw	r28, r0
    2a82:	11 24       	eor	r1, r1
    2a84:	c7 57       	subi	r28, 0x77	; 119
    2a86:	de 4d       	sbci	r29, 0xDE	; 222
    2a88:	8f 5f       	subi	r24, 0xFF	; 255
    2a8a:	80 93 88 21 	sts	0x2188, r24
    2a8e:	80 91 88 21 	lds	r24, 0x2188
    2a92:	80 31       	cpi	r24, 0x10	; 16
    2a94:	49 f4       	brne	.+18     	; 0x2aa8 <datalogger_tick+0x176>
    2a96:	41 e0       	ldi	r20, 0x01	; 1
    2a98:	69 e1       	ldi	r22, 0x19	; 25
    2a9a:	73 e0       	ldi	r23, 0x03	; 3
    2a9c:	81 e0       	ldi	r24, 0x01	; 1
    2a9e:	0e 94 12 2f 	call	0x5e24	; 0x5e24 <debug_string>
    2aa2:	8f e0       	ldi	r24, 0x0F	; 15
    2aa4:	80 93 88 21 	sts	0x2188, r24
    2aa8:	8f ef       	ldi	r24, 0xFF	; 255
    2aaa:	c8 16       	cp	r12, r24
    2aac:	d8 06       	cpc	r13, r24
    2aae:	e8 06       	cpc	r14, r24
    2ab0:	f8 06       	cpc	r15, r24
    2ab2:	21 f4       	brne	.+8      	; 0x2abc <datalogger_tick+0x18a>
    2ab4:	0e 94 dc 34 	call	0x69b8	; 0x69b8 <rtc_get_time>
    2ab8:	6b 01       	movw	r12, r22
    2aba:	7c 01       	movw	r14, r24
    2abc:	c8 82       	st	Y, r12
    2abe:	d9 82       	std	Y+1, r13	; 0x01
    2ac0:	ea 82       	std	Y+2, r14	; 0x02
    2ac2:	fb 82       	std	Y+3, r15	; 0x03
    2ac4:	18 8a       	std	Y+16, r1	; 0x10
    2ac6:	be 01       	movw	r22, r28
    2ac8:	6c 5f       	subi	r22, 0xFC	; 252
    2aca:	7f 4f       	sbci	r23, 0xFF	; 255
    2acc:	80 e0       	ldi	r24, 0x00	; 0
    2ace:	0e 94 27 22 	call	0x444e	; 0x444e <raingauge_get_stats>
    2ad2:	60 e0       	ldi	r22, 0x00	; 0
    2ad4:	70 e0       	ldi	r23, 0x00	; 0
    2ad6:	80 e0       	ldi	r24, 0x00	; 0
    2ad8:	0e 94 0c 22 	call	0x4418	; 0x4418 <raingauge_reset_stats>
    2adc:	82 e0       	ldi	r24, 0x02	; 2
    2ade:	80 93 90 01 	sts	0x0190, r24
    2ae2:	81 e0       	ldi	r24, 0x01	; 1
    2ae4:	80 93 a3 22 	sts	0x22A3, r24
    2ae8:	80 91 04 20 	lds	r24, 0x2004
    2aec:	90 91 05 20 	lds	r25, 0x2005
    2af0:	a0 91 06 20 	lds	r26, 0x2006
    2af4:	b0 91 07 20 	lds	r27, 0x2007
    2af8:	88 0d       	add	r24, r8
    2afa:	99 1d       	adc	r25, r9
    2afc:	aa 1d       	adc	r26, r10
    2afe:	bb 1d       	adc	r27, r11
    2b00:	80 93 04 20 	sts	0x2004, r24
    2b04:	90 93 05 20 	sts	0x2005, r25
    2b08:	a0 93 06 20 	sts	0x2006, r26
    2b0c:	b0 93 07 20 	sts	0x2007, r27
    2b10:	80 91 a4 22 	lds	r24, 0x22A4
    2b14:	20 91 a7 22 	lds	r18, 0x22A7
    2b18:	30 91 a8 22 	lds	r19, 0x22A8
    2b1c:	40 91 a9 22 	lds	r20, 0x22A9
    2b20:	50 91 aa 22 	lds	r21, 0x22AA
    2b24:	81 11       	cpse	r24, r1
    2b26:	18 c0       	rjmp	.+48     	; 0x2b58 <datalogger_tick+0x226>
    2b28:	80 91 04 20 	lds	r24, 0x2004
    2b2c:	90 91 05 20 	lds	r25, 0x2005
    2b30:	a0 91 06 20 	lds	r26, 0x2006
    2b34:	b0 91 07 20 	lds	r27, 0x2007
    2b38:	82 17       	cp	r24, r18
    2b3a:	93 07       	cpc	r25, r19
    2b3c:	a4 07       	cpc	r26, r20
    2b3e:	b5 07       	cpc	r27, r21
    2b40:	58 f0       	brcs	.+22     	; 0x2b58 <datalogger_tick+0x226>
    2b42:	10 92 04 20 	sts	0x2004, r1
    2b46:	10 92 05 20 	sts	0x2005, r1
    2b4a:	10 92 06 20 	sts	0x2006, r1
    2b4e:	10 92 07 20 	sts	0x2007, r1
    2b52:	81 e0       	ldi	r24, 0x01	; 1
    2b54:	80 93 a5 22 	sts	0x22A5, r24
    2b58:	c0 90 04 20 	lds	r12, 0x2004
    2b5c:	d0 90 05 20 	lds	r13, 0x2005
    2b60:	e0 90 06 20 	lds	r14, 0x2006
    2b64:	f0 90 07 20 	lds	r15, 0x2007
    2b68:	a3 e0       	ldi	r26, 0x03	; 3
    2b6a:	b0 e0       	ldi	r27, 0x00	; 0
    2b6c:	0e 94 f9 47 	call	0x8ff2	; 0x8ff2 <__muluhisi3>
    2b70:	6c 15       	cp	r22, r12
    2b72:	7d 05       	cpc	r23, r13
    2b74:	8e 05       	cpc	r24, r14
    2b76:	9f 05       	cpc	r25, r15
    2b78:	60 f4       	brcc	.+24     	; 0x2b92 <datalogger_tick+0x260>
    2b7a:	df 91       	pop	r29
    2b7c:	cf 91       	pop	r28
    2b7e:	ff 90       	pop	r15
    2b80:	ef 90       	pop	r14
    2b82:	df 90       	pop	r13
    2b84:	cf 90       	pop	r12
    2b86:	bf 90       	pop	r11
    2b88:	af 90       	pop	r10
    2b8a:	9f 90       	pop	r9
    2b8c:	8f 90       	pop	r8
    2b8e:	0c 94 06 2f 	jmp	0x5e0c	; 0x5e0c <wdt_reset_mcu>
    2b92:	df 91       	pop	r29
    2b94:	cf 91       	pop	r28
    2b96:	ff 90       	pop	r15
    2b98:	ef 90       	pop	r14
    2b9a:	df 90       	pop	r13
    2b9c:	cf 90       	pop	r12
    2b9e:	bf 90       	pop	r11
    2ba0:	af 90       	pop	r10
    2ba2:	9f 90       	pop	r9
    2ba4:	8f 90       	pop	r8
    2ba6:	08 95       	ret

00002ba8 <dl_task_sync_time>:
    2ba8:	af 92       	push	r10
    2baa:	bf 92       	push	r11
    2bac:	cf 92       	push	r12
    2bae:	df 92       	push	r13
    2bb0:	ef 92       	push	r14
    2bb2:	ff 92       	push	r15
    2bb4:	0f 93       	push	r16
    2bb6:	1f 93       	push	r17
    2bb8:	cf 93       	push	r28
    2bba:	df 93       	push	r29
    2bbc:	cd b7       	in	r28, 0x3d	; 61
    2bbe:	de b7       	in	r29, 0x3e	; 62
    2bc0:	cb 58       	subi	r28, 0x8B	; 139
    2bc2:	d1 09       	sbc	r29, r1
    2bc4:	cd bf       	out	0x3d, r28	; 61
    2bc6:	de bf       	out	0x3e, r29	; 62
    2bc8:	82 e0       	ldi	r24, 0x02	; 2
    2bca:	80 93 a2 22 	sts	0x22A2, r24
    2bce:	80 e9       	ldi	r24, 0x90	; 144
    2bd0:	93 e0       	ldi	r25, 0x03	; 3
    2bd2:	c7 57       	subi	r28, 0x77	; 119
    2bd4:	df 4f       	sbci	r29, 0xFF	; 255
    2bd6:	88 83       	st	Y, r24
    2bd8:	99 83       	std	Y+1, r25	; 0x01
    2bda:	c9 58       	subi	r28, 0x89	; 137
    2bdc:	d0 40       	sbci	r29, 0x00	; 0
    2bde:	bc 01       	movw	r22, r24
    2be0:	82 e0       	ldi	r24, 0x02	; 2
    2be2:	0e 94 67 2f 	call	0x5ece	; 0x5ece <debug_function_in_name_print_P>
    2be6:	80 91 bf 22 	lds	r24, 0x22BF
    2bea:	81 11       	cpse	r24, r1
    2bec:	09 c0       	rjmp	.+18     	; 0x2c00 <dl_task_sync_time+0x58>
    2bee:	41 e0       	ldi	r20, 0x01	; 1
    2bf0:	62 ea       	ldi	r22, 0xA2	; 162
    2bf2:	73 e0       	ldi	r23, 0x03	; 3
    2bf4:	81 e0       	ldi	r24, 0x01	; 1
    2bf6:	0e 94 12 2f 	call	0x5e24	; 0x5e24 <debug_string>
    2bfa:	01 e0       	ldi	r16, 0x01	; 1
    2bfc:	10 e0       	ldi	r17, 0x00	; 0
    2bfe:	a0 c0       	rjmp	.+320    	; 0x2d40 <dl_task_sync_time+0x198>
    2c00:	0e 94 bb 29 	call	0x5376	; 0x5376 <sim900_GPRS_simple_open>
    2c04:	08 2f       	mov	r16, r24
    2c06:	10 e0       	ldi	r17, 0x00	; 0
    2c08:	01 15       	cp	r16, r1
    2c0a:	11 05       	cpc	r17, r1
    2c0c:	09 f0       	breq	.+2      	; 0x2c10 <dl_task_sync_time+0x68>
    2c0e:	98 c0       	rjmp	.+304    	; 0x2d40 <dl_task_sync_time+0x198>
    2c10:	60 e8       	ldi	r22, 0x80	; 128
    2c12:	aa 24       	eor	r10, r10
    2c14:	a3 94       	inc	r10
    2c16:	b1 2c       	mov	r11, r1
    2c18:	ac 0e       	add	r10, r28
    2c1a:	bd 1e       	adc	r11, r29
    2c1c:	c5 01       	movw	r24, r10
    2c1e:	18 da       	rcall	.-3024   	; 0x2050 <cfg_get_service_url_time>
    2c20:	8e e1       	ldi	r24, 0x1E	; 30
    2c22:	c5 57       	subi	r28, 0x75	; 117
    2c24:	df 4f       	sbci	r29, 0xFF	; 255
    2c26:	88 83       	st	Y, r24
    2c28:	cb 58       	subi	r28, 0x8B	; 139
    2c2a:	d0 40       	sbci	r29, 0x00	; 0
    2c2c:	9e 01       	movw	r18, r28
    2c2e:	25 57       	subi	r18, 0x75	; 117
    2c30:	3f 4f       	sbci	r19, 0xFF	; 255
    2c32:	a5 01       	movw	r20, r10
    2c34:	60 e0       	ldi	r22, 0x00	; 0
    2c36:	c5 01       	movw	r24, r10
    2c38:	0e 94 54 2a 	call	0x54a8	; 0x54a8 <sim900_http_get>
    2c3c:	8c 01       	movw	r16, r24
    2c3e:	0e 94 1f 2c 	call	0x583e	; 0x583e <sim900_http_close>
    2c42:	01 15       	cp	r16, r1
    2c44:	11 05       	cpc	r17, r1
    2c46:	09 f0       	breq	.+2      	; 0x2c4a <dl_task_sync_time+0xa2>
    2c48:	7b c0       	rjmp	.+246    	; 0x2d40 <dl_task_sync_time+0x198>
    2c4a:	41 e0       	ldi	r20, 0x01	; 1
    2c4c:	66 ef       	ldi	r22, 0xF6	; 246
    2c4e:	73 e0       	ldi	r23, 0x03	; 3
    2c50:	83 e0       	ldi	r24, 0x03	; 3
    2c52:	0e 94 12 2f 	call	0x5e24	; 0x5e24 <debug_string>
    2c56:	40 e0       	ldi	r20, 0x00	; 0
    2c58:	b5 01       	movw	r22, r10
    2c5a:	83 e0       	ldi	r24, 0x03	; 3
    2c5c:	0e 94 12 2f 	call	0x5e24	; 0x5e24 <debug_string>
    2c60:	41 e0       	ldi	r20, 0x01	; 1
    2c62:	6f ec       	ldi	r22, 0xCF	; 207
    2c64:	7e e1       	ldi	r23, 0x1E	; 30
    2c66:	83 e0       	ldi	r24, 0x03	; 3
    2c68:	0e 94 12 2f 	call	0x5e24	; 0x5e24 <debug_string>
    2c6c:	4a e0       	ldi	r20, 0x0A	; 10
    2c6e:	50 e0       	ldi	r21, 0x00	; 0
    2c70:	60 e0       	ldi	r22, 0x00	; 0
    2c72:	70 e0       	ldi	r23, 0x00	; 0
    2c74:	c5 01       	movw	r24, r10
    2c76:	0e 94 03 48 	call	0x9006	; 0x9006 <strtoul>
    2c7a:	6b 01       	movw	r12, r22
    2c7c:	7c 01       	movw	r14, r24
    2c7e:	0e 94 ca 34 	call	0x6994	; 0x6994 <rtc_set_time>
    2c82:	ae 01       	movw	r20, r28
    2c84:	4f 57       	subi	r20, 0x7F	; 127
    2c86:	5f 4f       	sbci	r21, 0xFF	; 255
    2c88:	c7 01       	movw	r24, r14
    2c8a:	b6 01       	movw	r22, r12
    2c8c:	0e 94 f3 2c 	call	0x59e6	; 0x59e6 <calendar_timestamp_to_date>
    2c90:	cf 57       	subi	r28, 0x7F	; 127
    2c92:	df 4f       	sbci	r29, 0xFF	; 255
    2c94:	88 81       	ld	r24, Y
    2c96:	c1 58       	subi	r28, 0x81	; 129
    2c98:	d0 40       	sbci	r29, 0x00	; 0
    2c9a:	1f 92       	push	r1
    2c9c:	8f 93       	push	r24
    2c9e:	ce 57       	subi	r28, 0x7E	; 126
    2ca0:	df 4f       	sbci	r29, 0xFF	; 255
    2ca2:	88 81       	ld	r24, Y
    2ca4:	c2 58       	subi	r28, 0x82	; 130
    2ca6:	d0 40       	sbci	r29, 0x00	; 0
    2ca8:	1f 92       	push	r1
    2caa:	8f 93       	push	r24
    2cac:	cd 57       	subi	r28, 0x7D	; 125
    2cae:	df 4f       	sbci	r29, 0xFF	; 255
    2cb0:	88 81       	ld	r24, Y
    2cb2:	c3 58       	subi	r28, 0x83	; 131
    2cb4:	d0 40       	sbci	r29, 0x00	; 0
    2cb6:	1f 92       	push	r1
    2cb8:	8f 93       	push	r24
    2cba:	c9 57       	subi	r28, 0x79	; 121
    2cbc:	df 4f       	sbci	r29, 0xFF	; 255
    2cbe:	88 81       	ld	r24, Y
    2cc0:	c7 58       	subi	r28, 0x87	; 135
    2cc2:	d0 40       	sbci	r29, 0x00	; 0
    2cc4:	8f 93       	push	r24
    2cc6:	ca 57       	subi	r28, 0x7A	; 122
    2cc8:	df 4f       	sbci	r29, 0xFF	; 255
    2cca:	88 81       	ld	r24, Y
    2ccc:	c6 58       	subi	r28, 0x86	; 134
    2cce:	d0 40       	sbci	r29, 0x00	; 0
    2cd0:	8f 93       	push	r24
    2cd2:	cb 57       	subi	r28, 0x7B	; 123
    2cd4:	df 4f       	sbci	r29, 0xFF	; 255
    2cd6:	88 81       	ld	r24, Y
    2cd8:	c5 58       	subi	r28, 0x85	; 133
    2cda:	d0 40       	sbci	r29, 0x00	; 0
    2cdc:	90 e0       	ldi	r25, 0x00	; 0
    2cde:	01 96       	adiw	r24, 0x01	; 1
    2ce0:	9f 93       	push	r25
    2ce2:	8f 93       	push	r24
    2ce4:	cc 57       	subi	r28, 0x7C	; 124
    2ce6:	df 4f       	sbci	r29, 0xFF	; 255
    2ce8:	88 81       	ld	r24, Y
    2cea:	c4 58       	subi	r28, 0x84	; 132
    2cec:	d0 40       	sbci	r29, 0x00	; 0
    2cee:	90 e0       	ldi	r25, 0x00	; 0
    2cf0:	01 96       	adiw	r24, 0x01	; 1
    2cf2:	9f 93       	push	r25
    2cf4:	8f 93       	push	r24
    2cf6:	87 e1       	ldi	r24, 0x17	; 23
    2cf8:	94 e0       	ldi	r25, 0x04	; 4
    2cfa:	9f 93       	push	r25
    2cfc:	8f 93       	push	r24
    2cfe:	bf 92       	push	r11
    2d00:	af 92       	push	r10
    2d02:	0e 94 93 49 	call	0x9326	; 0x9326 <sprintf_P>
    2d06:	41 e0       	ldi	r20, 0x01	; 1
    2d08:	65 e3       	ldi	r22, 0x35	; 53
    2d0a:	74 e0       	ldi	r23, 0x04	; 4
    2d0c:	81 e0       	ldi	r24, 0x01	; 1
    2d0e:	0e 94 12 2f 	call	0x5e24	; 0x5e24 <debug_string>
    2d12:	40 e0       	ldi	r20, 0x00	; 0
    2d14:	b5 01       	movw	r22, r10
    2d16:	81 e0       	ldi	r24, 0x01	; 1
    2d18:	0e 94 12 2f 	call	0x5e24	; 0x5e24 <debug_string>
    2d1c:	c0 90 b3 22 	lds	r12, 0x22B3
    2d20:	d0 90 b4 22 	lds	r13, 0x22B4
    2d24:	e0 90 b5 22 	lds	r14, 0x22B5
    2d28:	f0 90 b6 22 	lds	r15, 0x22B6
    2d2c:	0e 94 dc 34 	call	0x69b8	; 0x69b8 <rtc_get_time>
    2d30:	6c 0d       	add	r22, r12
    2d32:	7d 1d       	adc	r23, r13
    2d34:	8e 1d       	adc	r24, r14
    2d36:	9f 1d       	adc	r25, r15
    2d38:	0e 94 f2 34 	call	0x69e4	; 0x69e4 <rtc_set_alarm>
    2d3c:	cd bf       	out	0x3d, r28	; 61
    2d3e:	de bf       	out	0x3e, r29	; 62
    2d40:	0e 94 f0 29 	call	0x53e0	; 0x53e0 <sim900_GPRS_simple_close>
    2d44:	10 92 a2 22 	sts	0x22A2, r1
    2d48:	ce 01       	movw	r24, r28
    2d4a:	87 57       	subi	r24, 0x77	; 119
    2d4c:	9f 4f       	sbci	r25, 0xFF	; 255
    2d4e:	0e 94 7a 2f 	call	0x5ef4	; 0x5ef4 <debug_function_out_name_print_P>
    2d52:	c8 01       	movw	r24, r16
    2d54:	c5 57       	subi	r28, 0x75	; 117
    2d56:	df 4f       	sbci	r29, 0xFF	; 255
    2d58:	cd bf       	out	0x3d, r28	; 61
    2d5a:	de bf       	out	0x3e, r29	; 62
    2d5c:	df 91       	pop	r29
    2d5e:	cf 91       	pop	r28
    2d60:	1f 91       	pop	r17
    2d62:	0f 91       	pop	r16
    2d64:	ff 90       	pop	r15
    2d66:	ef 90       	pop	r14
    2d68:	df 90       	pop	r13
    2d6a:	cf 90       	pop	r12
    2d6c:	bf 90       	pop	r11
    2d6e:	af 90       	pop	r10
    2d70:	08 95       	ret

00002d72 <datalogger_init>:
    2d72:	8f 92       	push	r8
    2d74:	9f 92       	push	r9
    2d76:	af 92       	push	r10
    2d78:	bf 92       	push	r11
    2d7a:	cf 92       	push	r12
    2d7c:	df 92       	push	r13
    2d7e:	ef 92       	push	r14
    2d80:	ff 92       	push	r15
    2d82:	0f 93       	push	r16
    2d84:	1f 93       	push	r17
    2d86:	cf 93       	push	r28
    2d88:	df 93       	push	r29
    2d8a:	cd b7       	in	r28, 0x3d	; 61
    2d8c:	de b7       	in	r29, 0x3e	; 62
    2d8e:	cb 54       	subi	r28, 0x4B	; 75
    2d90:	d1 09       	sbc	r29, r1
    2d92:	cd bf       	out	0x3d, r28	; 61
    2d94:	de bf       	out	0x3e, r29	; 62
    2d96:	41 e0       	ldi	r20, 0x01	; 1
    2d98:	6c ef       	ldi	r22, 0xFC	; 252
    2d9a:	71 e0       	ldi	r23, 0x01	; 1
    2d9c:	82 e0       	ldi	r24, 0x02	; 2
    2d9e:	0e 94 12 2f 	call	0x5e24	; 0x5e24 <debug_string>
    2da2:	68 e8       	ldi	r22, 0x88	; 136
    2da4:	74 e7       	ldi	r23, 0x74	; 116
    2da6:	85 e8       	ldi	r24, 0x85	; 133
    2da8:	90 e5       	ldi	r25, 0x50	; 80
    2daa:	0e 94 ca 34 	call	0x6994	; 0x6994 <rtc_set_time>
    2dae:	29 d9       	rcall	.-3502   	; 0x2002 <cfg_check>
    2db0:	81 11       	cpse	r24, r1
    2db2:	08 c0       	rjmp	.+16     	; 0x2dc4 <datalogger_init+0x52>
    2db4:	41 e0       	ldi	r20, 0x01	; 1
    2db6:	6e e0       	ldi	r22, 0x0E	; 14
    2db8:	72 e0       	ldi	r23, 0x02	; 2
    2dba:	81 e0       	ldi	r24, 0x01	; 1
    2dbc:	0e 94 12 2f 	call	0x5e24	; 0x5e24 <debug_string>
    2dc0:	81 e0       	ldi	r24, 0x01	; 1
    2dc2:	36 c2       	rjmp	.+1132   	; 0x3230 <datalogger_init+0x4be>
    2dc4:	23 eb       	ldi	r18, 0xB3	; 179
    2dc6:	32 e2       	ldi	r19, 0x22	; 34
    2dc8:	4f ea       	ldi	r20, 0xAF	; 175
    2dca:	52 e2       	ldi	r21, 0x22	; 34
    2dcc:	6b ea       	ldi	r22, 0xAB	; 171
    2dce:	72 e2       	ldi	r23, 0x22	; 34
    2dd0:	87 ea       	ldi	r24, 0xA7	; 167
    2dd2:	92 e2       	ldi	r25, 0x22	; 34
    2dd4:	45 d9       	rcall	.-3446   	; 0x2060 <cfg_get_datalogger_timings>
    2dd6:	80 91 ae 22 	lds	r24, 0x22AE
    2dda:	8f 93       	push	r24
    2ddc:	80 91 ad 22 	lds	r24, 0x22AD
    2de0:	8f 93       	push	r24
    2de2:	80 91 ac 22 	lds	r24, 0x22AC
    2de6:	8f 93       	push	r24
    2de8:	80 91 ab 22 	lds	r24, 0x22AB
    2dec:	8f 93       	push	r24
    2dee:	86 e5       	ldi	r24, 0x56	; 86
    2df0:	92 e0       	ldi	r25, 0x02	; 2
    2df2:	9f 93       	push	r25
    2df4:	8f 93       	push	r24
    2df6:	ee 24       	eor	r14, r14
    2df8:	e3 94       	inc	r14
    2dfa:	f1 2c       	mov	r15, r1
    2dfc:	ec 0e       	add	r14, r28
    2dfe:	fd 1e       	adc	r15, r29
    2e00:	ff 92       	push	r15
    2e02:	ef 92       	push	r14
    2e04:	0e 94 93 49 	call	0x9326	; 0x9326 <sprintf_P>
    2e08:	40 e0       	ldi	r20, 0x00	; 0
    2e0a:	b7 01       	movw	r22, r14
    2e0c:	81 e0       	ldi	r24, 0x01	; 1
    2e0e:	0e 94 12 2f 	call	0x5e24	; 0x5e24 <debug_string>
    2e12:	80 91 aa 22 	lds	r24, 0x22AA
    2e16:	8f 93       	push	r24
    2e18:	80 91 a9 22 	lds	r24, 0x22A9
    2e1c:	8f 93       	push	r24
    2e1e:	80 91 a8 22 	lds	r24, 0x22A8
    2e22:	8f 93       	push	r24
    2e24:	80 91 a7 22 	lds	r24, 0x22A7
    2e28:	8f 93       	push	r24
    2e2a:	8e e6       	ldi	r24, 0x6E	; 110
    2e2c:	92 e0       	ldi	r25, 0x02	; 2
    2e2e:	9f 93       	push	r25
    2e30:	8f 93       	push	r24
    2e32:	ff 92       	push	r15
    2e34:	ef 92       	push	r14
    2e36:	0e 94 93 49 	call	0x9326	; 0x9326 <sprintf_P>
    2e3a:	40 e0       	ldi	r20, 0x00	; 0
    2e3c:	b7 01       	movw	r22, r14
    2e3e:	81 e0       	ldi	r24, 0x01	; 1
    2e40:	0e 94 12 2f 	call	0x5e24	; 0x5e24 <debug_string>
    2e44:	80 91 b2 22 	lds	r24, 0x22B2
    2e48:	8f 93       	push	r24
    2e4a:	80 91 b1 22 	lds	r24, 0x22B1
    2e4e:	8f 93       	push	r24
    2e50:	80 91 b0 22 	lds	r24, 0x22B0
    2e54:	8f 93       	push	r24
    2e56:	80 91 af 22 	lds	r24, 0x22AF
    2e5a:	8f 93       	push	r24
    2e5c:	85 e8       	ldi	r24, 0x85	; 133
    2e5e:	92 e0       	ldi	r25, 0x02	; 2
    2e60:	9f 93       	push	r25
    2e62:	8f 93       	push	r24
    2e64:	ff 92       	push	r15
    2e66:	ef 92       	push	r14
    2e68:	0e 94 93 49 	call	0x9326	; 0x9326 <sprintf_P>
    2e6c:	40 e0       	ldi	r20, 0x00	; 0
    2e6e:	b7 01       	movw	r22, r14
    2e70:	81 e0       	ldi	r24, 0x01	; 1
    2e72:	0e 94 12 2f 	call	0x5e24	; 0x5e24 <debug_string>
    2e76:	80 91 b6 22 	lds	r24, 0x22B6
    2e7a:	8f 93       	push	r24
    2e7c:	80 91 b5 22 	lds	r24, 0x22B5
    2e80:	8f 93       	push	r24
    2e82:	80 91 b4 22 	lds	r24, 0x22B4
    2e86:	8f 93       	push	r24
    2e88:	80 91 b3 22 	lds	r24, 0x22B3
    2e8c:	8f 93       	push	r24
    2e8e:	8c e9       	ldi	r24, 0x9C	; 156
    2e90:	92 e0       	ldi	r25, 0x02	; 2
    2e92:	9f 93       	push	r25
    2e94:	8f 93       	push	r24
    2e96:	ff 92       	push	r15
    2e98:	ef 92       	push	r14
    2e9a:	0e 94 93 49 	call	0x9326	; 0x9326 <sprintf_P>
    2e9e:	cd bf       	out	0x3d, r28	; 61
    2ea0:	de bf       	out	0x3e, r29	; 62
    2ea2:	40 e0       	ldi	r20, 0x00	; 0
    2ea4:	b7 01       	movw	r22, r14
    2ea6:	81 e0       	ldi	r24, 0x01	; 1
    2ea8:	0e 94 12 2f 	call	0x5e24	; 0x5e24 <debug_string>
    2eac:	80 91 0d 20 	lds	r24, 0x200D
    2eb0:	26 96       	adiw	r28, 0x06	; 6
    2eb2:	8f af       	std	Y+63, r24	; 0x3f
    2eb4:	26 97       	sbiw	r28, 0x06	; 6
    2eb6:	80 91 0e 20 	lds	r24, 0x200E
    2eba:	27 96       	adiw	r28, 0x07	; 7
    2ebc:	8f af       	std	Y+63, r24	; 0x3f
    2ebe:	27 97       	sbiw	r28, 0x07	; 7
    2ec0:	80 91 0f 20 	lds	r24, 0x200F
    2ec4:	28 96       	adiw	r28, 0x08	; 8
    2ec6:	8f af       	std	Y+63, r24	; 0x3f
    2ec8:	28 97       	sbiw	r28, 0x08	; 8
    2eca:	80 91 09 20 	lds	r24, 0x2009
    2ece:	90 91 0a 20 	lds	r25, 0x200A
    2ed2:	a0 91 0b 20 	lds	r26, 0x200B
    2ed6:	b0 91 0c 20 	lds	r27, 0x200C
    2eda:	25 96       	adiw	r28, 0x05	; 5
    2edc:	8c af       	std	Y+60, r24	; 0x3c
    2ede:	9d af       	std	Y+61, r25	; 0x3d
    2ee0:	ae af       	std	Y+62, r26	; 0x3e
    2ee2:	bf af       	std	Y+63, r27	; 0x3f
    2ee4:	25 97       	sbiw	r28, 0x05	; 5
    2ee6:	60 e1       	ldi	r22, 0x10	; 16
    2ee8:	85 e0       	ldi	r24, 0x05	; 5
    2eea:	0e 94 7a 30 	call	0x60f4	; 0x60f4 <sysclk_enable_module>
    2eee:	be 01       	movw	r22, r28
    2ef0:	6f 5b       	subi	r22, 0xBF	; 191
    2ef2:	7f 4f       	sbci	r23, 0xFF	; 255
    2ef4:	80 ea       	ldi	r24, 0xA0	; 160
    2ef6:	9a e0       	ldi	r25, 0x0A	; 10
    2ef8:	0e 94 4e 3f 	call	0x7e9c	; 0x7e9c <usart_init_rs232>
    2efc:	0e 94 32 21 	call	0x4264	; 0x4264 <AT24CXX_Init>
    2f00:	04 e0       	ldi	r16, 0x04	; 4
    2f02:	97 01       	movw	r18, r14
    2f04:	40 e0       	ldi	r20, 0x00	; 0
    2f06:	60 e0       	ldi	r22, 0x00	; 0
    2f08:	80 e0       	ldi	r24, 0x00	; 0
    2f0a:	0e 94 8b 21 	call	0x4316	; 0x4316 <AT24CXX_ReadBlockA>
    2f0e:	60 e2       	ldi	r22, 0x20	; 32
    2f10:	7e e4       	ldi	r23, 0x4E	; 78
    2f12:	80 e0       	ldi	r24, 0x00	; 0
    2f14:	90 e0       	ldi	r25, 0x00	; 0
    2f16:	ef d8       	rcall	.-3618   	; 0x20f6 <__portable_avr_delay_cycles>
    2f18:	89 81       	ldd	r24, Y+1	; 0x01
    2f1a:	81 34       	cpi	r24, 0x41	; 65
    2f1c:	49 f4       	brne	.+18     	; 0x2f30 <datalogger_init+0x1be>
    2f1e:	8a 81       	ldd	r24, Y+2	; 0x02
    2f20:	83 34       	cpi	r24, 0x43	; 67
    2f22:	31 f4       	brne	.+12     	; 0x2f30 <datalogger_init+0x1be>
    2f24:	8b 81       	ldd	r24, Y+3	; 0x03
    2f26:	80 33       	cpi	r24, 0x30	; 48
    2f28:	19 f4       	brne	.+6      	; 0x2f30 <datalogger_init+0x1be>
    2f2a:	8c 81       	ldd	r24, Y+4	; 0x04
    2f2c:	81 33       	cpi	r24, 0x31	; 49
    2f2e:	c9 f1       	breq	.+114    	; 0x2fa2 <datalogger_init+0x230>
    2f30:	41 e0       	ldi	r20, 0x01	; 1
    2f32:	6b e6       	ldi	r22, 0x6B	; 107
    2f34:	73 e0       	ldi	r23, 0x03	; 3
    2f36:	81 e0       	ldi	r24, 0x01	; 1
    2f38:	0e 94 12 2f 	call	0x5e24	; 0x5e24 <debug_string>
    2f3c:	81 e4       	ldi	r24, 0x41	; 65
    2f3e:	22 96       	adiw	r28, 0x02	; 2
    2f40:	8f af       	std	Y+63, r24	; 0x3f
    2f42:	22 97       	sbiw	r28, 0x02	; 2
    2f44:	83 e4       	ldi	r24, 0x43	; 67
    2f46:	23 96       	adiw	r28, 0x03	; 3
    2f48:	8f af       	std	Y+63, r24	; 0x3f
    2f4a:	23 97       	sbiw	r28, 0x03	; 3
    2f4c:	80 e3       	ldi	r24, 0x30	; 48
    2f4e:	24 96       	adiw	r28, 0x04	; 4
    2f50:	8f af       	std	Y+63, r24	; 0x3f
    2f52:	24 97       	sbiw	r28, 0x04	; 4
    2f54:	81 e3       	ldi	r24, 0x31	; 49
    2f56:	25 96       	adiw	r28, 0x05	; 5
    2f58:	8f af       	std	Y+63, r24	; 0x3f
    2f5a:	25 97       	sbiw	r28, 0x05	; 5
    2f5c:	04 e0       	ldi	r16, 0x04	; 4
    2f5e:	9e 01       	movw	r18, r28
    2f60:	2f 5b       	subi	r18, 0xBF	; 191
    2f62:	3f 4f       	sbci	r19, 0xFF	; 255
    2f64:	40 e0       	ldi	r20, 0x00	; 0
    2f66:	60 e0       	ldi	r22, 0x00	; 0
    2f68:	80 e0       	ldi	r24, 0x00	; 0
    2f6a:	0e 94 67 21 	call	0x42ce	; 0x42ce <AT24CXX_WriteBlockA>
    2f6e:	60 e2       	ldi	r22, 0x20	; 32
    2f70:	7e e4       	ldi	r23, 0x4E	; 78
    2f72:	80 e0       	ldi	r24, 0x00	; 0
    2f74:	90 e0       	ldi	r25, 0x00	; 0
    2f76:	bf d8       	rcall	.-3714   	; 0x20f6 <__portable_avr_delay_cycles>
    2f78:	80 e0       	ldi	r24, 0x00	; 0
    2f7a:	91 e0       	ldi	r25, 0x01	; 1
    2f7c:	a0 e0       	ldi	r26, 0x00	; 0
    2f7e:	b0 e0       	ldi	r27, 0x00	; 0
    2f80:	80 93 b7 22 	sts	0x22B7, r24
    2f84:	90 93 b8 22 	sts	0x22B8, r25
    2f88:	a0 93 b9 22 	sts	0x22B9, r26
    2f8c:	b0 93 ba 22 	sts	0x22BA, r27
    2f90:	80 93 bb 22 	sts	0x22BB, r24
    2f94:	90 93 bc 22 	sts	0x22BC, r25
    2f98:	a0 93 bd 22 	sts	0x22BD, r26
    2f9c:	b0 93 be 22 	sts	0x22BE, r27
    2fa0:	b0 d8       	rcall	.-3744   	; 0x2102 <datalogger_init_iterators_to_eeprom>
    2fa2:	8f ef       	ldi	r24, 0xFF	; 255
    2fa4:	9f ef       	ldi	r25, 0xFF	; 255
    2fa6:	dc 01       	movw	r26, r24
    2fa8:	80 93 b7 22 	sts	0x22B7, r24
    2fac:	90 93 b8 22 	sts	0x22B8, r25
    2fb0:	a0 93 b9 22 	sts	0x22B9, r26
    2fb4:	b0 93 ba 22 	sts	0x22BA, r27
    2fb8:	80 93 bb 22 	sts	0x22BB, r24
    2fbc:	90 93 bc 22 	sts	0x22BC, r25
    2fc0:	a0 93 bd 22 	sts	0x22BD, r26
    2fc4:	b0 93 be 22 	sts	0x22BE, r27
    2fc8:	0e 94 32 21 	call	0x4264	; 0x4264 <AT24CXX_Init>
    2fcc:	54 e0       	ldi	r21, 0x04	; 4
    2fce:	c5 2e       	mov	r12, r21
    2fd0:	d1 2c       	mov	r13, r1
    2fd2:	e1 2c       	mov	r14, r1
    2fd4:	f1 2c       	mov	r15, r1
    2fd6:	46 01       	movw	r8, r12
    2fd8:	94 e0       	ldi	r25, 0x04	; 4
    2fda:	89 1a       	sub	r8, r25
    2fdc:	91 08       	sbc	r9, r1
    2fde:	56 01       	movw	r10, r12
    2fe0:	10 e0       	ldi	r17, 0x00	; 0
    2fe2:	c5 01       	movw	r24, r10
    2fe4:	04 e0       	ldi	r16, 0x04	; 4
    2fe6:	9e 01       	movw	r18, r28
    2fe8:	28 5b       	subi	r18, 0xB8	; 184
    2fea:	3f 4f       	sbci	r19, 0xFF	; 255
    2fec:	4a 2d       	mov	r20, r10
    2fee:	69 2f       	mov	r22, r25
    2ff0:	80 e0       	ldi	r24, 0x00	; 0
    2ff2:	0e 94 8b 21 	call	0x4316	; 0x4316 <AT24CXX_ReadBlockA>
    2ff6:	60 e2       	ldi	r22, 0x20	; 32
    2ff8:	7e e4       	ldi	r23, 0x4E	; 78
    2ffa:	80 e0       	ldi	r24, 0x00	; 0
    2ffc:	90 e0       	ldi	r25, 0x00	; 0
    2ffe:	7b d8       	rcall	.-3850   	; 0x20f6 <__portable_avr_delay_cycles>
    3000:	2c 96       	adiw	r28, 0x0c	; 12
    3002:	8c ad       	ldd	r24, Y+60	; 0x3c
    3004:	9d ad       	ldd	r25, Y+61	; 0x3d
    3006:	ae ad       	ldd	r26, Y+62	; 0x3e
    3008:	bf ad       	ldd	r27, Y+63	; 0x3f
    300a:	2c 97       	sbiw	r28, 0x0c	; 12
    300c:	8a 3f       	cpi	r24, 0xFA	; 250
    300e:	9a 4f       	sbci	r25, 0xFA	; 250
    3010:	aa 4f       	sbci	r26, 0xFA	; 250
    3012:	ba 4f       	sbci	r27, 0xFA	; 250
    3014:	d9 f4       	brne	.+54     	; 0x304c <datalogger_init+0x2da>
    3016:	11 50       	subi	r17, 0x01	; 1
    3018:	17 70       	andi	r17, 0x07	; 7
    301a:	c4 01       	movw	r24, r8
    301c:	24 e0       	ldi	r18, 0x04	; 4
    301e:	12 9f       	mul	r17, r18
    3020:	80 0d       	add	r24, r0
    3022:	91 1d       	adc	r25, r1
    3024:	11 24       	eor	r1, r1
    3026:	04 96       	adiw	r24, 0x04	; 4
    3028:	97 01       	movw	r18, r14
    302a:	22 0f       	add	r18, r18
    302c:	33 1f       	adc	r19, r19
    302e:	22 0f       	add	r18, r18
    3030:	33 1f       	adc	r19, r19
    3032:	29 54       	subi	r18, 0x49	; 73
    3034:	3d 4d       	sbci	r19, 0xDD	; 221
    3036:	48 2f       	mov	r20, r24
    3038:	69 2f       	mov	r22, r25
    303a:	80 e0       	ldi	r24, 0x00	; 0
    303c:	0e 94 8b 21 	call	0x4316	; 0x4316 <AT24CXX_ReadBlockA>
    3040:	60 e2       	ldi	r22, 0x20	; 32
    3042:	7e e4       	ldi	r23, 0x4E	; 78
    3044:	80 e0       	ldi	r24, 0x00	; 0
    3046:	90 e0       	ldi	r25, 0x00	; 0
    3048:	56 d8       	rcall	.-3924   	; 0x20f6 <__portable_avr_delay_cycles>
    304a:	06 c0       	rjmp	.+12     	; 0x3058 <datalogger_init+0x2e6>
    304c:	1f 5f       	subi	r17, 0xFF	; 255
    304e:	84 e0       	ldi	r24, 0x04	; 4
    3050:	a8 0e       	add	r10, r24
    3052:	b1 1c       	adc	r11, r1
    3054:	18 30       	cpi	r17, 0x08	; 8
    3056:	29 f6       	brne	.-118    	; 0x2fe2 <datalogger_init+0x270>
    3058:	9f ef       	ldi	r25, 0xFF	; 255
    305a:	e9 1a       	sub	r14, r25
    305c:	f9 0a       	sbc	r15, r25
    305e:	28 e0       	ldi	r18, 0x08	; 8
    3060:	c2 0e       	add	r12, r18
    3062:	d1 1c       	adc	r13, r1
    3064:	82 e0       	ldi	r24, 0x02	; 2
    3066:	e8 16       	cp	r14, r24
    3068:	f1 04       	cpc	r15, r1
    306a:	09 f0       	breq	.+2      	; 0x306e <datalogger_init+0x2fc>
    306c:	b4 cf       	rjmp	.-152    	; 0x2fd6 <datalogger_init+0x264>
    306e:	41 e0       	ldi	r20, 0x01	; 1
    3070:	6e ea       	ldi	r22, 0xAE	; 174
    3072:	72 e0       	ldi	r23, 0x02	; 2
    3074:	81 e0       	ldi	r24, 0x01	; 1
    3076:	0e 94 12 2f 	call	0x5e24	; 0x5e24 <debug_string>
    307a:	c0 90 b7 22 	lds	r12, 0x22B7
    307e:	d0 90 b8 22 	lds	r13, 0x22B8
    3082:	e0 90 b9 22 	lds	r14, 0x22B9
    3086:	f0 90 ba 22 	lds	r15, 0x22BA
    308a:	87 eb       	ldi	r24, 0xB7	; 183
    308c:	92 e2       	ldi	r25, 0x22	; 34
    308e:	0e 94 af 21 	call	0x435e	; 0x435e <AT24CXX_iterator_report>
    3092:	80 91 bb 22 	lds	r24, 0x22BB
    3096:	90 91 bc 22 	lds	r25, 0x22BC
    309a:	a0 91 bd 22 	lds	r26, 0x22BD
    309e:	b0 91 be 22 	lds	r27, 0x22BE
    30a2:	11 e0       	ldi	r17, 0x01	; 1
    30a4:	8f 3f       	cpi	r24, 0xFF	; 255
    30a6:	9f 4f       	sbci	r25, 0xFF	; 255
    30a8:	af 4f       	sbci	r26, 0xFF	; 255
    30aa:	bf 4f       	sbci	r27, 0xFF	; 255
    30ac:	31 f0       	breq	.+12     	; 0x30ba <datalogger_init+0x348>
    30ae:	cf 20       	and	r12, r15
    30b0:	ce 20       	and	r12, r14
    30b2:	cd 20       	and	r12, r13
    30b4:	c0 94       	com	r12
    30b6:	09 f0       	breq	.+2      	; 0x30ba <datalogger_init+0x348>
    30b8:	10 e0       	ldi	r17, 0x00	; 0
    30ba:	8b eb       	ldi	r24, 0xBB	; 187
    30bc:	92 e2       	ldi	r25, 0x22	; 34
    30be:	0e 94 af 21 	call	0x435e	; 0x435e <AT24CXX_iterator_report>
    30c2:	11 23       	and	r17, r17
    30c4:	d9 f0       	breq	.+54     	; 0x30fc <datalogger_init+0x38a>
    30c6:	41 e0       	ldi	r20, 0x01	; 1
    30c8:	69 ed       	ldi	r22, 0xD9	; 217
    30ca:	72 e0       	ldi	r23, 0x02	; 2
    30cc:	81 e0       	ldi	r24, 0x01	; 1
    30ce:	0e 94 12 2f 	call	0x5e24	; 0x5e24 <debug_string>
    30d2:	80 e0       	ldi	r24, 0x00	; 0
    30d4:	91 e0       	ldi	r25, 0x01	; 1
    30d6:	a0 e0       	ldi	r26, 0x00	; 0
    30d8:	b0 e0       	ldi	r27, 0x00	; 0
    30da:	80 93 b7 22 	sts	0x22B7, r24
    30de:	90 93 b8 22 	sts	0x22B8, r25
    30e2:	a0 93 b9 22 	sts	0x22B9, r26
    30e6:	b0 93 ba 22 	sts	0x22BA, r27
    30ea:	80 93 bb 22 	sts	0x22BB, r24
    30ee:	90 93 bc 22 	sts	0x22BC, r25
    30f2:	a0 93 bd 22 	sts	0x22BD, r26
    30f6:	b0 93 be 22 	sts	0x22BE, r27
    30fa:	03 d8       	rcall	.-4090   	; 0x2102 <datalogger_init_iterators_to_eeprom>
    30fc:	10 e0       	ldi	r17, 0x00	; 0
    30fe:	1f 5f       	subi	r17, 0xFF	; 255
    3100:	1a 30       	cpi	r17, 0x0A	; 10
    3102:	69 f4       	brne	.+26     	; 0x311e <datalogger_init+0x3ac>
    3104:	80 e0       	ldi	r24, 0x00	; 0
    3106:	0e 94 f2 2e 	call	0x5de4	; 0x5de4 <wdt_set_timeout_period>
    310a:	0e 94 fe 2e 	call	0x5dfc	; 0x5dfc <wdt_enable>
    310e:	0e 94 06 2f 	call	0x5e0c	; 0x5e0c <wdt_reset_mcu>
    3112:	60 e0       	ldi	r22, 0x00	; 0
    3114:	79 e0       	ldi	r23, 0x09	; 9
    3116:	8d e3       	ldi	r24, 0x3D	; 61
    3118:	90 e0       	ldi	r25, 0x00	; 0
    311a:	0e 94 7b 10 	call	0x20f6	; 0x20f6 <__portable_avr_delay_cycles>
    311e:	0e 94 0c 27 	call	0x4e18	; 0x4e18 <sim900_init>
    3122:	81 11       	cpse	r24, r1
    3124:	ec cf       	rjmp	.-40     	; 0x30fe <datalogger_init+0x38c>
    3126:	81 e0       	ldi	r24, 0x01	; 1
    3128:	80 93 bf 22 	sts	0x22BF, r24
    312c:	10 e0       	ldi	r17, 0x00	; 0
    312e:	1f 5f       	subi	r17, 0xFF	; 255
    3130:	1a 30       	cpi	r17, 0x0A	; 10
    3132:	69 f4       	brne	.+26     	; 0x314e <datalogger_init+0x3dc>
    3134:	80 e0       	ldi	r24, 0x00	; 0
    3136:	0e 94 f2 2e 	call	0x5de4	; 0x5de4 <wdt_set_timeout_period>
    313a:	0e 94 fe 2e 	call	0x5dfc	; 0x5dfc <wdt_enable>
    313e:	0e 94 06 2f 	call	0x5e0c	; 0x5e0c <wdt_reset_mcu>
    3142:	60 e0       	ldi	r22, 0x00	; 0
    3144:	79 e0       	ldi	r23, 0x09	; 9
    3146:	8d e3       	ldi	r24, 0x3D	; 61
    3148:	90 e0       	ldi	r25, 0x00	; 0
    314a:	0e 94 7b 10 	call	0x20f6	; 0x20f6 <__portable_avr_delay_cycles>
    314e:	2c dd       	rcall	.-1448   	; 0x2ba8 <dl_task_sync_time>
    3150:	89 2b       	or	r24, r25
    3152:	69 f7       	brne	.-38     	; 0x312e <datalogger_init+0x3bc>
    3154:	0e 94 dc 34 	call	0x69b8	; 0x69b8 <rtc_get_time>
    3158:	60 93 00 20 	sts	0x2000, r22
    315c:	70 93 01 20 	sts	0x2001, r23
    3160:	80 93 02 20 	sts	0x2002, r24
    3164:	90 93 03 20 	sts	0x2003, r25
    3168:	80 e0       	ldi	r24, 0x00	; 0
    316a:	98 e0       	ldi	r25, 0x08	; 8
    316c:	0e 94 02 3c 	call	0x7804	; 0x7804 <tc_enable>
    3170:	80 e4       	ldi	r24, 0x40	; 64
    3172:	98 e0       	ldi	r25, 0x08	; 8
    3174:	0e 94 02 3c 	call	0x7804	; 0x7804 <tc_enable>
    3178:	80 91 08 08 	lds	r24, 0x0808
    317c:	8e 6f       	ori	r24, 0xFE	; 254
    317e:	80 93 08 08 	sts	0x0808, r24
    3182:	80 91 48 08 	lds	r24, 0x0848
    3186:	8e 6f       	ori	r24, 0xFE	; 254
    3188:	80 93 48 08 	sts	0x0848, r24
    318c:	88 e0       	ldi	r24, 0x08	; 8
    318e:	80 93 40 08 	sts	0x0840, r24
    3192:	80 ec       	ldi	r24, 0xC0	; 192
    3194:	80 93 80 01 	sts	0x0180, r24
    3198:	89 e8       	ldi	r24, 0x89	; 137
    319a:	80 93 43 08 	sts	0x0843, r24
    319e:	80 93 03 08 	sts	0x0803, r24
    31a2:	80 e3       	ldi	r24, 0x30	; 48
    31a4:	95 e7       	ldi	r25, 0x75	; 117
    31a6:	80 93 26 08 	sts	0x0826, r24
    31aa:	90 93 27 08 	sts	0x0827, r25
    31ae:	80 91 00 08 	lds	r24, 0x0800
    31b2:	80 7f       	andi	r24, 0xF0	; 240
    31b4:	84 60       	ori	r24, 0x04	; 4
    31b6:	80 93 00 08 	sts	0x0800, r24
    31ba:	e0 91 00 08 	lds	r30, 0x0800
    31be:	ef 70       	andi	r30, 0x0F	; 15
    31c0:	e8 30       	cpi	r30, 0x08	; 8
    31c2:	58 f4       	brcc	.+22     	; 0x31da <datalogger_init+0x468>
    31c4:	94 e0       	ldi	r25, 0x04	; 4
    31c6:	e9 9f       	mul	r30, r25
    31c8:	f0 01       	movw	r30, r0
    31ca:	11 24       	eor	r1, r1
    31cc:	ea 53       	subi	r30, 0x3A	; 58
    31ce:	ff 4d       	sbci	r31, 0xDF	; 223
    31d0:	80 81       	ld	r24, Z
    31d2:	91 81       	ldd	r25, Z+1	; 0x01
    31d4:	a2 81       	ldd	r26, Z+2	; 0x02
    31d6:	b3 81       	ldd	r27, Z+3	; 0x03
    31d8:	03 c0       	rjmp	.+6      	; 0x31e0 <datalogger_init+0x46e>
    31da:	80 e0       	ldi	r24, 0x00	; 0
    31dc:	90 e0       	ldi	r25, 0x00	; 0
    31de:	dc 01       	movw	r26, r24
    31e0:	bf 93       	push	r27
    31e2:	af 93       	push	r26
    31e4:	9f 93       	push	r25
    31e6:	8f 93       	push	r24
    31e8:	81 e0       	ldi	r24, 0x01	; 1
    31ea:	93 e0       	ldi	r25, 0x03	; 3
    31ec:	9f 93       	push	r25
    31ee:	8f 93       	push	r24
    31f0:	8e 01       	movw	r16, r28
    31f2:	0f 5f       	subi	r16, 0xFF	; 255
    31f4:	1f 4f       	sbci	r17, 0xFF	; 255
    31f6:	1f 93       	push	r17
    31f8:	0f 93       	push	r16
    31fa:	0e 94 93 49 	call	0x9326	; 0x9326 <sprintf_P>
    31fe:	40 e0       	ldi	r20, 0x00	; 0
    3200:	b8 01       	movw	r22, r16
    3202:	81 e0       	ldi	r24, 0x01	; 1
    3204:	0e 94 12 2f 	call	0x5e24	; 0x5e24 <debug_string>
    3208:	89 e9       	ldi	r24, 0x99	; 153
    320a:	94 e1       	ldi	r25, 0x14	; 20
    320c:	0e 94 fd 34 	call	0x69fa	; 0x69fa <rtc_set_callback>
    3210:	0e 94 dc 34 	call	0x69b8	; 0x69b8 <rtc_get_time>
    3214:	6b 5f       	subi	r22, 0xFB	; 251
    3216:	7f 4f       	sbci	r23, 0xFF	; 255
    3218:	8f 4f       	sbci	r24, 0xFF	; 255
    321a:	9f 4f       	sbci	r25, 0xFF	; 255
    321c:	0e 94 f2 34 	call	0x69e4	; 0x69e4 <rtc_set_alarm>
    3220:	8a e0       	ldi	r24, 0x0A	; 10
    3222:	0e 94 f2 2e 	call	0x5de4	; 0x5de4 <wdt_set_timeout_period>
    3226:	0e 94 fe 2e 	call	0x5dfc	; 0x5dfc <wdt_enable>
    322a:	cd bf       	out	0x3d, r28	; 61
    322c:	de bf       	out	0x3e, r29	; 62
    322e:	80 e0       	ldi	r24, 0x00	; 0
    3230:	c5 5b       	subi	r28, 0xB5	; 181
    3232:	df 4f       	sbci	r29, 0xFF	; 255
    3234:	cd bf       	out	0x3d, r28	; 61
    3236:	de bf       	out	0x3e, r29	; 62
    3238:	df 91       	pop	r29
    323a:	cf 91       	pop	r28
    323c:	1f 91       	pop	r17
    323e:	0f 91       	pop	r16
    3240:	ff 90       	pop	r15
    3242:	ef 90       	pop	r14
    3244:	df 90       	pop	r13
    3246:	cf 90       	pop	r12
    3248:	bf 90       	pop	r11
    324a:	af 90       	pop	r10
    324c:	9f 90       	pop	r9
    324e:	8f 90       	pop	r8
    3250:	08 95       	ret

00003252 <dl_task_send_data_prepare_RT>:
    3252:	ff 92       	push	r15
    3254:	0f 93       	push	r16
    3256:	1f 93       	push	r17
    3258:	cf 93       	push	r28
    325a:	df 93       	push	r29
    325c:	1f 92       	push	r1
    325e:	1f 92       	push	r1
    3260:	cd b7       	in	r28, 0x3d	; 61
    3262:	de b7       	in	r29, 0x3e	; 62
    3264:	72 e0       	ldi	r23, 0x02	; 2
    3266:	f7 2e       	mov	r15, r23
    3268:	f0 92 a5 22 	sts	0x22A5, r15
    326c:	86 e1       	ldi	r24, 0x16	; 22
    326e:	95 e0       	ldi	r25, 0x05	; 5
    3270:	89 83       	std	Y+1, r24	; 0x01
    3272:	9a 83       	std	Y+2, r25	; 0x02
    3274:	bc 01       	movw	r22, r24
    3276:	82 e0       	ldi	r24, 0x02	; 2
    3278:	0e 94 67 2f 	call	0x5ece	; 0x5ece <debug_function_in_name_print_P>
    327c:	1c db       	rcall	.-2504   	; 0x28b6 <dl_task_cmd_check_prepare>
    327e:	8c 01       	movw	r16, r24
    3280:	00 97       	sbiw	r24, 0x00	; 0
    3282:	19 f5       	brne	.+70     	; 0x32ca <dl_task_send_data_prepare_RT+0x78>
    3284:	f0 92 10 20 	sts	0x2010, r15
    3288:	80 91 bb 22 	lds	r24, 0x22BB
    328c:	90 91 bc 22 	lds	r25, 0x22BC
    3290:	a0 91 bd 22 	lds	r26, 0x22BD
    3294:	b0 91 be 22 	lds	r27, 0x22BE
    3298:	80 93 c9 22 	sts	0x22C9, r24
    329c:	90 93 ca 22 	sts	0x22CA, r25
    32a0:	a0 93 cb 22 	sts	0x22CB, r26
    32a4:	b0 93 cc 22 	sts	0x22CC, r27
    32a8:	0e 94 dc 34 	call	0x69b8	; 0x69b8 <rtc_get_time>
    32ac:	60 58       	subi	r22, 0x80	; 128
    32ae:	71 45       	sbci	r23, 0x51	; 81
    32b0:	81 40       	sbci	r24, 0x01	; 1
    32b2:	91 09       	sbc	r25, r1
    32b4:	60 93 cd 22 	sts	0x22CD, r22
    32b8:	70 93 ce 22 	sts	0x22CE, r23
    32bc:	80 93 cf 22 	sts	0x22CF, r24
    32c0:	90 93 d0 22 	sts	0x22D0, r25
    32c4:	81 e0       	ldi	r24, 0x01	; 1
    32c6:	80 93 d1 22 	sts	0x22D1, r24
    32ca:	10 92 a5 22 	sts	0x22A5, r1
    32ce:	ce 01       	movw	r24, r28
    32d0:	01 96       	adiw	r24, 0x01	; 1
    32d2:	0e 94 7a 2f 	call	0x5ef4	; 0x5ef4 <debug_function_out_name_print_P>
    32d6:	c8 01       	movw	r24, r16
    32d8:	0f 90       	pop	r0
    32da:	0f 90       	pop	r0
    32dc:	df 91       	pop	r29
    32de:	cf 91       	pop	r28
    32e0:	1f 91       	pop	r17
    32e2:	0f 91       	pop	r16
    32e4:	ff 90       	pop	r15
    32e6:	08 95       	ret

000032e8 <dl_task_cmd_check>:
    32e8:	2f 92       	push	r2
    32ea:	3f 92       	push	r3
    32ec:	4f 92       	push	r4
    32ee:	5f 92       	push	r5
    32f0:	6f 92       	push	r6
    32f2:	7f 92       	push	r7
    32f4:	8f 92       	push	r8
    32f6:	9f 92       	push	r9
    32f8:	af 92       	push	r10
    32fa:	bf 92       	push	r11
    32fc:	cf 92       	push	r12
    32fe:	df 92       	push	r13
    3300:	ef 92       	push	r14
    3302:	ff 92       	push	r15
    3304:	0f 93       	push	r16
    3306:	1f 93       	push	r17
    3308:	cf 93       	push	r28
    330a:	df 93       	push	r29
    330c:	cd b7       	in	r28, 0x3d	; 61
    330e:	de b7       	in	r29, 0x3e	; 62
    3310:	cb 5e       	subi	r28, 0xEB	; 235
    3312:	d1 09       	sbc	r29, r1
    3314:	cd bf       	out	0x3d, r28	; 61
    3316:	de bf       	out	0x3e, r29	; 62
    3318:	2d b7       	in	r18, 0x3d	; 61
    331a:	3e b7       	in	r19, 0x3e	; 62
    331c:	c7 51       	subi	r28, 0x17	; 23
    331e:	df 4f       	sbci	r29, 0xFF	; 255
    3320:	28 83       	st	Y, r18
    3322:	39 83       	std	Y+1, r19	; 0x01
    3324:	c9 5e       	subi	r28, 0xE9	; 233
    3326:	d0 40       	sbci	r29, 0x00	; 0
    3328:	82 e0       	ldi	r24, 0x02	; 2
    332a:	80 93 a6 22 	sts	0x22A6, r24
    332e:	86 ee       	ldi	r24, 0xE6	; 230
    3330:	90 e2       	ldi	r25, 0x20	; 32
    3332:	c0 52       	subi	r28, 0x20	; 32
    3334:	df 4f       	sbci	r29, 0xFF	; 255
    3336:	88 83       	st	Y, r24
    3338:	99 83       	std	Y+1, r25	; 0x01
    333a:	c0 5e       	subi	r28, 0xE0	; 224
    333c:	d0 40       	sbci	r29, 0x00	; 0
    333e:	bc 01       	movw	r22, r24
    3340:	82 e0       	ldi	r24, 0x02	; 2
    3342:	0e 94 52 2f 	call	0x5ea4	; 0x5ea4 <debug_function_in_name_print>
    3346:	b7 da       	rcall	.-2706   	; 0x28b6 <dl_task_cmd_check_prepare>
    3348:	8c 01       	movw	r16, r24
    334a:	00 97       	sbiw	r24, 0x00	; 0
    334c:	09 f0       	breq	.+2      	; 0x3350 <dl_task_cmd_check+0x68>
    334e:	2e c3       	rjmp	.+1628   	; 0x39ac <dl_task_cmd_check+0x6c4>
    3350:	3d b7       	in	r19, 0x3d	; 61
    3352:	c5 51       	subi	r28, 0x15	; 21
    3354:	df 4f       	sbci	r29, 0xFF	; 255
    3356:	38 83       	st	Y, r19
    3358:	cb 5e       	subi	r28, 0xEB	; 235
    335a:	d0 40       	sbci	r29, 0x00	; 0
    335c:	6e b6       	in	r6, 0x3e	; 62
    335e:	88 ef       	ldi	r24, 0xF8	; 248
    3360:	90 e2       	ldi	r25, 0x20	; 32
    3362:	c2 52       	subi	r28, 0x22	; 34
    3364:	df 4f       	sbci	r29, 0xFF	; 255
    3366:	88 83       	st	Y, r24
    3368:	99 83       	std	Y+1, r25	; 0x01
    336a:	ce 5d       	subi	r28, 0xDE	; 222
    336c:	d0 40       	sbci	r29, 0x00	; 0
    336e:	bc 01       	movw	r22, r24
    3370:	82 e0       	ldi	r24, 0x02	; 2
    3372:	0e 94 52 2f 	call	0x5ea4	; 0x5ea4 <debug_function_in_name_print>
    3376:	4d b7       	in	r20, 0x3d	; 61
    3378:	5e b7       	in	r21, 0x3e	; 62
    337a:	5a 95       	dec	r21
    337c:	4d bf       	out	0x3d, r20	; 61
    337e:	5e bf       	out	0x3e, r21	; 62
    3380:	0d b7       	in	r16, 0x3d	; 61
    3382:	1e b7       	in	r17, 0x3e	; 62
    3384:	0f 5f       	subi	r16, 0xFF	; 255
    3386:	1f 4f       	sbci	r17, 0xFF	; 255
    3388:	60 e4       	ldi	r22, 0x40	; 64
    338a:	c8 01       	movw	r24, r16
    338c:	0e 94 2c 10 	call	0x2058	; 0x2058 <cfg_get_service_url_send>
    3390:	60 e4       	ldi	r22, 0x40	; 64
    3392:	70 e0       	ldi	r23, 0x00	; 0
    3394:	c8 01       	movw	r24, r16
    3396:	0e 94 33 49 	call	0x9266	; 0x9266 <strnlen>
    339a:	b8 2e       	mov	r11, r24
    339c:	ba 94       	dec	r11
    339e:	2b 2d       	mov	r18, r11
    33a0:	30 e0       	ldi	r19, 0x00	; 0
    33a2:	78 01       	movw	r14, r16
    33a4:	e2 0e       	add	r14, r18
    33a6:	f3 1e       	adc	r15, r19
    33a8:	43 e3       	ldi	r20, 0x33	; 51
    33aa:	55 e0       	ldi	r21, 0x05	; 5
    33ac:	5f 93       	push	r21
    33ae:	4f 93       	push	r20
    33b0:	c1 2c       	mov	r12, r1
    33b2:	dd 24       	eor	r13, r13
    33b4:	d3 94       	inc	r13
    33b6:	c6 01       	movw	r24, r12
    33b8:	82 1b       	sub	r24, r18
    33ba:	93 0b       	sbc	r25, r19
    33bc:	9c 01       	movw	r18, r24
    33be:	3f 93       	push	r19
    33c0:	8f 93       	push	r24
    33c2:	ff 92       	push	r15
    33c4:	ef 92       	push	r14
    33c6:	0e 94 5d 49 	call	0x92ba	; 0x92ba <snprintf_P>
    33ca:	60 e4       	ldi	r22, 0x40	; 64
    33cc:	70 e0       	ldi	r23, 0x00	; 0
    33ce:	c7 01       	movw	r24, r14
    33d0:	0e 94 33 49 	call	0x9266	; 0x9266 <strnlen>
    33d4:	b8 0e       	add	r11, r24
    33d6:	78 01       	movw	r14, r16
    33d8:	eb 0c       	add	r14, r11
    33da:	f1 1c       	adc	r15, r1
    33dc:	60 e4       	ldi	r22, 0x40	; 64
    33de:	c7 01       	movw	r24, r14
    33e0:	0e 94 24 10 	call	0x2048	; 0x2048 <cfg_get_aws_id>
    33e4:	60 e4       	ldi	r22, 0x40	; 64
    33e6:	70 e0       	ldi	r23, 0x00	; 0
    33e8:	c7 01       	movw	r24, r14
    33ea:	0e 94 33 49 	call	0x9266	; 0x9266 <strnlen>
    33ee:	8b 0d       	add	r24, r11
    33f0:	90 e0       	ldi	r25, 0x00	; 0
    33f2:	23 e4       	ldi	r18, 0x43	; 67
    33f4:	35 e0       	ldi	r19, 0x05	; 5
    33f6:	3f 93       	push	r19
    33f8:	2f 93       	push	r18
    33fa:	c8 1a       	sub	r12, r24
    33fc:	d9 0a       	sbc	r13, r25
    33fe:	df 92       	push	r13
    3400:	cf 92       	push	r12
    3402:	80 0f       	add	r24, r16
    3404:	91 1f       	adc	r25, r17
    3406:	9f 93       	push	r25
    3408:	8f 93       	push	r24
    340a:	0e 94 5d 49 	call	0x92ba	; 0x92ba <snprintf_P>
    340e:	8c e3       	ldi	r24, 0x3C	; 60
    3410:	ce 51       	subi	r28, 0x1E	; 30
    3412:	df 4f       	sbci	r29, 0xFF	; 255
    3414:	88 83       	st	Y, r24
    3416:	c2 5e       	subi	r28, 0xE2	; 226
    3418:	d0 40       	sbci	r29, 0x00	; 0
    341a:	9e 01       	movw	r18, r28
    341c:	2e 51       	subi	r18, 0x1E	; 30
    341e:	3f 4f       	sbci	r19, 0xFF	; 255
    3420:	ae 01       	movw	r20, r28
    3422:	4f 57       	subi	r20, 0x7F	; 127
    3424:	5f 4f       	sbci	r21, 0xFF	; 255
    3426:	60 e0       	ldi	r22, 0x00	; 0
    3428:	c8 01       	movw	r24, r16
    342a:	0e 94 54 2a 	call	0x54a8	; 0x54a8 <sim900_http_get>
    342e:	8c 01       	movw	r16, r24
    3430:	0e 94 1f 2c 	call	0x583e	; 0x583e <sim900_http_close>
    3434:	ad b7       	in	r26, 0x3d	; 61
    3436:	be b7       	in	r27, 0x3e	; 62
    3438:	1c 96       	adiw	r26, 0x0c	; 12
    343a:	ad bf       	out	0x3d, r26	; 61
    343c:	be bf       	out	0x3e, r27	; 62
    343e:	01 15       	cp	r16, r1
    3440:	11 05       	cpc	r17, r1
    3442:	09 f0       	breq	.+2      	; 0x3446 <dl_task_cmd_check+0x15e>
    3444:	9e c2       	rjmp	.+1340   	; 0x3982 <dl_task_cmd_check+0x69a>
    3446:	8c e0       	ldi	r24, 0x0C	; 12
    3448:	91 e2       	ldi	r25, 0x21	; 33
    344a:	c4 52       	subi	r28, 0x24	; 36
    344c:	df 4f       	sbci	r29, 0xFF	; 255
    344e:	88 83       	st	Y, r24
    3450:	99 83       	std	Y+1, r25	; 0x01
    3452:	cc 5d       	subi	r28, 0xDC	; 220
    3454:	d0 40       	sbci	r29, 0x00	; 0
    3456:	bc 01       	movw	r22, r24
    3458:	82 e0       	ldi	r24, 0x02	; 2
    345a:	0e 94 52 2f 	call	0x5ea4	; 0x5ea4 <debug_function_in_name_print>
    345e:	42 e0       	ldi	r20, 0x02	; 2
    3460:	50 e0       	ldi	r21, 0x00	; 0
    3462:	6e e4       	ldi	r22, 0x4E	; 78
    3464:	75 e0       	ldi	r23, 0x05	; 5
    3466:	ce 01       	movw	r24, r28
    3468:	8f 57       	subi	r24, 0x7F	; 127
    346a:	9f 4f       	sbci	r25, 0xFF	; 255
    346c:	0e 94 12 49 	call	0x9224	; 0x9224 <strncasecmp_P>
    3470:	89 2b       	or	r24, r25
    3472:	31 f4       	brne	.+12     	; 0x3480 <dl_task_cmd_check+0x198>
    3474:	61 e5       	ldi	r22, 0x51	; 81
    3476:	75 e0       	ldi	r23, 0x05	; 5
    3478:	82 e0       	ldi	r24, 0x02	; 2
    347a:	0e 94 3c 2f 	call	0x5e78	; 0x5e78 <debug_string_P>
    347e:	7c c2       	rjmp	.+1272   	; 0x3978 <dl_task_cmd_check+0x690>
    3480:	42 e1       	ldi	r20, 0x12	; 18
    3482:	50 e0       	ldi	r21, 0x00	; 0
    3484:	6b e5       	ldi	r22, 0x5B	; 91
    3486:	75 e0       	ldi	r23, 0x05	; 5
    3488:	ce 01       	movw	r24, r28
    348a:	8f 57       	subi	r24, 0x7F	; 127
    348c:	9f 4f       	sbci	r25, 0xFF	; 255
    348e:	0e 94 12 49 	call	0x9224	; 0x9224 <strncasecmp_P>
    3492:	89 2b       	or	r24, r25
    3494:	09 f0       	breq	.+2      	; 0x3498 <dl_task_cmd_check+0x1b0>
    3496:	49 c2       	rjmp	.+1170   	; 0x392a <dl_task_cmd_check+0x642>
    3498:	40 e0       	ldi	r20, 0x00	; 0
    349a:	50 e0       	ldi	r21, 0x00	; 0
    349c:	be 01       	movw	r22, r28
    349e:	66 52       	subi	r22, 0x26	; 38
    34a0:	7f 4f       	sbci	r23, 0xFF	; 255
    34a2:	81 e8       	ldi	r24, 0x81	; 129
    34a4:	90 e0       	ldi	r25, 0x00	; 0
    34a6:	8c 0f       	add	r24, r28
    34a8:	9d 1f       	adc	r25, r29
    34aa:	42 96       	adiw	r24, 0x12	; 18
    34ac:	0e 94 03 48 	call	0x9006	; 0x9006 <strtoul>
    34b0:	a6 2e       	mov	r10, r22
    34b2:	97 2e       	mov	r9, r23
    34b4:	88 2e       	mov	r8, r24
    34b6:	79 2e       	mov	r7, r25
    34b8:	c6 52       	subi	r28, 0x26	; 38
    34ba:	df 4f       	sbci	r29, 0xFF	; 255
    34bc:	88 81       	ld	r24, Y
    34be:	99 81       	ldd	r25, Y+1	; 0x01
    34c0:	ca 5d       	subi	r28, 0xDA	; 218
    34c2:	d0 40       	sbci	r29, 0x00	; 0
    34c4:	40 e0       	ldi	r20, 0x00	; 0
    34c6:	50 e0       	ldi	r21, 0x00	; 0
    34c8:	60 e0       	ldi	r22, 0x00	; 0
    34ca:	70 e0       	ldi	r23, 0x00	; 0
    34cc:	01 96       	adiw	r24, 0x01	; 1
    34ce:	0e 94 03 48 	call	0x9006	; 0x9006 <strtoul>
    34d2:	6b 01       	movw	r12, r22
    34d4:	7c 01       	movw	r14, r24
    34d6:	80 91 18 20 	lds	r24, 0x2018
    34da:	82 30       	cpi	r24, 0x02	; 2
    34dc:	10 f1       	brcs	.+68     	; 0x3522 <dl_task_cmd_check+0x23a>
    34de:	6e e6       	ldi	r22, 0x6E	; 110
    34e0:	75 e0       	ldi	r23, 0x05	; 5
    34e2:	82 e0       	ldi	r24, 0x02	; 2
    34e4:	0e 94 3c 2f 	call	0x5e78	; 0x5e78 <debug_string_P>
    34e8:	ff 92       	push	r15
    34ea:	ef 92       	push	r14
    34ec:	df 92       	push	r13
    34ee:	cf 92       	push	r12
    34f0:	7f 92       	push	r7
    34f2:	8f 92       	push	r8
    34f4:	9f 92       	push	r9
    34f6:	af 92       	push	r10
    34f8:	8d e8       	ldi	r24, 0x8D	; 141
    34fa:	95 e0       	ldi	r25, 0x05	; 5
    34fc:	9f 93       	push	r25
    34fe:	8f 93       	push	r24
    3500:	8e 01       	movw	r16, r28
    3502:	0f 5f       	subi	r16, 0xFF	; 255
    3504:	1f 4f       	sbci	r17, 0xFF	; 255
    3506:	1f 93       	push	r17
    3508:	0f 93       	push	r16
    350a:	0e 94 93 49 	call	0x9326	; 0x9326 <sprintf_P>
    350e:	40 e0       	ldi	r20, 0x00	; 0
    3510:	b8 01       	movw	r22, r16
    3512:	82 e0       	ldi	r24, 0x02	; 2
    3514:	0e 94 12 2f 	call	0x5e24	; 0x5e24 <debug_string>
    3518:	ed b7       	in	r30, 0x3d	; 61
    351a:	fe b7       	in	r31, 0x3e	; 62
    351c:	3c 96       	adiw	r30, 0x0c	; 12
    351e:	ed bf       	out	0x3d, r30	; 61
    3520:	fe bf       	out	0x3e, r31	; 62
    3522:	84 e2       	ldi	r24, 0x24	; 36
    3524:	96 e0       	ldi	r25, 0x06	; 6
    3526:	c8 52       	subi	r28, 0x28	; 40
    3528:	df 4f       	sbci	r29, 0xFF	; 255
    352a:	88 83       	st	Y, r24
    352c:	99 83       	std	Y+1, r25	; 0x01
    352e:	c8 5d       	subi	r28, 0xD8	; 216
    3530:	d0 40       	sbci	r29, 0x00	; 0
    3532:	bc 01       	movw	r22, r24
    3534:	82 e0       	ldi	r24, 0x02	; 2
    3536:	0e 94 67 2f 	call	0x5ece	; 0x5ece <debug_function_in_name_print_P>
    353a:	8d e3       	ldi	r24, 0x3D	; 61
    353c:	96 e0       	ldi	r25, 0x06	; 6
    353e:	ca 52       	subi	r28, 0x2A	; 42
    3540:	df 4f       	sbci	r29, 0xFF	; 255
    3542:	88 83       	st	Y, r24
    3544:	99 83       	std	Y+1, r25	; 0x01
    3546:	c6 5d       	subi	r28, 0xD6	; 214
    3548:	d0 40       	sbci	r29, 0x00	; 0
    354a:	bc 01       	movw	r22, r24
    354c:	82 e0       	ldi	r24, 0x02	; 2
    354e:	0e 94 67 2f 	call	0x5ece	; 0x5ece <debug_function_in_name_print_P>
    3552:	40 91 bb 22 	lds	r20, 0x22BB
    3556:	50 91 bc 22 	lds	r21, 0x22BC
    355a:	60 91 bd 22 	lds	r22, 0x22BD
    355e:	70 91 be 22 	lds	r23, 0x22BE
    3562:	80 91 b7 22 	lds	r24, 0x22B7
    3566:	90 91 b8 22 	lds	r25, 0x22B8
    356a:	a0 91 b9 22 	lds	r26, 0x22B9
    356e:	b0 91 ba 22 	lds	r27, 0x22BA
    3572:	48 17       	cp	r20, r24
    3574:	59 07       	cpc	r21, r25
    3576:	6a 07       	cpc	r22, r26
    3578:	7b 07       	cpc	r23, r27
    357a:	51 f4       	brne	.+20     	; 0x3590 <dl_task_cmd_check+0x2a8>
    357c:	66 e5       	ldi	r22, 0x56	; 86
    357e:	76 e0       	ldi	r23, 0x06	; 6
    3580:	81 e0       	ldi	r24, 0x01	; 1
    3582:	0e 94 3c 2f 	call	0x5e78	; 0x5e78 <debug_string_P>
    3586:	c1 2c       	mov	r12, r1
    3588:	d1 2c       	mov	r13, r1
    358a:	76 01       	movw	r14, r12
    358c:	01 e0       	ldi	r16, 0x01	; 1
    358e:	a9 c1       	rjmp	.+850    	; 0x38e2 <dl_task_cmd_check+0x5fa>
    3590:	69 d6       	rcall	.+3282   	; 0x4264 <AT24CXX_Init>
    3592:	89 2b       	or	r24, r25
    3594:	51 f0       	breq	.+20     	; 0x35aa <dl_task_cmd_check+0x2c2>
    3596:	6a e9       	ldi	r22, 0x9A	; 154
    3598:	76 e0       	ldi	r23, 0x06	; 6
    359a:	81 e0       	ldi	r24, 0x01	; 1
    359c:	0e 94 3c 2f 	call	0x5e78	; 0x5e78 <debug_string_P>
    35a0:	c1 2c       	mov	r12, r1
    35a2:	d1 2c       	mov	r13, r1
    35a4:	76 01       	movw	r14, r12
    35a6:	0f ef       	ldi	r16, 0xFF	; 255
    35a8:	9c c1       	rjmp	.+824    	; 0x38e2 <dl_task_cmd_check+0x5fa>
    35aa:	8e 01       	movw	r16, r28
    35ac:	0e 52       	subi	r16, 0x2E	; 46
    35ae:	1f 4f       	sbci	r17, 0xFF	; 255
    35b0:	80 91 bb 22 	lds	r24, 0x22BB
    35b4:	90 91 bc 22 	lds	r25, 0x22BC
    35b8:	a0 91 bd 22 	lds	r26, 0x22BD
    35bc:	b0 91 be 22 	lds	r27, 0x22BE
    35c0:	f8 01       	movw	r30, r16
    35c2:	80 83       	st	Z, r24
    35c4:	91 83       	std	Z+1, r25	; 0x01
    35c6:	a2 83       	std	Z+2, r26	; 0x02
    35c8:	b3 83       	std	Z+3, r27	; 0x03
    35ca:	61 e0       	ldi	r22, 0x01	; 1
    35cc:	70 e0       	ldi	r23, 0x00	; 0
    35ce:	c8 01       	movw	r24, r16
    35d0:	0e 94 0e 11 	call	0x221c	; 0x221c <dl_iterator_moveback>
    35d4:	51 2c       	mov	r5, r1
    35d6:	e0 e8       	ldi	r30, 0x80	; 128
    35d8:	be 2e       	mov	r11, r30
    35da:	9e 01       	movw	r18, r28
    35dc:	2f 5f       	subi	r18, 0xFF	; 255
    35de:	3f 4f       	sbci	r19, 0xFF	; 255
    35e0:	cd 51       	subi	r28, 0x1D	; 29
    35e2:	df 4f       	sbci	r29, 0xFF	; 255
    35e4:	28 83       	st	Y, r18
    35e6:	39 83       	std	Y+1, r19	; 0x01
    35e8:	c3 5e       	subi	r28, 0xE3	; 227
    35ea:	d0 40       	sbci	r29, 0x00	; 0
    35ec:	be 01       	movw	r22, r28
    35ee:	6f 53       	subi	r22, 0x3F	; 63
    35f0:	7f 4f       	sbci	r23, 0xFF	; 255
    35f2:	c8 01       	movw	r24, r16
    35f4:	0e 94 d9 10 	call	0x21b2	; 0x21b2 <dl_get_record>
    35f8:	88 23       	and	r24, r24
    35fa:	29 f0       	breq	.+10     	; 0x3606 <dl_task_cmd_check+0x31e>
    35fc:	c1 2c       	mov	r12, r1
    35fe:	d1 2c       	mov	r13, r1
    3600:	76 01       	movw	r14, r12
    3602:	01 e0       	ldi	r16, 0x01	; 1
    3604:	6e c1       	rjmp	.+732    	; 0x38e2 <dl_task_cmd_check+0x5fa>
    3606:	80 91 18 20 	lds	r24, 0x2018
    360a:	82 30       	cpi	r24, 0x02	; 2
    360c:	d0 f1       	brcs	.+116    	; 0x3682 <dl_task_cmd_check+0x39a>
    360e:	cc 53       	subi	r28, 0x3C	; 60
    3610:	df 4f       	sbci	r29, 0xFF	; 255
    3612:	88 81       	ld	r24, Y
    3614:	c4 5c       	subi	r28, 0xC4	; 196
    3616:	d0 40       	sbci	r29, 0x00	; 0
    3618:	8f 93       	push	r24
    361a:	cd 53       	subi	r28, 0x3D	; 61
    361c:	df 4f       	sbci	r29, 0xFF	; 255
    361e:	88 81       	ld	r24, Y
    3620:	c3 5c       	subi	r28, 0xC3	; 195
    3622:	d0 40       	sbci	r29, 0x00	; 0
    3624:	8f 93       	push	r24
    3626:	ce 53       	subi	r28, 0x3E	; 62
    3628:	df 4f       	sbci	r29, 0xFF	; 255
    362a:	88 81       	ld	r24, Y
    362c:	c2 5c       	subi	r28, 0xC2	; 194
    362e:	d0 40       	sbci	r29, 0x00	; 0
    3630:	8f 93       	push	r24
    3632:	cf 53       	subi	r28, 0x3F	; 63
    3634:	df 4f       	sbci	r29, 0xFF	; 255
    3636:	88 81       	ld	r24, Y
    3638:	c1 5c       	subi	r28, 0xC1	; 193
    363a:	d0 40       	sbci	r29, 0x00	; 0
    363c:	8f 93       	push	r24
    363e:	ff 92       	push	r15
    3640:	ef 92       	push	r14
    3642:	df 92       	push	r13
    3644:	cf 92       	push	r12
    3646:	43 ee       	ldi	r20, 0xE3	; 227
    3648:	56 e0       	ldi	r21, 0x06	; 6
    364a:	5f 93       	push	r21
    364c:	4f 93       	push	r20
    364e:	cc 51       	subi	r28, 0x1C	; 28
    3650:	df 4f       	sbci	r29, 0xFF	; 255
    3652:	98 81       	ld	r25, Y
    3654:	c4 5e       	subi	r28, 0xE4	; 228
    3656:	d0 40       	sbci	r29, 0x00	; 0
    3658:	9f 93       	push	r25
    365a:	cd 51       	subi	r28, 0x1D	; 29
    365c:	df 4f       	sbci	r29, 0xFF	; 255
    365e:	a8 81       	ld	r26, Y
    3660:	c3 5e       	subi	r28, 0xE3	; 227
    3662:	d0 40       	sbci	r29, 0x00	; 0
    3664:	af 93       	push	r26
    3666:	0e 94 93 49 	call	0x9326	; 0x9326 <sprintf_P>
    366a:	40 e0       	ldi	r20, 0x00	; 0
    366c:	be 01       	movw	r22, r28
    366e:	6f 5f       	subi	r22, 0xFF	; 255
    3670:	7f 4f       	sbci	r23, 0xFF	; 255
    3672:	81 e0       	ldi	r24, 0x01	; 1
    3674:	0e 94 12 2f 	call	0x5e24	; 0x5e24 <debug_string>
    3678:	ed b7       	in	r30, 0x3d	; 61
    367a:	fe b7       	in	r31, 0x3e	; 62
    367c:	3c 96       	adiw	r30, 0x0c	; 12
    367e:	ed bf       	out	0x3d, r30	; 61
    3680:	fe bf       	out	0x3e, r31	; 62
    3682:	cf 53       	subi	r28, 0x3F	; 63
    3684:	df 4f       	sbci	r29, 0xFF	; 255
    3686:	88 81       	ld	r24, Y
    3688:	99 81       	ldd	r25, Y+1	; 0x01
    368a:	aa 81       	ldd	r26, Y+2	; 0x02
    368c:	bb 81       	ldd	r27, Y+3	; 0x03
    368e:	c1 5c       	subi	r28, 0xC1	; 193
    3690:	d0 40       	sbci	r29, 0x00	; 0
    3692:	51 10       	cpse	r5, r1
    3694:	13 c0       	rjmp	.+38     	; 0x36bc <dl_task_cmd_check+0x3d4>
    3696:	8c 15       	cp	r24, r12
    3698:	9d 05       	cpc	r25, r13
    369a:	ae 05       	cpc	r26, r14
    369c:	bf 05       	cpc	r27, r15
    369e:	38 f4       	brcc	.+14     	; 0x36ae <dl_task_cmd_check+0x3c6>
    36a0:	69 e0       	ldi	r22, 0x09	; 9
    36a2:	77 e0       	ldi	r23, 0x07	; 7
    36a4:	82 e0       	ldi	r24, 0x02	; 2
    36a6:	0e 94 3c 2f 	call	0x5e78	; 0x5e78 <debug_string_P>
    36aa:	b6 94       	lsr	r11
    36ac:	79 c1       	rjmp	.+754    	; 0x39a0 <dl_task_cmd_check+0x6b8>
    36ae:	8c 15       	cp	r24, r12
    36b0:	9d 05       	cpc	r25, r13
    36b2:	ae 05       	cpc	r26, r14
    36b4:	bf 05       	cpc	r27, r15
    36b6:	09 f0       	breq	.+2      	; 0x36ba <dl_task_cmd_check+0x3d2>
    36b8:	76 c1       	rjmp	.+748    	; 0x39a6 <dl_task_cmd_check+0x6be>
    36ba:	b1 c0       	rjmp	.+354    	; 0x381e <dl_task_cmd_check+0x536>
    36bc:	8c 15       	cp	r24, r12
    36be:	9d 05       	cpc	r25, r13
    36c0:	ae 05       	cpc	r26, r14
    36c2:	bf 05       	cpc	r27, r15
    36c4:	09 f4       	brne	.+2      	; 0x36c8 <dl_task_cmd_check+0x3e0>
    36c6:	ab c0       	rjmp	.+342    	; 0x381e <dl_task_cmd_check+0x536>
    36c8:	c8 16       	cp	r12, r24
    36ca:	d9 06       	cpc	r13, r25
    36cc:	ea 06       	cpc	r14, r26
    36ce:	fb 06       	cpc	r15, r27
    36d0:	08 f0       	brcs	.+2      	; 0x36d4 <dl_task_cmd_check+0x3ec>
    36d2:	66 c1       	rjmp	.+716    	; 0x39a0 <dl_task_cmd_check+0x6b8>
    36d4:	6a e2       	ldi	r22, 0x2A	; 42
    36d6:	77 e0       	ldi	r23, 0x07	; 7
    36d8:	82 e0       	ldi	r24, 0x02	; 2
    36da:	0e 94 3c 2f 	call	0x5e78	; 0x5e78 <debug_string_P>
    36de:	b6 94       	lsr	r11
    36e0:	62 c1       	rjmp	.+708    	; 0x39a6 <dl_task_cmd_check+0x6be>
    36e2:	f8 01       	movw	r30, r16
    36e4:	80 81       	ld	r24, Z
    36e6:	91 81       	ldd	r25, Z+1	; 0x01
    36e8:	a2 81       	ldd	r26, Z+2	; 0x02
    36ea:	b3 81       	ldd	r27, Z+3	; 0x03
    36ec:	81 15       	cp	r24, r1
    36ee:	91 40       	sbci	r25, 0x01	; 1
    36f0:	a1 05       	cpc	r26, r1
    36f2:	b1 05       	cpc	r27, r1
    36f4:	31 f4       	brne	.+12     	; 0x3702 <dl_task_cmd_check+0x41a>
    36f6:	6b e4       	ldi	r22, 0x4B	; 75
    36f8:	77 e0       	ldi	r23, 0x07	; 7
    36fa:	82 e0       	ldi	r24, 0x02	; 2
    36fc:	0e 94 3c 2f 	call	0x5e78	; 0x5e78 <debug_string_P>
    3700:	8e c0       	rjmp	.+284    	; 0x381e <dl_task_cmd_check+0x536>
    3702:	6b 2d       	mov	r22, r11
    3704:	70 e0       	ldi	r23, 0x00	; 0
    3706:	c8 01       	movw	r24, r16
    3708:	0e 94 0e 11 	call	0x221c	; 0x221c <dl_iterator_moveback>
    370c:	51 2c       	mov	r5, r1
    370e:	6e cf       	rjmp	.-292    	; 0x35ec <dl_task_cmd_check+0x304>
    3710:	d8 01       	movw	r26, r16
    3712:	2d 90       	ld	r2, X+
    3714:	3d 90       	ld	r3, X+
    3716:	4d 90       	ld	r4, X+
    3718:	5c 90       	ld	r5, X
    371a:	21 14       	cp	r2, r1
    371c:	31 04       	cpc	r3, r1
    371e:	b8 e0       	ldi	r27, 0x08	; 8
    3720:	4b 06       	cpc	r4, r27
    3722:	51 04       	cpc	r5, r1
    3724:	31 f4       	brne	.+12     	; 0x3732 <dl_task_cmd_check+0x44a>
    3726:	6d e6       	ldi	r22, 0x6D	; 109
    3728:	77 e0       	ldi	r23, 0x07	; 7
    372a:	82 e0       	ldi	r24, 0x02	; 2
    372c:	0e 94 3c 2f 	call	0x5e78	; 0x5e78 <debug_string_P>
    3730:	76 c0       	rjmp	.+236    	; 0x381e <dl_task_cmd_check+0x536>
    3732:	e1 e1       	ldi	r30, 0x11	; 17
    3734:	be 9e       	mul	r11, r30
    3736:	90 01       	movw	r18, r0
    3738:	11 24       	eor	r1, r1
    373a:	a9 01       	movw	r20, r18
    373c:	60 e0       	ldi	r22, 0x00	; 0
    373e:	70 e0       	ldi	r23, 0x00	; 0
    3740:	80 e0       	ldi	r24, 0x00	; 0
    3742:	90 e0       	ldi	r25, 0x00	; 0
    3744:	a8 e0       	ldi	r26, 0x08	; 8
    3746:	b0 e0       	ldi	r27, 0x00	; 0
    3748:	84 1b       	sub	r24, r20
    374a:	95 0b       	sbc	r25, r21
    374c:	a6 0b       	sbc	r26, r22
    374e:	b7 0b       	sbc	r27, r23
    3750:	cb 51       	subi	r28, 0x1B	; 27
    3752:	df 4f       	sbci	r29, 0xFF	; 255
    3754:	88 83       	st	Y, r24
    3756:	99 83       	std	Y+1, r25	; 0x01
    3758:	aa 83       	std	Y+2, r26	; 0x02
    375a:	bb 83       	std	Y+3, r27	; 0x03
    375c:	c5 5e       	subi	r28, 0xE5	; 229
    375e:	d0 40       	sbci	r29, 0x00	; 0
    3760:	80 91 bb 22 	lds	r24, 0x22BB
    3764:	90 91 bc 22 	lds	r25, 0x22BC
    3768:	a0 91 bd 22 	lds	r26, 0x22BD
    376c:	b0 91 be 22 	lds	r27, 0x22BE
    3770:	82 19       	sub	r24, r2
    3772:	93 09       	sbc	r25, r3
    3774:	a4 09       	sbc	r26, r4
    3776:	b5 09       	sbc	r27, r5
    3778:	84 17       	cp	r24, r20
    377a:	95 07       	cpc	r25, r21
    377c:	a6 07       	cpc	r26, r22
    377e:	b7 07       	cpc	r27, r23
    3780:	ac f4       	brge	.+42     	; 0x37ac <dl_task_cmd_check+0x4c4>
    3782:	61 eb       	ldi	r22, 0xB1	; 177
    3784:	77 e0       	ldi	r23, 0x07	; 7
    3786:	81 e0       	ldi	r24, 0x01	; 1
    3788:	0e 94 3c 2f 	call	0x5e78	; 0x5e78 <debug_string_P>
    378c:	80 91 bb 22 	lds	r24, 0x22BB
    3790:	90 91 bc 22 	lds	r25, 0x22BC
    3794:	a0 91 bd 22 	lds	r26, 0x22BD
    3798:	b0 91 be 22 	lds	r27, 0x22BE
    379c:	f8 01       	movw	r30, r16
    379e:	80 83       	st	Z, r24
    37a0:	91 83       	std	Z+1, r25	; 0x01
    37a2:	a2 83       	std	Z+2, r26	; 0x02
    37a4:	b3 83       	std	Z+3, r27	; 0x03
    37a6:	55 24       	eor	r5, r5
    37a8:	53 94       	inc	r5
    37aa:	20 cf       	rjmp	.-448    	; 0x35ec <dl_task_cmd_check+0x304>
    37ac:	cb 51       	subi	r28, 0x1B	; 27
    37ae:	df 4f       	sbci	r29, 0xFF	; 255
    37b0:	88 81       	ld	r24, Y
    37b2:	99 81       	ldd	r25, Y+1	; 0x01
    37b4:	aa 81       	ldd	r26, Y+2	; 0x02
    37b6:	bb 81       	ldd	r27, Y+3	; 0x03
    37b8:	c5 5e       	subi	r28, 0xE5	; 229
    37ba:	d0 40       	sbci	r29, 0x00	; 0
    37bc:	82 15       	cp	r24, r2
    37be:	93 05       	cpc	r25, r3
    37c0:	a4 05       	cpc	r26, r4
    37c2:	b5 05       	cpc	r27, r5
    37c4:	f4 f4       	brge	.+60     	; 0x3802 <dl_task_cmd_check+0x51a>
    37c6:	6c ee       	ldi	r22, 0xEC	; 236
    37c8:	77 e0       	ldi	r23, 0x07	; 7
    37ca:	81 e0       	ldi	r24, 0x01	; 1
    37cc:	0e 94 3c 2f 	call	0x5e78	; 0x5e78 <debug_string_P>
    37d0:	d2 01       	movw	r26, r4
    37d2:	c1 01       	movw	r24, r2
    37d4:	cb 51       	subi	r28, 0x1B	; 27
    37d6:	df 4f       	sbci	r29, 0xFF	; 255
    37d8:	28 81       	ld	r18, Y
    37da:	39 81       	ldd	r19, Y+1	; 0x01
    37dc:	4a 81       	ldd	r20, Y+2	; 0x02
    37de:	5b 81       	ldd	r21, Y+3	; 0x03
    37e0:	c5 5e       	subi	r28, 0xE5	; 229
    37e2:	d0 40       	sbci	r29, 0x00	; 0
    37e4:	82 1b       	sub	r24, r18
    37e6:	93 0b       	sbc	r25, r19
    37e8:	a4 0b       	sbc	r26, r20
    37ea:	b5 0b       	sbc	r27, r21
    37ec:	9f 5f       	subi	r25, 0xFF	; 255
    37ee:	af 4f       	sbci	r26, 0xFF	; 255
    37f0:	bf 4f       	sbci	r27, 0xFF	; 255
    37f2:	f8 01       	movw	r30, r16
    37f4:	80 83       	st	Z, r24
    37f6:	91 83       	std	Z+1, r25	; 0x01
    37f8:	a2 83       	std	Z+2, r26	; 0x02
    37fa:	b3 83       	std	Z+3, r27	; 0x03
    37fc:	55 24       	eor	r5, r5
    37fe:	53 94       	inc	r5
    3800:	f5 ce       	rjmp	.-534    	; 0x35ec <dl_task_cmd_check+0x304>
    3802:	d2 01       	movw	r26, r4
    3804:	c1 01       	movw	r24, r2
    3806:	84 0f       	add	r24, r20
    3808:	95 1f       	adc	r25, r21
    380a:	a6 1f       	adc	r26, r22
    380c:	b7 1f       	adc	r27, r23
    380e:	f8 01       	movw	r30, r16
    3810:	80 83       	st	Z, r24
    3812:	91 83       	std	Z+1, r25	; 0x01
    3814:	a2 83       	std	Z+2, r26	; 0x02
    3816:	b3 83       	std	Z+3, r27	; 0x03
    3818:	55 24       	eor	r5, r5
    381a:	53 94       	inc	r5
    381c:	e7 ce       	rjmp	.-562    	; 0x35ec <dl_task_cmd_check+0x304>
    381e:	cf 53       	subi	r28, 0x3F	; 63
    3820:	df 4f       	sbci	r29, 0xFF	; 255
    3822:	88 81       	ld	r24, Y
    3824:	99 81       	ldd	r25, Y+1	; 0x01
    3826:	aa 81       	ldd	r26, Y+2	; 0x02
    3828:	bb 81       	ldd	r27, Y+3	; 0x03
    382a:	c1 5c       	subi	r28, 0xC1	; 193
    382c:	d0 40       	sbci	r29, 0x00	; 0
    382e:	8c 15       	cp	r24, r12
    3830:	9d 05       	cpc	r25, r13
    3832:	ae 05       	cpc	r26, r14
    3834:	bf 05       	cpc	r27, r15
    3836:	48 f4       	brcc	.+18     	; 0x384a <dl_task_cmd_check+0x562>
    3838:	ce 52       	subi	r28, 0x2E	; 46
    383a:	df 4f       	sbci	r29, 0xFF	; 255
    383c:	c8 80       	ld	r12, Y
    383e:	d9 80       	ldd	r13, Y+1	; 0x01
    3840:	ea 80       	ldd	r14, Y+2	; 0x02
    3842:	fb 80       	ldd	r15, Y+3	; 0x03
    3844:	c2 5d       	subi	r28, 0xD2	; 210
    3846:	d0 40       	sbci	r29, 0x00	; 0
    3848:	0e c0       	rjmp	.+28     	; 0x3866 <dl_task_cmd_check+0x57e>
    384a:	8c 15       	cp	r24, r12
    384c:	9d 05       	cpc	r25, r13
    384e:	ae 05       	cpc	r26, r14
    3850:	bf 05       	cpc	r27, r15
    3852:	91 f3       	breq	.-28     	; 0x3838 <dl_task_cmd_check+0x550>
    3854:	c8 16       	cp	r12, r24
    3856:	d9 06       	cpc	r13, r25
    3858:	ea 06       	cpc	r14, r26
    385a:	fb 06       	cpc	r15, r27
    385c:	08 f4       	brcc	.+2      	; 0x3860 <dl_task_cmd_check+0x578>
    385e:	ce ce       	rjmp	.-612    	; 0x35fc <dl_task_cmd_check+0x314>
    3860:	c1 2c       	mov	r12, r1
    3862:	d1 2c       	mov	r13, r1
    3864:	76 01       	movw	r14, r12
    3866:	80 91 18 20 	lds	r24, 0x2018
    386a:	88 23       	and	r24, r24
    386c:	c9 f1       	breq	.+114    	; 0x38e0 <dl_task_cmd_check+0x5f8>
    386e:	6e e8       	ldi	r22, 0x8E	; 142
    3870:	77 e0       	ldi	r23, 0x07	; 7
    3872:	81 e0       	ldi	r24, 0x01	; 1
    3874:	0e 94 3c 2f 	call	0x5e78	; 0x5e78 <debug_string_P>
    3878:	ce 01       	movw	r24, r28
    387a:	8e 52       	subi	r24, 0x2E	; 46
    387c:	9f 4f       	sbci	r25, 0xFF	; 255
    387e:	6f d5       	rcall	.+2782   	; 0x435e <AT24CXX_iterator_report>
    3880:	cc 53       	subi	r28, 0x3C	; 60
    3882:	df 4f       	sbci	r29, 0xFF	; 255
    3884:	88 81       	ld	r24, Y
    3886:	c4 5c       	subi	r28, 0xC4	; 196
    3888:	d0 40       	sbci	r29, 0x00	; 0
    388a:	8f 93       	push	r24
    388c:	cd 53       	subi	r28, 0x3D	; 61
    388e:	df 4f       	sbci	r29, 0xFF	; 255
    3890:	88 81       	ld	r24, Y
    3892:	c3 5c       	subi	r28, 0xC3	; 195
    3894:	d0 40       	sbci	r29, 0x00	; 0
    3896:	8f 93       	push	r24
    3898:	ce 53       	subi	r28, 0x3E	; 62
    389a:	df 4f       	sbci	r29, 0xFF	; 255
    389c:	88 81       	ld	r24, Y
    389e:	c2 5c       	subi	r28, 0xC2	; 194
    38a0:	d0 40       	sbci	r29, 0x00	; 0
    38a2:	8f 93       	push	r24
    38a4:	cf 53       	subi	r28, 0x3F	; 63
    38a6:	df 4f       	sbci	r29, 0xFF	; 255
    38a8:	88 81       	ld	r24, Y
    38aa:	c1 5c       	subi	r28, 0xC1	; 193
    38ac:	d0 40       	sbci	r29, 0x00	; 0
    38ae:	8f 93       	push	r24
    38b0:	8d e9       	ldi	r24, 0x9D	; 157
    38b2:	97 e0       	ldi	r25, 0x07	; 7
    38b4:	9f 93       	push	r25
    38b6:	8f 93       	push	r24
    38b8:	8e 01       	movw	r16, r28
    38ba:	0f 5f       	subi	r16, 0xFF	; 255
    38bc:	1f 4f       	sbci	r17, 0xFF	; 255
    38be:	1f 93       	push	r17
    38c0:	0f 93       	push	r16
    38c2:	0e 94 93 49 	call	0x9326	; 0x9326 <sprintf_P>
    38c6:	40 e0       	ldi	r20, 0x00	; 0
    38c8:	b8 01       	movw	r22, r16
    38ca:	81 e0       	ldi	r24, 0x01	; 1
    38cc:	0e 94 12 2f 	call	0x5e24	; 0x5e24 <debug_string>
    38d0:	2d b7       	in	r18, 0x3d	; 61
    38d2:	3e b7       	in	r19, 0x3e	; 62
    38d4:	28 5f       	subi	r18, 0xF8	; 248
    38d6:	3f 4f       	sbci	r19, 0xFF	; 255
    38d8:	2d bf       	out	0x3d, r18	; 61
    38da:	3e bf       	out	0x3e, r19	; 62
    38dc:	00 e0       	ldi	r16, 0x00	; 0
    38de:	01 c0       	rjmp	.+2      	; 0x38e2 <dl_task_cmd_check+0x5fa>
    38e0:	00 e0       	ldi	r16, 0x00	; 0
    38e2:	ce 01       	movw	r24, r28
    38e4:	8a 52       	subi	r24, 0x2A	; 42
    38e6:	9f 4f       	sbci	r25, 0xFF	; 255
    38e8:	0e 94 7a 2f 	call	0x5ef4	; 0x5ef4 <debug_function_out_name_print_P>
    38ec:	10 e0       	ldi	r17, 0x00	; 0
    38ee:	01 15       	cp	r16, r1
    38f0:	11 05       	cpc	r17, r1
    38f2:	a9 f4       	brne	.+42     	; 0x391e <dl_task_cmd_check+0x636>
    38f4:	c0 92 c0 22 	sts	0x22C0, r12
    38f8:	d0 92 c1 22 	sts	0x22C1, r13
    38fc:	e0 92 c2 22 	sts	0x22C2, r14
    3900:	f0 92 c3 22 	sts	0x22C3, r15
    3904:	a0 92 c4 22 	sts	0x22C4, r10
    3908:	90 92 c5 22 	sts	0x22C5, r9
    390c:	80 92 c6 22 	sts	0x22C6, r8
    3910:	70 92 c7 22 	sts	0x22C7, r7
    3914:	10 92 c8 22 	sts	0x22C8, r1
    3918:	81 e0       	ldi	r24, 0x01	; 1
    391a:	80 93 a1 22 	sts	0x22A1, r24
    391e:	ce 01       	movw	r24, r28
    3920:	88 52       	subi	r24, 0x28	; 40
    3922:	9f 4f       	sbci	r25, 0xFF	; 255
    3924:	0e 94 7a 2f 	call	0x5ef4	; 0x5ef4 <debug_function_out_name_print_P>
    3928:	27 c0       	rjmp	.+78     	; 0x3978 <dl_task_cmd_check+0x690>
    392a:	4a e0       	ldi	r20, 0x0A	; 10
    392c:	50 e0       	ldi	r21, 0x00	; 0
    392e:	63 ea       	ldi	r22, 0xA3	; 163
    3930:	75 e0       	ldi	r23, 0x05	; 5
    3932:	ce 01       	movw	r24, r28
    3934:	8f 57       	subi	r24, 0x7F	; 127
    3936:	9f 4f       	sbci	r25, 0xFF	; 255
    3938:	0e 94 12 49 	call	0x9224	; 0x9224 <strncasecmp_P>
    393c:	89 2b       	or	r24, r25
    393e:	31 f4       	brne	.+12     	; 0x394c <dl_task_cmd_check+0x664>
    3940:	6e ea       	ldi	r22, 0xAE	; 174
    3942:	75 e0       	ldi	r23, 0x05	; 5
    3944:	82 e0       	ldi	r24, 0x02	; 2
    3946:	0e 94 3c 2f 	call	0x5e78	; 0x5e78 <debug_string_P>
    394a:	16 c0       	rjmp	.+44     	; 0x3978 <dl_task_cmd_check+0x690>
    394c:	42 e0       	ldi	r20, 0x02	; 2
    394e:	50 e0       	ldi	r21, 0x00	; 0
    3950:	65 ec       	ldi	r22, 0xC5	; 197
    3952:	75 e0       	ldi	r23, 0x05	; 5
    3954:	ce 01       	movw	r24, r28
    3956:	8f 57       	subi	r24, 0x7F	; 127
    3958:	9f 4f       	sbci	r25, 0xFF	; 255
    395a:	0e 94 12 49 	call	0x9224	; 0x9224 <strncasecmp_P>
    395e:	89 2b       	or	r24, r25
    3960:	31 f4       	brne	.+12     	; 0x396e <dl_task_cmd_check+0x686>
    3962:	68 ec       	ldi	r22, 0xC8	; 200
    3964:	75 e0       	ldi	r23, 0x05	; 5
    3966:	82 e0       	ldi	r24, 0x02	; 2
    3968:	0e 94 3c 2f 	call	0x5e78	; 0x5e78 <debug_string_P>
    396c:	05 c0       	rjmp	.+10     	; 0x3978 <dl_task_cmd_check+0x690>
    396e:	62 ef       	ldi	r22, 0xF2	; 242
    3970:	75 e0       	ldi	r23, 0x05	; 5
    3972:	82 e0       	ldi	r24, 0x02	; 2
    3974:	0e 94 3c 2f 	call	0x5e78	; 0x5e78 <debug_string_P>
    3978:	ce 01       	movw	r24, r28
    397a:	84 52       	subi	r24, 0x24	; 36
    397c:	9f 4f       	sbci	r25, 0xFF	; 255
    397e:	0e 94 3e 2f 	call	0x5e7c	; 0x5e7c <debug_function_out_name_print>
    3982:	ce 01       	movw	r24, r28
    3984:	82 52       	subi	r24, 0x22	; 34
    3986:	9f 4f       	sbci	r25, 0xFF	; 255
    3988:	0e 94 3e 2f 	call	0x5e7c	; 0x5e7c <debug_function_out_name_print>
    398c:	c5 51       	subi	r28, 0x15	; 21
    398e:	df 4f       	sbci	r29, 0xFF	; 255
    3990:	38 81       	ld	r19, Y
    3992:	cb 5e       	subi	r28, 0xEB	; 235
    3994:	d0 40       	sbci	r29, 0x00	; 0
    3996:	83 2f       	mov	r24, r19
    3998:	96 2d       	mov	r25, r6
    399a:	8d bf       	out	0x3d, r24	; 61
    399c:	9e bf       	out	0x3e, r25	; 62
    399e:	06 c0       	rjmp	.+12     	; 0x39ac <dl_task_cmd_check+0x6c4>
    39a0:	b1 10       	cpse	r11, r1
    39a2:	b6 ce       	rjmp	.-660    	; 0x3710 <dl_task_cmd_check+0x428>
    39a4:	3c cf       	rjmp	.-392    	; 0x381e <dl_task_cmd_check+0x536>
    39a6:	b1 10       	cpse	r11, r1
    39a8:	9c ce       	rjmp	.-712    	; 0x36e2 <dl_task_cmd_check+0x3fa>
    39aa:	39 cf       	rjmp	.-398    	; 0x381e <dl_task_cmd_check+0x536>
    39ac:	10 92 a6 22 	sts	0x22A6, r1
    39b0:	ce 01       	movw	r24, r28
    39b2:	80 52       	subi	r24, 0x20	; 32
    39b4:	9f 4f       	sbci	r25, 0xFF	; 255
    39b6:	0e 94 3e 2f 	call	0x5e7c	; 0x5e7c <debug_function_out_name_print>
    39ba:	c8 01       	movw	r24, r16
    39bc:	c7 51       	subi	r28, 0x17	; 23
    39be:	df 4f       	sbci	r29, 0xFF	; 255
    39c0:	48 81       	ld	r20, Y
    39c2:	59 81       	ldd	r21, Y+1	; 0x01
    39c4:	c9 5e       	subi	r28, 0xE9	; 233
    39c6:	d0 40       	sbci	r29, 0x00	; 0
    39c8:	4d bf       	out	0x3d, r20	; 61
    39ca:	5e bf       	out	0x3e, r21	; 62
    39cc:	c5 51       	subi	r28, 0x15	; 21
    39ce:	df 4f       	sbci	r29, 0xFF	; 255
    39d0:	cd bf       	out	0x3d, r28	; 61
    39d2:	de bf       	out	0x3e, r29	; 62
    39d4:	df 91       	pop	r29
    39d6:	cf 91       	pop	r28
    39d8:	1f 91       	pop	r17
    39da:	0f 91       	pop	r16
    39dc:	ff 90       	pop	r15
    39de:	ef 90       	pop	r14
    39e0:	df 90       	pop	r13
    39e2:	cf 90       	pop	r12
    39e4:	bf 90       	pop	r11
    39e6:	af 90       	pop	r10
    39e8:	9f 90       	pop	r9
    39ea:	8f 90       	pop	r8
    39ec:	7f 90       	pop	r7
    39ee:	6f 90       	pop	r6
    39f0:	5f 90       	pop	r5
    39f2:	4f 90       	pop	r4
    39f4:	3f 90       	pop	r3
    39f6:	2f 90       	pop	r2
    39f8:	08 95       	ret

000039fa <dl_task_send_data_RT>:
    39fa:	0f 93       	push	r16
    39fc:	1f 93       	push	r17
    39fe:	cf 93       	push	r28
    3a00:	df 93       	push	r29
    3a02:	1f 92       	push	r1
    3a04:	1f 92       	push	r1
    3a06:	cd b7       	in	r28, 0x3d	; 61
    3a08:	de b7       	in	r29, 0x3e	; 62
    3a0a:	82 e0       	ldi	r24, 0x02	; 2
    3a0c:	80 93 a4 22 	sts	0x22A4, r24
    3a10:	80 e2       	ldi	r24, 0x20	; 32
    3a12:	91 e2       	ldi	r25, 0x21	; 33
    3a14:	89 83       	std	Y+1, r24	; 0x01
    3a16:	9a 83       	std	Y+2, r25	; 0x02
    3a18:	bc 01       	movw	r22, r24
    3a1a:	82 e0       	ldi	r24, 0x02	; 2
    3a1c:	0e 94 52 2f 	call	0x5ea4	; 0x5ea4 <debug_function_in_name_print>
    3a20:	89 ec       	ldi	r24, 0xC9	; 201
    3a22:	92 e2       	ldi	r25, 0x22	; 34
    3a24:	0e 94 81 11 	call	0x2302	; 0x2302 <send_data_with_post>
    3a28:	8c 01       	movw	r16, r24
    3a2a:	83 36       	cpi	r24, 0x63	; 99
    3a2c:	91 05       	cpc	r25, r1
    3a2e:	31 f4       	brne	.+12     	; 0x3a3c <dl_task_send_data_RT+0x42>
    3a30:	81 e0       	ldi	r24, 0x01	; 1
    3a32:	80 93 a4 22 	sts	0x22A4, r24
    3a36:	00 e0       	ldi	r16, 0x00	; 0
    3a38:	10 e0       	ldi	r17, 0x00	; 0
    3a3a:	07 c0       	rjmp	.+14     	; 0x3a4a <dl_task_send_data_RT+0x50>
    3a3c:	0e 94 f0 29 	call	0x53e0	; 0x53e0 <sim900_GPRS_simple_close>
    3a40:	10 92 a4 22 	sts	0x22A4, r1
    3a44:	81 e0       	ldi	r24, 0x01	; 1
    3a46:	80 93 a6 22 	sts	0x22A6, r24
    3a4a:	ce 01       	movw	r24, r28
    3a4c:	01 96       	adiw	r24, 0x01	; 1
    3a4e:	0e 94 3e 2f 	call	0x5e7c	; 0x5e7c <debug_function_out_name_print>
    3a52:	c8 01       	movw	r24, r16
    3a54:	0f 90       	pop	r0
    3a56:	0f 90       	pop	r0
    3a58:	df 91       	pop	r29
    3a5a:	cf 91       	pop	r28
    3a5c:	1f 91       	pop	r17
    3a5e:	0f 91       	pop	r16
    3a60:	08 95       	ret

00003a62 <dl_task_send_data>:
    3a62:	0f 93       	push	r16
    3a64:	1f 93       	push	r17
    3a66:	cf 93       	push	r28
    3a68:	df 93       	push	r29
    3a6a:	1f 92       	push	r1
    3a6c:	1f 92       	push	r1
    3a6e:	cd b7       	in	r28, 0x3d	; 61
    3a70:	de b7       	in	r29, 0x3e	; 62
    3a72:	82 e0       	ldi	r24, 0x02	; 2
    3a74:	80 93 a1 22 	sts	0x22A1, r24
    3a78:	89 e4       	ldi	r24, 0x49	; 73
    3a7a:	91 e2       	ldi	r25, 0x21	; 33
    3a7c:	89 83       	std	Y+1, r24	; 0x01
    3a7e:	9a 83       	std	Y+2, r25	; 0x02
    3a80:	bc 01       	movw	r22, r24
    3a82:	82 e0       	ldi	r24, 0x02	; 2
    3a84:	0e 94 52 2f 	call	0x5ea4	; 0x5ea4 <debug_function_in_name_print>
    3a88:	80 ec       	ldi	r24, 0xC0	; 192
    3a8a:	92 e2       	ldi	r25, 0x22	; 34
    3a8c:	0e 94 81 11 	call	0x2302	; 0x2302 <send_data_with_post>
    3a90:	8c 01       	movw	r16, r24
    3a92:	83 36       	cpi	r24, 0x63	; 99
    3a94:	91 05       	cpc	r25, r1
    3a96:	31 f4       	brne	.+12     	; 0x3aa4 <dl_task_send_data+0x42>
    3a98:	81 e0       	ldi	r24, 0x01	; 1
    3a9a:	80 93 a1 22 	sts	0x22A1, r24
    3a9e:	00 e0       	ldi	r16, 0x00	; 0
    3aa0:	10 e0       	ldi	r17, 0x00	; 0
    3aa2:	04 c0       	rjmp	.+8      	; 0x3aac <dl_task_send_data+0x4a>
    3aa4:	0e 94 f0 29 	call	0x53e0	; 0x53e0 <sim900_GPRS_simple_close>
    3aa8:	10 92 a1 22 	sts	0x22A1, r1
    3aac:	ce 01       	movw	r24, r28
    3aae:	01 96       	adiw	r24, 0x01	; 1
    3ab0:	0e 94 3e 2f 	call	0x5e7c	; 0x5e7c <debug_function_out_name_print>
    3ab4:	c8 01       	movw	r24, r16
    3ab6:	0f 90       	pop	r0
    3ab8:	0f 90       	pop	r0
    3aba:	df 91       	pop	r29
    3abc:	cf 91       	pop	r28
    3abe:	1f 91       	pop	r17
    3ac0:	0f 91       	pop	r16
    3ac2:	08 95       	ret

00003ac4 <dl_task_store_data>:
    3ac4:	2f 92       	push	r2
    3ac6:	3f 92       	push	r3
    3ac8:	4f 92       	push	r4
    3aca:	5f 92       	push	r5
    3acc:	6f 92       	push	r6
    3ace:	7f 92       	push	r7
    3ad0:	8f 92       	push	r8
    3ad2:	9f 92       	push	r9
    3ad4:	af 92       	push	r10
    3ad6:	bf 92       	push	r11
    3ad8:	cf 92       	push	r12
    3ada:	df 92       	push	r13
    3adc:	ef 92       	push	r14
    3ade:	ff 92       	push	r15
    3ae0:	0f 93       	push	r16
    3ae2:	1f 93       	push	r17
    3ae4:	cf 93       	push	r28
    3ae6:	df 93       	push	r29
    3ae8:	cd b7       	in	r28, 0x3d	; 61
    3aea:	de b7       	in	r29, 0x3e	; 62
    3aec:	a5 97       	sbiw	r28, 0x25	; 37
    3aee:	cd bf       	out	0x3d, r28	; 61
    3af0:	de bf       	out	0x3e, r29	; 62
    3af2:	82 e0       	ldi	r24, 0x02	; 2
    3af4:	80 93 a3 22 	sts	0x22A3, r24
    3af8:	b5 d3       	rcall	.+1898   	; 0x4264 <AT24CXX_Init>
    3afa:	89 2b       	or	r24, r25
    3afc:	09 f0       	breq	.+2      	; 0x3b00 <dl_task_store_data+0x3c>
    3afe:	58 c1       	rjmp	.+688    	; 0x3db0 <dl_task_store_data+0x2ec>
    3b00:	ba d5       	rcall	.+2932   	; 0x4676 <voltmeter_init>
    3b02:	ba d5       	rcall	.+2932   	; 0x4678 <voltmeter_getValue>
    3b04:	68 2e       	mov	r6, r24
    3b06:	59 2e       	mov	r5, r25
    3b08:	79 d6       	rcall	.+3314   	; 0x47fc <thermometer_getValue>
    3b0a:	10 91 88 21 	lds	r17, 0x2188
    3b0e:	88 24       	eor	r8, r8
    3b10:	83 94       	inc	r8
    3b12:	91 2c       	mov	r9, r1
    3b14:	8c 0e       	add	r8, r28
    3b16:	9d 1e       	adc	r9, r29
    3b18:	c1 2c       	mov	r12, r1
    3b1a:	d1 2c       	mov	r13, r1
    3b1c:	76 01       	movw	r14, r12
    3b1e:	d3 94       	inc	r13
    3b20:	ba c0       	rjmp	.+372    	; 0x3c96 <dl_task_store_data+0x1d2>
    3b22:	11 50       	subi	r17, 0x01	; 1
    3b24:	21 e1       	ldi	r18, 0x11	; 17
    3b26:	21 9f       	mul	r18, r17
    3b28:	50 01       	movw	r10, r0
    3b2a:	11 24       	eor	r1, r1
    3b2c:	89 e8       	ldi	r24, 0x89	; 137
    3b2e:	91 e2       	ldi	r25, 0x21	; 33
    3b30:	a8 0e       	add	r10, r24
    3b32:	b9 1e       	adc	r11, r25
    3b34:	f5 01       	movw	r30, r10
    3b36:	66 86       	std	Z+14, r6	; 0x0e
    3b38:	57 86       	std	Z+15, r5	; 0x0f
    3b3a:	83 81       	ldd	r24, Z+3	; 0x03
    3b3c:	8f 93       	push	r24
    3b3e:	82 81       	ldd	r24, Z+2	; 0x02
    3b40:	8f 93       	push	r24
    3b42:	81 81       	ldd	r24, Z+1	; 0x01
    3b44:	8f 93       	push	r24
    3b46:	80 81       	ld	r24, Z
    3b48:	8f 93       	push	r24
    3b4a:	5f 92       	push	r5
    3b4c:	6f 92       	push	r6
    3b4e:	20 e8       	ldi	r18, 0x80	; 128
    3b50:	39 e0       	ldi	r19, 0x09	; 9
    3b52:	3f 93       	push	r19
    3b54:	2f 93       	push	r18
    3b56:	9f 92       	push	r9
    3b58:	8f 92       	push	r8
    3b5a:	0e 94 93 49 	call	0x9326	; 0x9326 <sprintf_P>
    3b5e:	40 e0       	ldi	r20, 0x00	; 0
    3b60:	b4 01       	movw	r22, r8
    3b62:	81 e0       	ldi	r24, 0x01	; 1
    3b64:	0e 94 12 2f 	call	0x5e24	; 0x5e24 <debug_string>
    3b68:	8b eb       	ldi	r24, 0xBB	; 187
    3b6a:	92 e2       	ldi	r25, 0x22	; 34
    3b6c:	f8 d3       	rcall	.+2032   	; 0x435e <AT24CXX_iterator_report>
    3b6e:	30 90 bd 22 	lds	r3, 0x22BD
    3b72:	20 90 bc 22 	lds	r2, 0x22BC
    3b76:	90 91 bb 22 	lds	r25, 0x22BB
    3b7a:	9d a3       	std	Y+37, r25	; 0x25
    3b7c:	80 91 bb 22 	lds	r24, 0x22BB
    3b80:	90 91 bc 22 	lds	r25, 0x22BC
    3b84:	a0 91 bd 22 	lds	r26, 0x22BD
    3b88:	b0 91 be 22 	lds	r27, 0x22BE
    3b8c:	41 96       	adiw	r24, 0x11	; 17
    3b8e:	a1 1d       	adc	r26, r1
    3b90:	b1 1d       	adc	r27, r1
    3b92:	80 93 bb 22 	sts	0x22BB, r24
    3b96:	90 93 bc 22 	sts	0x22BC, r25
    3b9a:	a0 93 bd 22 	sts	0x22BD, r26
    3b9e:	b0 93 be 22 	sts	0x22BE, r27
    3ba2:	cd bf       	out	0x3d, r28	; 61
    3ba4:	de bf       	out	0x3e, r29	; 62
    3ba6:	01 97       	sbiw	r24, 0x01	; 1
    3ba8:	a8 40       	sbci	r26, 0x08	; 8
    3baa:	b1 05       	cpc	r27, r1
    3bac:	40 f0       	brcs	.+16     	; 0x3bbe <dl_task_store_data+0xfa>
    3bae:	c0 92 bb 22 	sts	0x22BB, r12
    3bb2:	d0 92 bc 22 	sts	0x22BC, r13
    3bb6:	e0 92 bd 22 	sts	0x22BD, r14
    3bba:	f0 92 be 22 	sts	0x22BE, r15
    3bbe:	80 91 bb 22 	lds	r24, 0x22BB
    3bc2:	90 91 bc 22 	lds	r25, 0x22BC
    3bc6:	a0 91 bd 22 	lds	r26, 0x22BD
    3bca:	b0 91 be 22 	lds	r27, 0x22BE
    3bce:	40 91 b7 22 	lds	r20, 0x22B7
    3bd2:	50 91 b8 22 	lds	r21, 0x22B8
    3bd6:	60 91 b9 22 	lds	r22, 0x22B9
    3bda:	70 91 ba 22 	lds	r23, 0x22BA
    3bde:	84 17       	cp	r24, r20
    3be0:	95 07       	cpc	r25, r21
    3be2:	a6 07       	cpc	r26, r22
    3be4:	b7 07       	cpc	r27, r23
    3be6:	59 f4       	brne	.+22     	; 0x3bfe <dl_task_store_data+0x13a>
    3be8:	41 96       	adiw	r24, 0x11	; 17
    3bea:	a1 1d       	adc	r26, r1
    3bec:	b1 1d       	adc	r27, r1
    3bee:	80 93 b7 22 	sts	0x22B7, r24
    3bf2:	90 93 b8 22 	sts	0x22B8, r25
    3bf6:	a0 93 b9 22 	sts	0x22B9, r26
    3bfa:	b0 93 ba 22 	sts	0x22BA, r27
    3bfe:	80 91 b7 22 	lds	r24, 0x22B7
    3c02:	90 91 b8 22 	lds	r25, 0x22B8
    3c06:	a0 91 b9 22 	lds	r26, 0x22B9
    3c0a:	b0 91 ba 22 	lds	r27, 0x22BA
    3c0e:	01 97       	sbiw	r24, 0x01	; 1
    3c10:	a8 40       	sbci	r26, 0x08	; 8
    3c12:	b1 05       	cpc	r27, r1
    3c14:	40 f0       	brcs	.+16     	; 0x3c26 <dl_task_store_data+0x162>
    3c16:	c0 92 b7 22 	sts	0x22B7, r12
    3c1a:	d0 92 b8 22 	sts	0x22B8, r13
    3c1e:	e0 92 b9 22 	sts	0x22B9, r14
    3c22:	f0 92 ba 22 	sts	0x22BA, r15
    3c26:	70 90 bb 22 	lds	r7, 0x22BB
    3c2a:	60 e2       	ldi	r22, 0x20	; 32
    3c2c:	7e e4       	ldi	r23, 0x4E	; 78
    3c2e:	80 e0       	ldi	r24, 0x00	; 0
    3c30:	90 e0       	ldi	r25, 0x00	; 0
    3c32:	0e 94 7b 10 	call	0x20f6	; 0x20f6 <__portable_avr_delay_cycles>
    3c36:	87 2d       	mov	r24, r7
    3c38:	81 50       	subi	r24, 0x01	; 1
    3c3a:	80 31       	cpi	r24, 0x10	; 16
    3c3c:	68 f0       	brcs	.+26     	; 0x3c58 <dl_task_store_data+0x194>
    3c3e:	01 e1       	ldi	r16, 0x11	; 17
    3c40:	95 01       	movw	r18, r10
    3c42:	4d a1       	ldd	r20, Y+37	; 0x25
    3c44:	62 2d       	mov	r22, r2
    3c46:	83 2d       	mov	r24, r3
    3c48:	42 d3       	rcall	.+1668   	; 0x42ce <AT24CXX_WriteBlockA>
    3c4a:	60 e2       	ldi	r22, 0x20	; 32
    3c4c:	7e e4       	ldi	r23, 0x4E	; 78
    3c4e:	80 e0       	ldi	r24, 0x00	; 0
    3c50:	90 e0       	ldi	r25, 0x00	; 0
    3c52:	0e 94 7b 10 	call	0x20f6	; 0x20f6 <__portable_avr_delay_cycles>
    3c56:	1f c0       	rjmp	.+62     	; 0x3c96 <dl_task_store_data+0x1d2>
    3c58:	01 e1       	ldi	r16, 0x11	; 17
    3c5a:	40 2e       	mov	r4, r16
    3c5c:	47 18       	sub	r4, r7
    3c5e:	04 2d       	mov	r16, r4
    3c60:	95 01       	movw	r18, r10
    3c62:	4d a1       	ldd	r20, Y+37	; 0x25
    3c64:	62 2d       	mov	r22, r2
    3c66:	83 2d       	mov	r24, r3
    3c68:	32 d3       	rcall	.+1636   	; 0x42ce <AT24CXX_WriteBlockA>
    3c6a:	60 e2       	ldi	r22, 0x20	; 32
    3c6c:	7e e4       	ldi	r23, 0x4E	; 78
    3c6e:	80 e0       	ldi	r24, 0x00	; 0
    3c70:	90 e0       	ldi	r25, 0x00	; 0
    3c72:	0e 94 7b 10 	call	0x20f6	; 0x20f6 <__portable_avr_delay_cycles>
    3c76:	95 01       	movw	r18, r10
    3c78:	24 0d       	add	r18, r4
    3c7a:	31 1d       	adc	r19, r1
    3c7c:	07 2d       	mov	r16, r7
    3c7e:	40 e0       	ldi	r20, 0x00	; 0
    3c80:	60 91 bc 22 	lds	r22, 0x22BC
    3c84:	80 91 bd 22 	lds	r24, 0x22BD
    3c88:	22 d3       	rcall	.+1604   	; 0x42ce <AT24CXX_WriteBlockA>
    3c8a:	60 e2       	ldi	r22, 0x20	; 32
    3c8c:	7e e4       	ldi	r23, 0x4E	; 78
    3c8e:	80 e0       	ldi	r24, 0x00	; 0
    3c90:	90 e0       	ldi	r25, 0x00	; 0
    3c92:	0e 94 7b 10 	call	0x20f6	; 0x20f6 <__portable_avr_delay_cycles>
    3c96:	11 11       	cpse	r17, r1
    3c98:	44 cf       	rjmp	.-376    	; 0x3b22 <dl_task_store_data+0x5e>
    3c9a:	8b eb       	ldi	r24, 0xBB	; 187
    3c9c:	92 e2       	ldi	r25, 0x22	; 34
    3c9e:	5f d3       	rcall	.+1726   	; 0x435e <AT24CXX_iterator_report>
    3ca0:	e1 d2       	rcall	.+1474   	; 0x4264 <AT24CXX_Init>
    3ca2:	b7 eb       	ldi	r27, 0xB7	; 183
    3ca4:	6b 2e       	mov	r6, r27
    3ca6:	b2 e2       	ldi	r27, 0x22	; 34
    3ca8:	7b 2e       	mov	r7, r27
    3caa:	a1 2c       	mov	r10, r1
    3cac:	b1 2c       	mov	r11, r1
    3cae:	81 2c       	mov	r8, r1
    3cb0:	91 2c       	mov	r9, r1
    3cb2:	75 01       	movw	r14, r10
    3cb4:	34 e0       	ldi	r19, 0x04	; 4
    3cb6:	e3 0e       	add	r14, r19
    3cb8:	f1 1c       	adc	r15, r1
    3cba:	10 e0       	ldi	r17, 0x00	; 0
    3cbc:	c7 01       	movw	r24, r14
    3cbe:	04 e0       	ldi	r16, 0x04	; 4
    3cc0:	9e 01       	movw	r18, r28
    3cc2:	2f 5d       	subi	r18, 0xDF	; 223
    3cc4:	3f 4f       	sbci	r19, 0xFF	; 255
    3cc6:	4e 2d       	mov	r20, r14
    3cc8:	69 2f       	mov	r22, r25
    3cca:	80 e0       	ldi	r24, 0x00	; 0
    3ccc:	24 d3       	rcall	.+1608   	; 0x4316 <AT24CXX_ReadBlockA>
    3cce:	60 e2       	ldi	r22, 0x20	; 32
    3cd0:	7e e4       	ldi	r23, 0x4E	; 78
    3cd2:	80 e0       	ldi	r24, 0x00	; 0
    3cd4:	90 e0       	ldi	r25, 0x00	; 0
    3cd6:	0e 94 7b 10 	call	0x20f6	; 0x20f6 <__portable_avr_delay_cycles>
    3cda:	89 a1       	ldd	r24, Y+33	; 0x21
    3cdc:	9a a1       	ldd	r25, Y+34	; 0x22
    3cde:	ab a1       	ldd	r26, Y+35	; 0x23
    3ce0:	bc a1       	ldd	r27, Y+36	; 0x24
    3ce2:	8a 3f       	cpi	r24, 0xFA	; 250
    3ce4:	9a 4f       	sbci	r25, 0xFA	; 250
    3ce6:	aa 4f       	sbci	r26, 0xFA	; 250
    3ce8:	ba 4f       	sbci	r27, 0xFA	; 250
    3cea:	09 f0       	breq	.+2      	; 0x3cee <dl_task_store_data+0x22a>
    3cec:	4c c0       	rjmp	.+152    	; 0x3d86 <dl_task_store_data+0x2c2>
    3cee:	11 50       	subi	r17, 0x01	; 1
    3cf0:	17 70       	andi	r17, 0x07	; 7
    3cf2:	c5 01       	movw	r24, r10
    3cf4:	f4 e0       	ldi	r31, 0x04	; 4
    3cf6:	1f 9f       	mul	r17, r31
    3cf8:	80 0d       	add	r24, r0
    3cfa:	91 1d       	adc	r25, r1
    3cfc:	11 24       	eor	r1, r1
    3cfe:	04 96       	adiw	r24, 0x04	; 4
    3d00:	6c 01       	movw	r12, r24
    3d02:	9e 01       	movw	r18, r28
    3d04:	2f 5d       	subi	r18, 0xDF	; 223
    3d06:	3f 4f       	sbci	r19, 0xFF	; 255
    3d08:	48 2f       	mov	r20, r24
    3d0a:	6d 2d       	mov	r22, r13
    3d0c:	80 e0       	ldi	r24, 0x00	; 0
    3d0e:	03 d3       	rcall	.+1542   	; 0x4316 <AT24CXX_ReadBlockA>
    3d10:	60 e2       	ldi	r22, 0x20	; 32
    3d12:	7e e4       	ldi	r23, 0x4E	; 78
    3d14:	80 e0       	ldi	r24, 0x00	; 0
    3d16:	90 e0       	ldi	r25, 0x00	; 0
    3d18:	0e 94 7b 10 	call	0x20f6	; 0x20f6 <__portable_avr_delay_cycles>
    3d1c:	49 a1       	ldd	r20, Y+33	; 0x21
    3d1e:	5a a1       	ldd	r21, Y+34	; 0x22
    3d20:	6b a1       	ldd	r22, Y+35	; 0x23
    3d22:	7c a1       	ldd	r23, Y+36	; 0x24
    3d24:	f3 01       	movw	r30, r6
    3d26:	80 81       	ld	r24, Z
    3d28:	91 81       	ldd	r25, Z+1	; 0x01
    3d2a:	a2 81       	ldd	r26, Z+2	; 0x02
    3d2c:	b3 81       	ldd	r27, Z+3	; 0x03
    3d2e:	48 17       	cp	r20, r24
    3d30:	59 07       	cpc	r21, r25
    3d32:	6a 07       	cpc	r22, r26
    3d34:	7b 07       	cpc	r23, r27
    3d36:	71 f1       	breq	.+92     	; 0x3d94 <dl_task_store_data+0x2d0>
    3d38:	94 01       	movw	r18, r8
    3d3a:	22 0f       	add	r18, r18
    3d3c:	33 1f       	adc	r19, r19
    3d3e:	22 0f       	add	r18, r18
    3d40:	33 1f       	adc	r19, r19
    3d42:	29 54       	subi	r18, 0x49	; 73
    3d44:	3d 4d       	sbci	r19, 0xDD	; 221
    3d46:	4c 2d       	mov	r20, r12
    3d48:	6d 2d       	mov	r22, r13
    3d4a:	80 e0       	ldi	r24, 0x00	; 0
    3d4c:	c0 d2       	rcall	.+1408   	; 0x42ce <AT24CXX_WriteBlockA>
    3d4e:	60 e2       	ldi	r22, 0x20	; 32
    3d50:	7e e4       	ldi	r23, 0x4E	; 78
    3d52:	80 e0       	ldi	r24, 0x00	; 0
    3d54:	90 e0       	ldi	r25, 0x00	; 0
    3d56:	0e 94 7b 10 	call	0x20f6	; 0x20f6 <__portable_avr_delay_cycles>
    3d5a:	1f 5f       	subi	r17, 0xFF	; 255
    3d5c:	17 70       	andi	r17, 0x07	; 7
    3d5e:	c5 01       	movw	r24, r10
    3d60:	f4 e0       	ldi	r31, 0x04	; 4
    3d62:	1f 9f       	mul	r17, r31
    3d64:	80 0d       	add	r24, r0
    3d66:	91 1d       	adc	r25, r1
    3d68:	11 24       	eor	r1, r1
    3d6a:	04 96       	adiw	r24, 0x04	; 4
    3d6c:	2b e5       	ldi	r18, 0x5B	; 91
    3d6e:	31 e2       	ldi	r19, 0x21	; 33
    3d70:	48 2f       	mov	r20, r24
    3d72:	69 2f       	mov	r22, r25
    3d74:	80 e0       	ldi	r24, 0x00	; 0
    3d76:	ab d2       	rcall	.+1366   	; 0x42ce <AT24CXX_WriteBlockA>
    3d78:	60 e2       	ldi	r22, 0x20	; 32
    3d7a:	7e e4       	ldi	r23, 0x4E	; 78
    3d7c:	80 e0       	ldi	r24, 0x00	; 0
    3d7e:	90 e0       	ldi	r25, 0x00	; 0
    3d80:	0e 94 7b 10 	call	0x20f6	; 0x20f6 <__portable_avr_delay_cycles>
    3d84:	07 c0       	rjmp	.+14     	; 0x3d94 <dl_task_store_data+0x2d0>
    3d86:	1f 5f       	subi	r17, 0xFF	; 255
    3d88:	24 e0       	ldi	r18, 0x04	; 4
    3d8a:	e2 0e       	add	r14, r18
    3d8c:	f1 1c       	adc	r15, r1
    3d8e:	18 30       	cpi	r17, 0x08	; 8
    3d90:	09 f0       	breq	.+2      	; 0x3d94 <dl_task_store_data+0x2d0>
    3d92:	94 cf       	rjmp	.-216    	; 0x3cbc <dl_task_store_data+0x1f8>
    3d94:	3f ef       	ldi	r19, 0xFF	; 255
    3d96:	83 1a       	sub	r8, r19
    3d98:	93 0a       	sbc	r9, r19
    3d9a:	88 e0       	ldi	r24, 0x08	; 8
    3d9c:	a8 0e       	add	r10, r24
    3d9e:	b1 1c       	adc	r11, r1
    3da0:	94 e0       	ldi	r25, 0x04	; 4
    3da2:	69 0e       	add	r6, r25
    3da4:	71 1c       	adc	r7, r1
    3da6:	e2 e0       	ldi	r30, 0x02	; 2
    3da8:	8e 16       	cp	r8, r30
    3daa:	91 04       	cpc	r9, r1
    3dac:	09 f0       	breq	.+2      	; 0x3db0 <dl_task_store_data+0x2ec>
    3dae:	81 cf       	rjmp	.-254    	; 0x3cb2 <dl_task_store_data+0x1ee>
    3db0:	10 92 88 21 	sts	0x2188, r1
    3db4:	10 92 a3 22 	sts	0x22A3, r1
    3db8:	80 e0       	ldi	r24, 0x00	; 0
    3dba:	a5 96       	adiw	r28, 0x25	; 37
    3dbc:	cd bf       	out	0x3d, r28	; 61
    3dbe:	de bf       	out	0x3e, r29	; 62
    3dc0:	df 91       	pop	r29
    3dc2:	cf 91       	pop	r28
    3dc4:	1f 91       	pop	r17
    3dc6:	0f 91       	pop	r16
    3dc8:	ff 90       	pop	r15
    3dca:	ef 90       	pop	r14
    3dcc:	df 90       	pop	r13
    3dce:	cf 90       	pop	r12
    3dd0:	bf 90       	pop	r11
    3dd2:	af 90       	pop	r10
    3dd4:	9f 90       	pop	r9
    3dd6:	8f 90       	pop	r8
    3dd8:	7f 90       	pop	r7
    3dda:	6f 90       	pop	r6
    3ddc:	5f 90       	pop	r5
    3dde:	4f 90       	pop	r4
    3de0:	3f 90       	pop	r3
    3de2:	2f 90       	pop	r2
    3de4:	08 95       	ret

00003de6 <datalogger_run>:
    3de6:	11 e0       	ldi	r17, 0x01	; 1
    3de8:	c8 ec       	ldi	r28, 0xC8	; 200
    3dea:	d5 e2       	ldi	r29, 0x25	; 37
    3dec:	80 91 a2 22 	lds	r24, 0x22A2
    3df0:	81 30       	cpi	r24, 0x01	; 1
    3df2:	11 f4       	brne	.+4      	; 0x3df8 <datalogger_run+0x12>
    3df4:	0e 94 d4 15 	call	0x2ba8	; 0x2ba8 <dl_task_sync_time>
    3df8:	80 91 a3 22 	lds	r24, 0x22A3
    3dfc:	81 30       	cpi	r24, 0x01	; 1
    3dfe:	09 f4       	brne	.+2      	; 0x3e02 <datalogger_run+0x1c>
    3e00:	61 de       	rcall	.-830    	; 0x3ac4 <dl_task_store_data>
    3e02:	00 91 a5 22 	lds	r16, 0x22A5
    3e06:	01 30       	cpi	r16, 0x01	; 1
    3e08:	d9 f4       	brne	.+54     	; 0x3e40 <datalogger_run+0x5a>
    3e0a:	23 da       	rcall	.-3002   	; 0x3252 <dl_task_send_data_prepare_RT>
    3e0c:	89 2b       	or	r24, r25
    3e0e:	19 f4       	brne	.+6      	; 0x3e16 <datalogger_run+0x30>
    3e10:	00 93 a4 22 	sts	0x22A4, r16
    3e14:	15 c0       	rjmp	.+42     	; 0x3e40 <datalogger_run+0x5a>
    3e16:	0e 94 0c 27 	call	0x4e18	; 0x4e18 <sim900_init>
    3e1a:	80 91 a7 22 	lds	r24, 0x22A7
    3e1e:	90 91 a8 22 	lds	r25, 0x22A8
    3e22:	a0 91 a9 22 	lds	r26, 0x22A9
    3e26:	b0 91 aa 22 	lds	r27, 0x22AA
    3e2a:	4e 97       	sbiw	r24, 0x1e	; 30
    3e2c:	a1 09       	sbc	r26, r1
    3e2e:	b1 09       	sbc	r27, r1
    3e30:	80 93 04 20 	sts	0x2004, r24
    3e34:	90 93 05 20 	sts	0x2005, r25
    3e38:	a0 93 06 20 	sts	0x2006, r26
    3e3c:	b0 93 07 20 	sts	0x2007, r27
    3e40:	80 91 a4 22 	lds	r24, 0x22A4
    3e44:	81 30       	cpi	r24, 0x01	; 1
    3e46:	b9 f4       	brne	.+46     	; 0x3e76 <datalogger_run+0x90>
    3e48:	d8 dd       	rcall	.-1104   	; 0x39fa <dl_task_send_data_RT>
    3e4a:	89 2b       	or	r24, r25
    3e4c:	a1 f0       	breq	.+40     	; 0x3e76 <datalogger_run+0x90>
    3e4e:	e4 d7       	rcall	.+4040   	; 0x4e18 <sim900_init>
    3e50:	80 91 a7 22 	lds	r24, 0x22A7
    3e54:	90 91 a8 22 	lds	r25, 0x22A8
    3e58:	a0 91 a9 22 	lds	r26, 0x22A9
    3e5c:	b0 91 aa 22 	lds	r27, 0x22AA
    3e60:	4e 97       	sbiw	r24, 0x1e	; 30
    3e62:	a1 09       	sbc	r26, r1
    3e64:	b1 09       	sbc	r27, r1
    3e66:	80 93 04 20 	sts	0x2004, r24
    3e6a:	90 93 05 20 	sts	0x2005, r25
    3e6e:	a0 93 06 20 	sts	0x2006, r26
    3e72:	b0 93 07 20 	sts	0x2007, r27
    3e76:	80 91 a6 22 	lds	r24, 0x22A6
    3e7a:	81 30       	cpi	r24, 0x01	; 1
    3e7c:	09 f4       	brne	.+2      	; 0x3e80 <datalogger_run+0x9a>
    3e7e:	34 da       	rcall	.-2968   	; 0x32e8 <dl_task_cmd_check>
    3e80:	80 91 a1 22 	lds	r24, 0x22A1
    3e84:	81 30       	cpi	r24, 0x01	; 1
    3e86:	31 f4       	brne	.+12     	; 0x3e94 <datalogger_run+0xae>
    3e88:	ec dd       	rcall	.-1064   	; 0x3a62 <dl_task_send_data>
    3e8a:	89 2b       	or	r24, r25
    3e8c:	19 f0       	breq	.+6      	; 0x3e94 <datalogger_run+0xae>
    3e8e:	c4 d7       	rcall	.+3976   	; 0x4e18 <sim900_init>
    3e90:	10 92 a1 22 	sts	0x22A1, r1
    3e94:	80 91 a4 22 	lds	r24, 0x22A4
    3e98:	81 30       	cpi	r24, 0x01	; 1
    3e9a:	09 f4       	brne	.+2      	; 0x3e9e <datalogger_run+0xb8>
    3e9c:	a7 cf       	rjmp	.-178    	; 0x3dec <datalogger_run+0x6>
    3e9e:	80 91 a3 22 	lds	r24, 0x22A3
    3ea2:	81 30       	cpi	r24, 0x01	; 1
    3ea4:	09 f4       	brne	.+2      	; 0x3ea8 <datalogger_run+0xc2>
    3ea6:	a2 cf       	rjmp	.-188    	; 0x3dec <datalogger_run+0x6>
    3ea8:	80 91 a1 22 	lds	r24, 0x22A1
    3eac:	81 30       	cpi	r24, 0x01	; 1
    3eae:	09 f4       	brne	.+2      	; 0x3eb2 <datalogger_run+0xcc>
    3eb0:	9d cf       	rjmp	.-198    	; 0x3dec <datalogger_run+0x6>
    3eb2:	80 91 a2 22 	lds	r24, 0x22A2
    3eb6:	81 30       	cpi	r24, 0x01	; 1
    3eb8:	09 f4       	brne	.+2      	; 0x3ebc <datalogger_run+0xd6>
    3eba:	98 cf       	rjmp	.-208    	; 0x3dec <datalogger_run+0x6>
    3ebc:	10 93 08 20 	sts	0x2008, r17
    3ec0:	22 c0       	rjmp	.+68     	; 0x3f06 <datalogger_run+0x120>
    3ec2:	f8 94       	cli
    3ec4:	a8 ec       	ldi	r26, 0xC8	; 200
    3ec6:	b5 e2       	ldi	r27, 0x25	; 37
    3ec8:	ea 2f       	mov	r30, r26
    3eca:	ec 1b       	sub	r30, r28
    3ecc:	8d 91       	ld	r24, X+
    3ece:	88 23       	and	r24, r24
    3ed0:	d9 f3       	breq	.-10     	; 0x3ec8 <datalogger_run+0xe2>
    3ed2:	e1 11       	cpse	r30, r1
    3ed4:	02 c0       	rjmp	.+4      	; 0x3eda <datalogger_run+0xf4>
    3ed6:	78 94       	sei
    3ed8:	16 c0       	rjmp	.+44     	; 0x3f06 <datalogger_run+0x120>
    3eda:	80 91 48 00 	lds	r24, 0x0048
    3ede:	f0 e0       	ldi	r31, 0x00	; 0
    3ee0:	e8 5e       	subi	r30, 0xE8	; 232
    3ee2:	ff 4d       	sbci	r31, 0xDF	; 223
    3ee4:	81 7f       	andi	r24, 0xF1	; 241
    3ee6:	90 81       	ld	r25, Z
    3ee8:	89 2b       	or	r24, r25
    3eea:	80 93 48 00 	sts	0x0048, r24
    3eee:	80 91 48 00 	lds	r24, 0x0048
    3ef2:	81 60       	ori	r24, 0x01	; 1
    3ef4:	80 93 48 00 	sts	0x0048, r24
    3ef8:	78 94       	sei
    3efa:	88 95       	sleep
    3efc:	80 91 48 00 	lds	r24, 0x0048
    3f00:	8e 7f       	andi	r24, 0xFE	; 254
    3f02:	80 93 48 00 	sts	0x0048, r24
    3f06:	80 91 08 20 	lds	r24, 0x2008
    3f0a:	81 11       	cpse	r24, r1
    3f0c:	da cf       	rjmp	.-76     	; 0x3ec2 <datalogger_run+0xdc>
    3f0e:	6e cf       	rjmp	.-292    	; 0x3dec <datalogger_run+0x6>

00003f10 <__portable_avr_delay_cycles.constprop.1>:
    3f10:	80 e8       	ldi	r24, 0x80	; 128
    3f12:	94 e8       	ldi	r25, 0x84	; 132
    3f14:	ae e1       	ldi	r26, 0x1E	; 30
    3f16:	b0 e0       	ldi	r27, 0x00	; 0
    3f18:	01 97       	sbiw	r24, 0x01	; 1
    3f1a:	a1 09       	sbc	r26, r1
    3f1c:	b1 09       	sbc	r27, r1
    3f1e:	e1 f7       	brne	.-8      	; 0x3f18 <__portable_avr_delay_cycles.constprop.1+0x8>
    3f20:	08 95       	ret

00003f22 <main>:
    3f22:	82 e0       	ldi	r24, 0x02	; 2
    3f24:	80 93 18 20 	sts	0x2018, r24
    3f28:	10 92 c8 25 	sts	0x25C8, r1
    3f2c:	10 92 c9 25 	sts	0x25C9, r1
    3f30:	10 92 ca 25 	sts	0x25CA, r1
    3f34:	10 92 cb 25 	sts	0x25CB, r1
    3f38:	10 92 cc 25 	sts	0x25CC, r1
    3f3c:	81 e0       	ldi	r24, 0x01	; 1
    3f3e:	80 93 cd 25 	sts	0x25CD, r24
    3f42:	0e 94 2d 30 	call	0x605a	; 0x605a <sysclk_init>
    3f46:	0e 94 80 2c 	call	0x5900	; 0x5900 <board_init>
    3f4a:	25 d3       	rcall	.+1610   	; 0x4596 <VBusMon_init>
    3f4c:	87 e0       	ldi	r24, 0x07	; 7
    3f4e:	80 93 a2 00 	sts	0x00A2, r24
    3f52:	62 e0       	ldi	r22, 0x02	; 2
    3f54:	80 e0       	ldi	r24, 0x00	; 0
    3f56:	0e 94 7a 30 	call	0x60f4	; 0x60f4 <sysclk_enable_module>
    3f5a:	60 e1       	ldi	r22, 0x10	; 16
    3f5c:	86 e0       	ldi	r24, 0x06	; 6
    3f5e:	0e 94 7a 30 	call	0x60f4	; 0x60f4 <sysclk_enable_module>
    3f62:	61 e1       	ldi	r22, 0x11	; 17
    3f64:	70 e2       	ldi	r23, 0x20	; 32
    3f66:	80 ea       	ldi	r24, 0xA0	; 160
    3f68:	9b e0       	ldi	r25, 0x0B	; 11
    3f6a:	0e 94 4e 3f 	call	0x7e9c	; 0x7e9c <usart_init_rs232>
    3f6e:	41 e0       	ldi	r20, 0x01	; 1
    3f70:	66 e9       	ldi	r22, 0x96	; 150
    3f72:	79 e0       	ldi	r23, 0x09	; 9
    3f74:	81 e0       	ldi	r24, 0x01	; 1
    3f76:	0e 94 12 2f 	call	0x5e24	; 0x5e24 <debug_string>
    3f7a:	80 91 18 20 	lds	r24, 0x2018
    3f7e:	88 23       	and	r24, r24
    3f80:	a1 f0       	breq	.+40     	; 0x3faa <main+0x88>
    3f82:	41 e0       	ldi	r20, 0x01	; 1
    3f84:	61 ea       	ldi	r22, 0xA1	; 161
    3f86:	79 e0       	ldi	r23, 0x09	; 9
    3f88:	81 e0       	ldi	r24, 0x01	; 1
    3f8a:	0e 94 12 2f 	call	0x5e24	; 0x5e24 <debug_string>
    3f8e:	60 91 93 00 	lds	r22, 0x0093
    3f92:	6f 70       	andi	r22, 0x0F	; 15
    3f94:	6f 5b       	subi	r22, 0xBF	; 191
    3f96:	80 ea       	ldi	r24, 0xA0	; 160
    3f98:	9b e0       	ldi	r25, 0x0B	; 11
    3f9a:	0e 94 66 3e 	call	0x7ccc	; 0x7ccc <usart_putchar>
    3f9e:	41 e0       	ldi	r20, 0x01	; 1
    3fa0:	6f ec       	ldi	r22, 0xCF	; 207
    3fa2:	7e e1       	ldi	r23, 0x1E	; 30
    3fa4:	81 e0       	ldi	r24, 0x01	; 1
    3fa6:	0e 94 12 2f 	call	0x5e24	; 0x5e24 <debug_string>
    3faa:	64 e0       	ldi	r22, 0x04	; 4
    3fac:	80 e0       	ldi	r24, 0x00	; 0
    3fae:	0e 94 7a 30 	call	0x60f4	; 0x60f4 <sysclk_enable_module>
    3fb2:	80 91 21 04 	lds	r24, 0x0421
    3fb6:	80 fd       	sbrc	r24, 0
    3fb8:	fc cf       	rjmp	.-8      	; 0x3fb2 <main+0x90>
    3fba:	80 e0       	ldi	r24, 0x00	; 0
    3fbc:	0e 94 02 35 	call	0x6a04	; 0x6a04 <rtc_vbat_system_check>
    3fc0:	88 23       	and	r24, r24
    3fc2:	39 f0       	breq	.+14     	; 0x3fd2 <main+0xb0>
    3fc4:	0e 94 2d 35 	call	0x6a5a	; 0x6a5a <rtc_init>
    3fc8:	60 e0       	ldi	r22, 0x00	; 0
    3fca:	70 e0       	ldi	r23, 0x00	; 0
    3fcc:	cb 01       	movw	r24, r22
    3fce:	0e 94 ca 34 	call	0x6994	; 0x6994 <rtc_set_time>
    3fd2:	41 e0       	ldi	r20, 0x01	; 1
    3fd4:	61 eb       	ldi	r22, 0xB1	; 177
    3fd6:	79 e0       	ldi	r23, 0x09	; 9
    3fd8:	81 e0       	ldi	r24, 0x01	; 1
    3fda:	0e 94 12 2f 	call	0x5e24	; 0x5e24 <debug_string>
    3fde:	9f b7       	in	r25, 0x3f	; 63
    3fe0:	f8 94       	cli
    3fe2:	80 91 52 00 	lds	r24, 0x0052
    3fe6:	82 60       	ori	r24, 0x02	; 2
    3fe8:	80 93 52 00 	sts	0x0052, r24
    3fec:	80 91 50 00 	lds	r24, 0x0050
    3ff0:	88 60       	ori	r24, 0x08	; 8
    3ff2:	80 93 50 00 	sts	0x0050, r24
    3ff6:	9f bf       	out	0x3f, r25	; 63
    3ff8:	80 91 51 00 	lds	r24, 0x0051
    3ffc:	83 ff       	sbrs	r24, 3
    3ffe:	fc cf       	rjmp	.-8      	; 0x3ff8 <main+0xd6>
    4000:	41 e0       	ldi	r20, 0x01	; 1
    4002:	6f ec       	ldi	r22, 0xCF	; 207
    4004:	79 e0       	ldi	r23, 0x09	; 9
    4006:	81 e0       	ldi	r24, 0x01	; 1
    4008:	0e 94 12 2f 	call	0x5e24	; 0x5e24 <debug_string>
    400c:	78 94       	sei
    400e:	d1 d2       	rcall	.+1442   	; 0x45b2 <VBusMon_check>
    4010:	2b d2       	rcall	.+1110   	; 0x4468 <raingauge_init>
    4012:	80 e0       	ldi	r24, 0x00	; 0
    4014:	0e 94 8e 2f 	call	0x5f1c	; 0x5f1c <dump_rainstats_to_log>
    4018:	0e 94 b9 16 	call	0x2d72	; 0x2d72 <datalogger_init>
    401c:	81 11       	cpse	r24, r1
    401e:	01 c0       	rjmp	.+2      	; 0x4022 <main+0x100>
    4020:	e2 de       	rcall	.-572    	; 0x3de6 <datalogger_run>
    4022:	c1 e0       	ldi	r28, 0x01	; 1
    4024:	c0 93 67 06 	sts	0x0667, r28
    4028:	73 df       	rcall	.-282    	; 0x3f10 <__portable_avr_delay_cycles.constprop.1>
    402a:	fc cf       	rjmp	.-8      	; 0x4024 <main+0x102>

0000402c <AT24CXX_internalWrite>:
    402c:	cf 93       	push	r28
    402e:	df 93       	push	r29
    4030:	40 e0       	ldi	r20, 0x00	; 0
    4032:	bc 01       	movw	r22, r24
    4034:	80 ea       	ldi	r24, 0xA0	; 160
    4036:	94 e0       	ldi	r25, 0x04	; 4
    4038:	0e 94 50 3d 	call	0x7aa0	; 0x7aa0 <twi_master_transfer>
    403c:	ec 01       	movw	r28, r24
    403e:	ca 3f       	cpi	r28, 0xFA	; 250
    4040:	8f ef       	ldi	r24, 0xFF	; 255
    4042:	d8 07       	cpc	r29, r24
    4044:	09 f4       	brne	.+2      	; 0x4048 <AT24CXX_internalWrite+0x1c>
    4046:	53 c0       	rjmp	.+166    	; 0x40ee <AT24CXX_internalWrite+0xc2>
    4048:	e4 f4       	brge	.+56     	; 0x4082 <AT24CXX_internalWrite+0x56>
    404a:	c7 3f       	cpi	r28, 0xF7	; 247
    404c:	8f ef       	ldi	r24, 0xFF	; 255
    404e:	d8 07       	cpc	r29, r24
    4050:	09 f4       	brne	.+2      	; 0x4054 <AT24CXX_internalWrite+0x28>
    4052:	5f c0       	rjmp	.+190    	; 0x4112 <AT24CXX_internalWrite+0xe6>
    4054:	5c f4       	brge	.+22     	; 0x406c <AT24CXX_internalWrite+0x40>
    4056:	c5 3f       	cpi	r28, 0xF5	; 245
    4058:	8f ef       	ldi	r24, 0xFF	; 255
    405a:	d8 07       	cpc	r29, r24
    405c:	09 f4       	brne	.+2      	; 0x4060 <AT24CXX_internalWrite+0x34>
    405e:	65 c0       	rjmp	.+202    	; 0x412a <AT24CXX_internalWrite+0xfe>
    4060:	c6 3f       	cpi	r28, 0xF6	; 246
    4062:	8f ef       	ldi	r24, 0xFF	; 255
    4064:	d8 07       	cpc	r29, r24
    4066:	09 f0       	breq	.+2      	; 0x406a <AT24CXX_internalWrite+0x3e>
    4068:	66 c0       	rjmp	.+204    	; 0x4136 <AT24CXX_internalWrite+0x10a>
    406a:	59 c0       	rjmp	.+178    	; 0x411e <AT24CXX_internalWrite+0xf2>
    406c:	c8 3f       	cpi	r28, 0xF8	; 248
    406e:	8f ef       	ldi	r24, 0xFF	; 255
    4070:	d8 07       	cpc	r29, r24
    4072:	09 f4       	brne	.+2      	; 0x4076 <AT24CXX_internalWrite+0x4a>
    4074:	48 c0       	rjmp	.+144    	; 0x4106 <AT24CXX_internalWrite+0xda>
    4076:	c9 3f       	cpi	r28, 0xF9	; 249
    4078:	8f ef       	ldi	r24, 0xFF	; 255
    407a:	d8 07       	cpc	r29, r24
    407c:	09 f0       	breq	.+2      	; 0x4080 <AT24CXX_internalWrite+0x54>
    407e:	5b c0       	rjmp	.+182    	; 0x4136 <AT24CXX_internalWrite+0x10a>
    4080:	3c c0       	rjmp	.+120    	; 0x40fa <AT24CXX_internalWrite+0xce>
    4082:	cd 3f       	cpi	r28, 0xFD	; 253
    4084:	8f ef       	ldi	r24, 0xFF	; 255
    4086:	d8 07       	cpc	r29, r24
    4088:	01 f1       	breq	.+64     	; 0x40ca <AT24CXX_internalWrite+0x9e>
    408a:	54 f4       	brge	.+20     	; 0x40a0 <AT24CXX_internalWrite+0x74>
    408c:	cb 3f       	cpi	r28, 0xFB	; 251
    408e:	8f ef       	ldi	r24, 0xFF	; 255
    4090:	d8 07       	cpc	r29, r24
    4092:	39 f1       	breq	.+78     	; 0x40e2 <AT24CXX_internalWrite+0xb6>
    4094:	cc 3f       	cpi	r28, 0xFC	; 252
    4096:	8f ef       	ldi	r24, 0xFF	; 255
    4098:	d8 07       	cpc	r29, r24
    409a:	09 f0       	breq	.+2      	; 0x409e <AT24CXX_internalWrite+0x72>
    409c:	4c c0       	rjmp	.+152    	; 0x4136 <AT24CXX_internalWrite+0x10a>
    409e:	1b c0       	rjmp	.+54     	; 0x40d6 <AT24CXX_internalWrite+0xaa>
    40a0:	cf 3f       	cpi	r28, 0xFF	; 255
    40a2:	8f ef       	ldi	r24, 0xFF	; 255
    40a4:	d8 07       	cpc	r29, r24
    40a6:	29 f0       	breq	.+10     	; 0x40b2 <AT24CXX_internalWrite+0x86>
    40a8:	54 f0       	brlt	.+20     	; 0x40be <AT24CXX_internalWrite+0x92>
    40aa:	20 97       	sbiw	r28, 0x00	; 0
    40ac:	09 f4       	brne	.+2      	; 0x40b0 <AT24CXX_internalWrite+0x84>
    40ae:	48 c0       	rjmp	.+144    	; 0x4140 <AT24CXX_internalWrite+0x114>
    40b0:	42 c0       	rjmp	.+132    	; 0x4136 <AT24CXX_internalWrite+0x10a>
    40b2:	6e ed       	ldi	r22, 0xDE	; 222
    40b4:	79 e0       	ldi	r23, 0x09	; 9
    40b6:	81 e0       	ldi	r24, 0x01	; 1
    40b8:	0e 94 3c 2f 	call	0x5e78	; 0x5e78 <debug_string_P>
    40bc:	41 c0       	rjmp	.+130    	; 0x4140 <AT24CXX_internalWrite+0x114>
    40be:	6b ef       	ldi	r22, 0xFB	; 251
    40c0:	79 e0       	ldi	r23, 0x09	; 9
    40c2:	81 e0       	ldi	r24, 0x01	; 1
    40c4:	0e 94 3c 2f 	call	0x5e78	; 0x5e78 <debug_string_P>
    40c8:	3b c0       	rjmp	.+118    	; 0x4140 <AT24CXX_internalWrite+0x114>
    40ca:	67 e1       	ldi	r22, 0x17	; 23
    40cc:	7a e0       	ldi	r23, 0x0A	; 10
    40ce:	81 e0       	ldi	r24, 0x01	; 1
    40d0:	0e 94 3c 2f 	call	0x5e78	; 0x5e78 <debug_string_P>
    40d4:	35 c0       	rjmp	.+106    	; 0x4140 <AT24CXX_internalWrite+0x114>
    40d6:	63 e3       	ldi	r22, 0x33	; 51
    40d8:	7a e0       	ldi	r23, 0x0A	; 10
    40da:	81 e0       	ldi	r24, 0x01	; 1
    40dc:	0e 94 3c 2f 	call	0x5e78	; 0x5e78 <debug_string_P>
    40e0:	2f c0       	rjmp	.+94     	; 0x4140 <AT24CXX_internalWrite+0x114>
    40e2:	60 e5       	ldi	r22, 0x50	; 80
    40e4:	7a e0       	ldi	r23, 0x0A	; 10
    40e6:	81 e0       	ldi	r24, 0x01	; 1
    40e8:	0e 94 3c 2f 	call	0x5e78	; 0x5e78 <debug_string_P>
    40ec:	29 c0       	rjmp	.+82     	; 0x4140 <AT24CXX_internalWrite+0x114>
    40ee:	6d e6       	ldi	r22, 0x6D	; 109
    40f0:	7a e0       	ldi	r23, 0x0A	; 10
    40f2:	81 e0       	ldi	r24, 0x01	; 1
    40f4:	0e 94 3c 2f 	call	0x5e78	; 0x5e78 <debug_string_P>
    40f8:	23 c0       	rjmp	.+70     	; 0x4140 <AT24CXX_internalWrite+0x114>
    40fa:	61 e9       	ldi	r22, 0x91	; 145
    40fc:	7a e0       	ldi	r23, 0x0A	; 10
    40fe:	81 e0       	ldi	r24, 0x01	; 1
    4100:	0e 94 3c 2f 	call	0x5e78	; 0x5e78 <debug_string_P>
    4104:	1d c0       	rjmp	.+58     	; 0x4140 <AT24CXX_internalWrite+0x114>
    4106:	6f ea       	ldi	r22, 0xAF	; 175
    4108:	7a e0       	ldi	r23, 0x0A	; 10
    410a:	81 e0       	ldi	r24, 0x01	; 1
    410c:	0e 94 3c 2f 	call	0x5e78	; 0x5e78 <debug_string_P>
    4110:	17 c0       	rjmp	.+46     	; 0x4140 <AT24CXX_internalWrite+0x114>
    4112:	6f ec       	ldi	r22, 0xCF	; 207
    4114:	7a e0       	ldi	r23, 0x0A	; 10
    4116:	81 e0       	ldi	r24, 0x01	; 1
    4118:	0e 94 3c 2f 	call	0x5e78	; 0x5e78 <debug_string_P>
    411c:	11 c0       	rjmp	.+34     	; 0x4140 <AT24CXX_internalWrite+0x114>
    411e:	6f ee       	ldi	r22, 0xEF	; 239
    4120:	7a e0       	ldi	r23, 0x0A	; 10
    4122:	81 e0       	ldi	r24, 0x01	; 1
    4124:	0e 94 3c 2f 	call	0x5e78	; 0x5e78 <debug_string_P>
    4128:	0b c0       	rjmp	.+22     	; 0x4140 <AT24CXX_internalWrite+0x114>
    412a:	68 e0       	ldi	r22, 0x08	; 8
    412c:	7b e0       	ldi	r23, 0x0B	; 11
    412e:	81 e0       	ldi	r24, 0x01	; 1
    4130:	0e 94 3c 2f 	call	0x5e78	; 0x5e78 <debug_string_P>
    4134:	05 c0       	rjmp	.+10     	; 0x4140 <AT24CXX_internalWrite+0x114>
    4136:	67 e2       	ldi	r22, 0x27	; 39
    4138:	7b e0       	ldi	r23, 0x0B	; 11
    413a:	81 e0       	ldi	r24, 0x01	; 1
    413c:	0e 94 3c 2f 	call	0x5e78	; 0x5e78 <debug_string_P>
    4140:	ce 01       	movw	r24, r28
    4142:	df 91       	pop	r29
    4144:	cf 91       	pop	r28
    4146:	08 95       	ret

00004148 <AT24CXX_internalRead>:
    4148:	cf 93       	push	r28
    414a:	df 93       	push	r29
    414c:	41 e0       	ldi	r20, 0x01	; 1
    414e:	bc 01       	movw	r22, r24
    4150:	80 ea       	ldi	r24, 0xA0	; 160
    4152:	94 e0       	ldi	r25, 0x04	; 4
    4154:	0e 94 50 3d 	call	0x7aa0	; 0x7aa0 <twi_master_transfer>
    4158:	ec 01       	movw	r28, r24
    415a:	ca 3f       	cpi	r28, 0xFA	; 250
    415c:	8f ef       	ldi	r24, 0xFF	; 255
    415e:	d8 07       	cpc	r29, r24
    4160:	09 f4       	brne	.+2      	; 0x4164 <AT24CXX_internalRead+0x1c>
    4162:	53 c0       	rjmp	.+166    	; 0x420a <AT24CXX_internalRead+0xc2>
    4164:	e4 f4       	brge	.+56     	; 0x419e <AT24CXX_internalRead+0x56>
    4166:	c7 3f       	cpi	r28, 0xF7	; 247
    4168:	8f ef       	ldi	r24, 0xFF	; 255
    416a:	d8 07       	cpc	r29, r24
    416c:	09 f4       	brne	.+2      	; 0x4170 <AT24CXX_internalRead+0x28>
    416e:	5f c0       	rjmp	.+190    	; 0x422e <AT24CXX_internalRead+0xe6>
    4170:	5c f4       	brge	.+22     	; 0x4188 <AT24CXX_internalRead+0x40>
    4172:	c5 3f       	cpi	r28, 0xF5	; 245
    4174:	8f ef       	ldi	r24, 0xFF	; 255
    4176:	d8 07       	cpc	r29, r24
    4178:	09 f4       	brne	.+2      	; 0x417c <AT24CXX_internalRead+0x34>
    417a:	65 c0       	rjmp	.+202    	; 0x4246 <AT24CXX_internalRead+0xfe>
    417c:	c6 3f       	cpi	r28, 0xF6	; 246
    417e:	8f ef       	ldi	r24, 0xFF	; 255
    4180:	d8 07       	cpc	r29, r24
    4182:	09 f0       	breq	.+2      	; 0x4186 <AT24CXX_internalRead+0x3e>
    4184:	66 c0       	rjmp	.+204    	; 0x4252 <AT24CXX_internalRead+0x10a>
    4186:	59 c0       	rjmp	.+178    	; 0x423a <AT24CXX_internalRead+0xf2>
    4188:	c8 3f       	cpi	r28, 0xF8	; 248
    418a:	8f ef       	ldi	r24, 0xFF	; 255
    418c:	d8 07       	cpc	r29, r24
    418e:	09 f4       	brne	.+2      	; 0x4192 <AT24CXX_internalRead+0x4a>
    4190:	48 c0       	rjmp	.+144    	; 0x4222 <AT24CXX_internalRead+0xda>
    4192:	c9 3f       	cpi	r28, 0xF9	; 249
    4194:	8f ef       	ldi	r24, 0xFF	; 255
    4196:	d8 07       	cpc	r29, r24
    4198:	09 f0       	breq	.+2      	; 0x419c <AT24CXX_internalRead+0x54>
    419a:	5b c0       	rjmp	.+182    	; 0x4252 <AT24CXX_internalRead+0x10a>
    419c:	3c c0       	rjmp	.+120    	; 0x4216 <AT24CXX_internalRead+0xce>
    419e:	cd 3f       	cpi	r28, 0xFD	; 253
    41a0:	8f ef       	ldi	r24, 0xFF	; 255
    41a2:	d8 07       	cpc	r29, r24
    41a4:	01 f1       	breq	.+64     	; 0x41e6 <AT24CXX_internalRead+0x9e>
    41a6:	54 f4       	brge	.+20     	; 0x41bc <AT24CXX_internalRead+0x74>
    41a8:	cb 3f       	cpi	r28, 0xFB	; 251
    41aa:	8f ef       	ldi	r24, 0xFF	; 255
    41ac:	d8 07       	cpc	r29, r24
    41ae:	39 f1       	breq	.+78     	; 0x41fe <AT24CXX_internalRead+0xb6>
    41b0:	cc 3f       	cpi	r28, 0xFC	; 252
    41b2:	8f ef       	ldi	r24, 0xFF	; 255
    41b4:	d8 07       	cpc	r29, r24
    41b6:	09 f0       	breq	.+2      	; 0x41ba <AT24CXX_internalRead+0x72>
    41b8:	4c c0       	rjmp	.+152    	; 0x4252 <AT24CXX_internalRead+0x10a>
    41ba:	1b c0       	rjmp	.+54     	; 0x41f2 <AT24CXX_internalRead+0xaa>
    41bc:	cf 3f       	cpi	r28, 0xFF	; 255
    41be:	8f ef       	ldi	r24, 0xFF	; 255
    41c0:	d8 07       	cpc	r29, r24
    41c2:	29 f0       	breq	.+10     	; 0x41ce <AT24CXX_internalRead+0x86>
    41c4:	54 f0       	brlt	.+20     	; 0x41da <AT24CXX_internalRead+0x92>
    41c6:	20 97       	sbiw	r28, 0x00	; 0
    41c8:	09 f4       	brne	.+2      	; 0x41cc <AT24CXX_internalRead+0x84>
    41ca:	48 c0       	rjmp	.+144    	; 0x425c <AT24CXX_internalRead+0x114>
    41cc:	42 c0       	rjmp	.+132    	; 0x4252 <AT24CXX_internalRead+0x10a>
    41ce:	65 e4       	ldi	r22, 0x45	; 69
    41d0:	7b e0       	ldi	r23, 0x0B	; 11
    41d2:	81 e0       	ldi	r24, 0x01	; 1
    41d4:	0e 94 3c 2f 	call	0x5e78	; 0x5e78 <debug_string_P>
    41d8:	41 c0       	rjmp	.+130    	; 0x425c <AT24CXX_internalRead+0x114>
    41da:	61 e6       	ldi	r22, 0x61	; 97
    41dc:	7b e0       	ldi	r23, 0x0B	; 11
    41de:	81 e0       	ldi	r24, 0x01	; 1
    41e0:	0e 94 3c 2f 	call	0x5e78	; 0x5e78 <debug_string_P>
    41e4:	3b c0       	rjmp	.+118    	; 0x425c <AT24CXX_internalRead+0x114>
    41e6:	6d e7       	ldi	r22, 0x7D	; 125
    41e8:	7b e0       	ldi	r23, 0x0B	; 11
    41ea:	81 e0       	ldi	r24, 0x01	; 1
    41ec:	0e 94 3c 2f 	call	0x5e78	; 0x5e78 <debug_string_P>
    41f0:	35 c0       	rjmp	.+106    	; 0x425c <AT24CXX_internalRead+0x114>
    41f2:	69 e9       	ldi	r22, 0x99	; 153
    41f4:	7b e0       	ldi	r23, 0x0B	; 11
    41f6:	81 e0       	ldi	r24, 0x01	; 1
    41f8:	0e 94 3c 2f 	call	0x5e78	; 0x5e78 <debug_string_P>
    41fc:	2f c0       	rjmp	.+94     	; 0x425c <AT24CXX_internalRead+0x114>
    41fe:	66 eb       	ldi	r22, 0xB6	; 182
    4200:	7b e0       	ldi	r23, 0x0B	; 11
    4202:	81 e0       	ldi	r24, 0x01	; 1
    4204:	0e 94 3c 2f 	call	0x5e78	; 0x5e78 <debug_string_P>
    4208:	29 c0       	rjmp	.+82     	; 0x425c <AT24CXX_internalRead+0x114>
    420a:	63 ed       	ldi	r22, 0xD3	; 211
    420c:	7b e0       	ldi	r23, 0x0B	; 11
    420e:	81 e0       	ldi	r24, 0x01	; 1
    4210:	0e 94 3c 2f 	call	0x5e78	; 0x5e78 <debug_string_P>
    4214:	23 c0       	rjmp	.+70     	; 0x425c <AT24CXX_internalRead+0x114>
    4216:	67 ef       	ldi	r22, 0xF7	; 247
    4218:	7b e0       	ldi	r23, 0x0B	; 11
    421a:	81 e0       	ldi	r24, 0x01	; 1
    421c:	0e 94 3c 2f 	call	0x5e78	; 0x5e78 <debug_string_P>
    4220:	1d c0       	rjmp	.+58     	; 0x425c <AT24CXX_internalRead+0x114>
    4222:	65 e1       	ldi	r22, 0x15	; 21
    4224:	7c e0       	ldi	r23, 0x0C	; 12
    4226:	81 e0       	ldi	r24, 0x01	; 1
    4228:	0e 94 3c 2f 	call	0x5e78	; 0x5e78 <debug_string_P>
    422c:	17 c0       	rjmp	.+46     	; 0x425c <AT24CXX_internalRead+0x114>
    422e:	65 e3       	ldi	r22, 0x35	; 53
    4230:	7c e0       	ldi	r23, 0x0C	; 12
    4232:	81 e0       	ldi	r24, 0x01	; 1
    4234:	0e 94 3c 2f 	call	0x5e78	; 0x5e78 <debug_string_P>
    4238:	11 c0       	rjmp	.+34     	; 0x425c <AT24CXX_internalRead+0x114>
    423a:	65 e5       	ldi	r22, 0x55	; 85
    423c:	7c e0       	ldi	r23, 0x0C	; 12
    423e:	81 e0       	ldi	r24, 0x01	; 1
    4240:	0e 94 3c 2f 	call	0x5e78	; 0x5e78 <debug_string_P>
    4244:	0b c0       	rjmp	.+22     	; 0x425c <AT24CXX_internalRead+0x114>
    4246:	6e e6       	ldi	r22, 0x6E	; 110
    4248:	7c e0       	ldi	r23, 0x0C	; 12
    424a:	81 e0       	ldi	r24, 0x01	; 1
    424c:	0e 94 3c 2f 	call	0x5e78	; 0x5e78 <debug_string_P>
    4250:	05 c0       	rjmp	.+10     	; 0x425c <AT24CXX_internalRead+0x114>
    4252:	6d e8       	ldi	r22, 0x8D	; 141
    4254:	7c e0       	ldi	r23, 0x0C	; 12
    4256:	81 e0       	ldi	r24, 0x01	; 1
    4258:	0e 94 3c 2f 	call	0x5e78	; 0x5e78 <debug_string_P>
    425c:	ce 01       	movw	r24, r28
    425e:	df 91       	pop	r29
    4260:	cf 91       	pop	r28
    4262:	08 95       	ret

00004264 <AT24CXX_Init>:
    4264:	0f 93       	push	r16
    4266:	1f 93       	push	r17
    4268:	cf 93       	push	r28
    426a:	df 93       	push	r29
    426c:	cd b7       	in	r28, 0x3d	; 61
    426e:	de b7       	in	r29, 0x3e	; 62
    4270:	29 97       	sbiw	r28, 0x09	; 9
    4272:	cd bf       	out	0x3d, r28	; 61
    4274:	de bf       	out	0x3e, r29	; 62
    4276:	8e 01       	movw	r16, r28
    4278:	0f 5f       	subi	r16, 0xFF	; 255
    427a:	1f 4f       	sbci	r17, 0xFF	; 255
    427c:	89 e0       	ldi	r24, 0x09	; 9
    427e:	f8 01       	movw	r30, r16
    4280:	11 92       	st	Z+, r1
    4282:	8a 95       	dec	r24
    4284:	e9 f7       	brne	.-6      	; 0x4280 <AT24CXX_Init+0x1c>
    4286:	80 e9       	ldi	r24, 0x90	; 144
    4288:	90 ed       	ldi	r25, 0xD0	; 208
    428a:	a3 e0       	ldi	r26, 0x03	; 3
    428c:	b0 e0       	ldi	r27, 0x00	; 0
    428e:	89 83       	std	Y+1, r24	; 0x01
    4290:	9a 83       	std	Y+2, r25	; 0x02
    4292:	ab 83       	std	Y+3, r26	; 0x03
    4294:	bc 83       	std	Y+4, r27	; 0x04
    4296:	89 e9       	ldi	r24, 0x99	; 153
    4298:	89 87       	std	Y+9, r24	; 0x09
    429a:	8b e2       	ldi	r24, 0x2B	; 43
    429c:	90 e0       	ldi	r25, 0x00	; 0
    429e:	a0 e0       	ldi	r26, 0x00	; 0
    42a0:	b0 e0       	ldi	r27, 0x00	; 0
    42a2:	8d 83       	std	Y+5, r24	; 0x05
    42a4:	9e 83       	std	Y+6, r25	; 0x06
    42a6:	af 83       	std	Y+7, r26	; 0x07
    42a8:	b8 87       	std	Y+8, r27	; 0x08
    42aa:	60 e4       	ldi	r22, 0x40	; 64
    42ac:	85 e0       	ldi	r24, 0x05	; 5
    42ae:	90 e0       	ldi	r25, 0x00	; 0
    42b0:	0e 94 7a 30 	call	0x60f4	; 0x60f4 <sysclk_enable_module>
    42b4:	b8 01       	movw	r22, r16
    42b6:	80 ea       	ldi	r24, 0xA0	; 160
    42b8:	94 e0       	ldi	r25, 0x04	; 4
    42ba:	0e 94 38 3d 	call	0x7a70	; 0x7a70 <twi_master_init>
    42be:	29 96       	adiw	r28, 0x09	; 9
    42c0:	cd bf       	out	0x3d, r28	; 61
    42c2:	de bf       	out	0x3e, r29	; 62
    42c4:	df 91       	pop	r29
    42c6:	cf 91       	pop	r28
    42c8:	1f 91       	pop	r17
    42ca:	0f 91       	pop	r16
    42cc:	08 95       	ret

000042ce <AT24CXX_WriteBlockA>:
    42ce:	0f 93       	push	r16
    42d0:	cf 93       	push	r28
    42d2:	df 93       	push	r29
    42d4:	cd b7       	in	r28, 0x3d	; 61
    42d6:	de b7       	in	r29, 0x3e	; 62
    42d8:	2b 97       	sbiw	r28, 0x0b	; 11
    42da:	cd bf       	out	0x3d, r28	; 61
    42dc:	de bf       	out	0x3e, r29	; 62
    42de:	fe 01       	movw	r30, r28
    42e0:	31 96       	adiw	r30, 0x01	; 1
    42e2:	9b e0       	ldi	r25, 0x0B	; 11
    42e4:	df 01       	movw	r26, r30
    42e6:	1d 92       	st	X+, r1
    42e8:	9a 95       	dec	r25
    42ea:	e9 f7       	brne	.-6      	; 0x42e6 <AT24CXX_WriteBlockA+0x18>
    42ec:	80 5b       	subi	r24, 0xB0	; 176
    42ee:	89 83       	std	Y+1, r24	; 0x01
    42f0:	6a 83       	std	Y+2, r22	; 0x02
    42f2:	4b 83       	std	Y+3, r20	; 0x03
    42f4:	82 e0       	ldi	r24, 0x02	; 2
    42f6:	90 e0       	ldi	r25, 0x00	; 0
    42f8:	8d 83       	std	Y+5, r24	; 0x05
    42fa:	9e 83       	std	Y+6, r25	; 0x06
    42fc:	2f 83       	std	Y+7, r18	; 0x07
    42fe:	38 87       	std	Y+8, r19	; 0x08
    4300:	09 87       	std	Y+9, r16	; 0x09
    4302:	1a 86       	std	Y+10, r1	; 0x0a
    4304:	cf 01       	movw	r24, r30
    4306:	92 de       	rcall	.-732    	; 0x402c <AT24CXX_internalWrite>
    4308:	2b 96       	adiw	r28, 0x0b	; 11
    430a:	cd bf       	out	0x3d, r28	; 61
    430c:	de bf       	out	0x3e, r29	; 62
    430e:	df 91       	pop	r29
    4310:	cf 91       	pop	r28
    4312:	0f 91       	pop	r16
    4314:	08 95       	ret

00004316 <AT24CXX_ReadBlockA>:
    4316:	0f 93       	push	r16
    4318:	cf 93       	push	r28
    431a:	df 93       	push	r29
    431c:	cd b7       	in	r28, 0x3d	; 61
    431e:	de b7       	in	r29, 0x3e	; 62
    4320:	2b 97       	sbiw	r28, 0x0b	; 11
    4322:	cd bf       	out	0x3d, r28	; 61
    4324:	de bf       	out	0x3e, r29	; 62
    4326:	fe 01       	movw	r30, r28
    4328:	31 96       	adiw	r30, 0x01	; 1
    432a:	9b e0       	ldi	r25, 0x0B	; 11
    432c:	df 01       	movw	r26, r30
    432e:	1d 92       	st	X+, r1
    4330:	9a 95       	dec	r25
    4332:	e9 f7       	brne	.-6      	; 0x432e <AT24CXX_ReadBlockA+0x18>
    4334:	80 5b       	subi	r24, 0xB0	; 176
    4336:	89 83       	std	Y+1, r24	; 0x01
    4338:	6a 83       	std	Y+2, r22	; 0x02
    433a:	4b 83       	std	Y+3, r20	; 0x03
    433c:	82 e0       	ldi	r24, 0x02	; 2
    433e:	90 e0       	ldi	r25, 0x00	; 0
    4340:	8d 83       	std	Y+5, r24	; 0x05
    4342:	9e 83       	std	Y+6, r25	; 0x06
    4344:	2f 83       	std	Y+7, r18	; 0x07
    4346:	38 87       	std	Y+8, r19	; 0x08
    4348:	09 87       	std	Y+9, r16	; 0x09
    434a:	1a 86       	std	Y+10, r1	; 0x0a
    434c:	cf 01       	movw	r24, r30
    434e:	fc de       	rcall	.-520    	; 0x4148 <AT24CXX_internalRead>
    4350:	2b 96       	adiw	r28, 0x0b	; 11
    4352:	cd bf       	out	0x3d, r28	; 61
    4354:	de bf       	out	0x3e, r29	; 62
    4356:	df 91       	pop	r29
    4358:	cf 91       	pop	r28
    435a:	0f 91       	pop	r16
    435c:	08 95       	ret

0000435e <AT24CXX_iterator_report>:
    435e:	0f 93       	push	r16
    4360:	1f 93       	push	r17
    4362:	cf 93       	push	r28
    4364:	df 93       	push	r29
    4366:	cd b7       	in	r28, 0x3d	; 61
    4368:	de b7       	in	r29, 0x3e	; 62
    436a:	60 97       	sbiw	r28, 0x10	; 16
    436c:	cd bf       	out	0x3d, r28	; 61
    436e:	de bf       	out	0x3e, r29	; 62
    4370:	8c 01       	movw	r16, r24
    4372:	41 e0       	ldi	r20, 0x01	; 1
    4374:	6b ea       	ldi	r22, 0xAB	; 171
    4376:	7c e0       	ldi	r23, 0x0C	; 12
    4378:	81 e0       	ldi	r24, 0x01	; 1
    437a:	0e 94 12 2f 	call	0x5e24	; 0x5e24 <debug_string>
    437e:	4a e0       	ldi	r20, 0x0A	; 10
    4380:	50 e0       	ldi	r21, 0x00	; 0
    4382:	be 01       	movw	r22, r28
    4384:	6f 5f       	subi	r22, 0xFF	; 255
    4386:	7f 4f       	sbci	r23, 0xFF	; 255
    4388:	f8 01       	movw	r30, r16
    438a:	82 81       	ldd	r24, Z+2	; 0x02
    438c:	90 e0       	ldi	r25, 0x00	; 0
    438e:	0e 94 3e 49 	call	0x927c	; 0x927c <itoa>
    4392:	40 e0       	ldi	r20, 0x00	; 0
    4394:	be 01       	movw	r22, r28
    4396:	6f 5f       	subi	r22, 0xFF	; 255
    4398:	7f 4f       	sbci	r23, 0xFF	; 255
    439a:	81 e0       	ldi	r24, 0x01	; 1
    439c:	0e 94 12 2f 	call	0x5e24	; 0x5e24 <debug_string>
    43a0:	41 e0       	ldi	r20, 0x01	; 1
    43a2:	6e ea       	ldi	r22, 0xAE	; 174
    43a4:	7c e0       	ldi	r23, 0x0C	; 12
    43a6:	81 e0       	ldi	r24, 0x01	; 1
    43a8:	0e 94 12 2f 	call	0x5e24	; 0x5e24 <debug_string>
    43ac:	4a e0       	ldi	r20, 0x0A	; 10
    43ae:	50 e0       	ldi	r21, 0x00	; 0
    43b0:	be 01       	movw	r22, r28
    43b2:	6f 5f       	subi	r22, 0xFF	; 255
    43b4:	7f 4f       	sbci	r23, 0xFF	; 255
    43b6:	f8 01       	movw	r30, r16
    43b8:	81 81       	ldd	r24, Z+1	; 0x01
    43ba:	90 e0       	ldi	r25, 0x00	; 0
    43bc:	0e 94 3e 49 	call	0x927c	; 0x927c <itoa>
    43c0:	40 e0       	ldi	r20, 0x00	; 0
    43c2:	be 01       	movw	r22, r28
    43c4:	6f 5f       	subi	r22, 0xFF	; 255
    43c6:	7f 4f       	sbci	r23, 0xFF	; 255
    43c8:	81 e0       	ldi	r24, 0x01	; 1
    43ca:	0e 94 12 2f 	call	0x5e24	; 0x5e24 <debug_string>
    43ce:	41 e0       	ldi	r20, 0x01	; 1
    43d0:	62 eb       	ldi	r22, 0xB2	; 178
    43d2:	7c e0       	ldi	r23, 0x0C	; 12
    43d4:	81 e0       	ldi	r24, 0x01	; 1
    43d6:	0e 94 12 2f 	call	0x5e24	; 0x5e24 <debug_string>
    43da:	4a e0       	ldi	r20, 0x0A	; 10
    43dc:	50 e0       	ldi	r21, 0x00	; 0
    43de:	be 01       	movw	r22, r28
    43e0:	6f 5f       	subi	r22, 0xFF	; 255
    43e2:	7f 4f       	sbci	r23, 0xFF	; 255
    43e4:	f8 01       	movw	r30, r16
    43e6:	80 81       	ld	r24, Z
    43e8:	90 e0       	ldi	r25, 0x00	; 0
    43ea:	0e 94 3e 49 	call	0x927c	; 0x927c <itoa>
    43ee:	40 e0       	ldi	r20, 0x00	; 0
    43f0:	be 01       	movw	r22, r28
    43f2:	6f 5f       	subi	r22, 0xFF	; 255
    43f4:	7f 4f       	sbci	r23, 0xFF	; 255
    43f6:	81 e0       	ldi	r24, 0x01	; 1
    43f8:	0e 94 12 2f 	call	0x5e24	; 0x5e24 <debug_string>
    43fc:	41 e0       	ldi	r20, 0x01	; 1
    43fe:	66 eb       	ldi	r22, 0xB6	; 182
    4400:	7c e0       	ldi	r23, 0x0C	; 12
    4402:	81 e0       	ldi	r24, 0x01	; 1
    4404:	0e 94 12 2f 	call	0x5e24	; 0x5e24 <debug_string>
    4408:	60 96       	adiw	r28, 0x10	; 16
    440a:	cd bf       	out	0x3d, r28	; 61
    440c:	de bf       	out	0x3e, r29	; 62
    440e:	df 91       	pop	r29
    4410:	cf 91       	pop	r28
    4412:	1f 91       	pop	r17
    4414:	0f 91       	pop	r16
    4416:	08 95       	ret

00004418 <raingauge_reset_stats>:
    4418:	9a e0       	ldi	r25, 0x0A	; 10
    441a:	89 9f       	mul	r24, r25
    441c:	a0 01       	movw	r20, r0
    441e:	11 24       	eor	r1, r1
    4420:	46 57       	subi	r20, 0x76	; 118
    4422:	5a 4d       	sbci	r21, 0xDA	; 218
    4424:	61 15       	cp	r22, r1
    4426:	71 05       	cpc	r23, r1
    4428:	51 f4       	brne	.+20     	; 0x443e <raingauge_reset_stats+0x26>
    442a:	2a e0       	ldi	r18, 0x0A	; 10
    442c:	30 e0       	ldi	r19, 0x00	; 0
    442e:	69 eb       	ldi	r22, 0xB9	; 185
    4430:	7c e0       	ldi	r23, 0x0C	; 12
    4432:	88 27       	eor	r24, r24
    4434:	77 fd       	sbrc	r23, 7
    4436:	80 95       	com	r24
    4438:	98 2f       	mov	r25, r24
    443a:	0c 94 84 34 	jmp	0x6908	; 0x6908 <nvm_flash_read_buffer>
    443e:	8a e0       	ldi	r24, 0x0A	; 10
    4440:	fb 01       	movw	r30, r22
    4442:	da 01       	movw	r26, r20
    4444:	01 90       	ld	r0, Z+
    4446:	0d 92       	st	X+, r0
    4448:	8a 95       	dec	r24
    444a:	e1 f7       	brne	.-8      	; 0x4444 <raingauge_reset_stats+0x2c>
    444c:	08 95       	ret

0000444e <raingauge_get_stats>:
    444e:	9a e0       	ldi	r25, 0x0A	; 10
    4450:	89 9f       	mul	r24, r25
    4452:	f0 01       	movw	r30, r0
    4454:	11 24       	eor	r1, r1
    4456:	e6 57       	subi	r30, 0x76	; 118
    4458:	fa 4d       	sbci	r31, 0xDA	; 218
    445a:	8a e0       	ldi	r24, 0x0A	; 10
    445c:	db 01       	movw	r26, r22
    445e:	01 90       	ld	r0, Z+
    4460:	0d 92       	st	X+, r0
    4462:	8a 95       	dec	r24
    4464:	e1 f7       	brne	.-8      	; 0x445e <raingauge_get_stats+0x10>
    4466:	08 95       	ret

00004468 <raingauge_init>:
    4468:	e0 ee       	ldi	r30, 0xE0	; 224
    446a:	f7 e0       	ldi	r31, 0x07	; 7
    446c:	81 85       	ldd	r24, Z+9	; 0x09
    446e:	8c 7f       	andi	r24, 0xFC	; 252
    4470:	82 60       	ori	r24, 0x02	; 2
    4472:	81 87       	std	Z+9, r24	; 0x09
    4474:	83 e0       	ldi	r24, 0x03	; 3
    4476:	82 87       	std	Z+10, r24	; 0x0a
    4478:	e0 ea       	ldi	r30, 0xA0	; 160
    447a:	f0 e0       	ldi	r31, 0x00	; 0
    447c:	82 81       	ldd	r24, Z+2	; 0x02
    447e:	82 60       	ori	r24, 0x02	; 2
    4480:	82 83       	std	Z+2, r24	; 0x02
    4482:	9f b7       	in	r25, 0x3f	; 63
    4484:	f8 94       	cli
    4486:	e9 ec       	ldi	r30, 0xC9	; 201
    4488:	f5 e2       	ldi	r31, 0x25	; 37
    448a:	80 81       	ld	r24, Z
    448c:	8f 5f       	subi	r24, 0xFF	; 255
    448e:	80 83       	st	Z, r24
    4490:	9f bf       	out	0x3f, r25	; 63
    4492:	60 e0       	ldi	r22, 0x00	; 0
    4494:	70 e0       	ldi	r23, 0x00	; 0
    4496:	80 e0       	ldi	r24, 0x00	; 0
    4498:	bf cf       	rjmp	.-130    	; 0x4418 <raingauge_reset_stats>

0000449a <__vector_4>:
    449a:	1f 92       	push	r1
    449c:	0f 92       	push	r0
    449e:	0f b6       	in	r0, 0x3f	; 63
    44a0:	0f 92       	push	r0
    44a2:	11 24       	eor	r1, r1
    44a4:	2f 93       	push	r18
    44a6:	3f 93       	push	r19
    44a8:	4f 93       	push	r20
    44aa:	5f 93       	push	r21
    44ac:	8f 93       	push	r24
    44ae:	9f 93       	push	r25
    44b0:	80 91 60 08 	lds	r24, 0x0860
    44b4:	90 91 61 08 	lds	r25, 0x0861
    44b8:	20 91 8c 25 	lds	r18, 0x258C
    44bc:	30 91 8d 25 	lds	r19, 0x258D
    44c0:	2f 3f       	cpi	r18, 0xFF	; 255
    44c2:	3f 4f       	sbci	r19, 0xFF	; 255
    44c4:	d9 f0       	breq	.+54     	; 0x44fc <__vector_4+0x62>
    44c6:	20 91 8c 25 	lds	r18, 0x258C
    44ca:	30 91 8d 25 	lds	r19, 0x258D
    44ce:	ac 01       	movw	r20, r24
    44d0:	42 1b       	sub	r20, r18
    44d2:	53 0b       	sbc	r21, r19
    44d4:	9a 01       	movw	r18, r20
    44d6:	44 31       	cpi	r20, 0x14	; 20
    44d8:	51 05       	cpc	r21, r1
    44da:	20 f1       	brcs	.+72     	; 0x4524 <__vector_4+0x8a>
    44dc:	40 91 90 25 	lds	r20, 0x2590
    44e0:	50 91 91 25 	lds	r21, 0x2591
    44e4:	24 17       	cp	r18, r20
    44e6:	35 07       	cpc	r19, r21
    44e8:	68 f4       	brcc	.+26     	; 0x4504 <__vector_4+0x6a>
    44ea:	20 93 90 25 	sts	0x2590, r18
    44ee:	30 93 91 25 	sts	0x2591, r19
    44f2:	80 93 8e 25 	sts	0x258E, r24
    44f6:	90 93 8f 25 	sts	0x258F, r25
    44fa:	04 c0       	rjmp	.+8      	; 0x4504 <__vector_4+0x6a>
    44fc:	80 93 8a 25 	sts	0x258A, r24
    4500:	90 93 8b 25 	sts	0x258B, r25
    4504:	80 93 8c 25 	sts	0x258C, r24
    4508:	90 93 8d 25 	sts	0x258D, r25
    450c:	80 91 92 25 	lds	r24, 0x2592
    4510:	90 91 93 25 	lds	r25, 0x2593
    4514:	01 96       	adiw	r24, 0x01	; 1
    4516:	80 93 92 25 	sts	0x2592, r24
    451a:	90 93 93 25 	sts	0x2593, r25
    451e:	81 e0       	ldi	r24, 0x01	; 1
    4520:	80 93 67 06 	sts	0x0667, r24
    4524:	9f 91       	pop	r25
    4526:	8f 91       	pop	r24
    4528:	5f 91       	pop	r21
    452a:	4f 91       	pop	r20
    452c:	3f 91       	pop	r19
    452e:	2f 91       	pop	r18
    4530:	0f 90       	pop	r0
    4532:	0f be       	out	0x3f, r0	; 63
    4534:	0f 90       	pop	r0
    4536:	1f 90       	pop	r1
    4538:	18 95       	reti

0000453a <__portable_avr_delay_cycles>:
    453a:	61 50       	subi	r22, 0x01	; 1
    453c:	71 09       	sbc	r23, r1
    453e:	81 09       	sbc	r24, r1
    4540:	91 09       	sbc	r25, r1
    4542:	d9 f7       	brne	.-10     	; 0x453a <__portable_avr_delay_cycles>
    4544:	08 95       	ret

00004546 <statusled_blink.constprop.0>:
    4546:	1f 93       	push	r17
    4548:	cf 93       	push	r28
    454a:	df 93       	push	r29
    454c:	c0 e6       	ldi	r28, 0x60	; 96
    454e:	d6 e0       	ldi	r29, 0x06	; 6
    4550:	11 e0       	ldi	r17, 0x01	; 1
    4552:	1d 83       	std	Y+5, r17	; 0x05
    4554:	60 e8       	ldi	r22, 0x80	; 128
    4556:	7a e1       	ldi	r23, 0x1A	; 26
    4558:	86 e0       	ldi	r24, 0x06	; 6
    455a:	90 e0       	ldi	r25, 0x00	; 0
    455c:	ee df       	rcall	.-36     	; 0x453a <__portable_avr_delay_cycles>
    455e:	1e 83       	std	Y+6, r17	; 0x06
    4560:	60 e4       	ldi	r22, 0x40	; 64
    4562:	7d e0       	ldi	r23, 0x0D	; 13
    4564:	83 e0       	ldi	r24, 0x03	; 3
    4566:	90 e0       	ldi	r25, 0x00	; 0
    4568:	e8 df       	rcall	.-48     	; 0x453a <__portable_avr_delay_cycles>
    456a:	1d 83       	std	Y+5, r17	; 0x05
    456c:	60 e8       	ldi	r22, 0x80	; 128
    456e:	7a e1       	ldi	r23, 0x1A	; 26
    4570:	86 e0       	ldi	r24, 0x06	; 6
    4572:	90 e0       	ldi	r25, 0x00	; 0
    4574:	e2 df       	rcall	.-60     	; 0x453a <__portable_avr_delay_cycles>
    4576:	1e 83       	std	Y+6, r17	; 0x06
    4578:	60 e4       	ldi	r22, 0x40	; 64
    457a:	7d e0       	ldi	r23, 0x0D	; 13
    457c:	83 e0       	ldi	r24, 0x03	; 3
    457e:	90 e0       	ldi	r25, 0x00	; 0
    4580:	dc df       	rcall	.-72     	; 0x453a <__portable_avr_delay_cycles>
    4582:	60 e4       	ldi	r22, 0x40	; 64
    4584:	7d e0       	ldi	r23, 0x0D	; 13
    4586:	83 e0       	ldi	r24, 0x03	; 3
    4588:	90 e0       	ldi	r25, 0x00	; 0
    458a:	d7 df       	rcall	.-82     	; 0x453a <__portable_avr_delay_cycles>
    458c:	1d 83       	std	Y+5, r17	; 0x05
    458e:	df 91       	pop	r29
    4590:	cf 91       	pop	r28
    4592:	1f 91       	pop	r17
    4594:	08 95       	ret

00004596 <VBusMon_init>:
    4596:	e0 e6       	ldi	r30, 0x60	; 96
    4598:	f6 e0       	ldi	r31, 0x06	; 6
    459a:	81 85       	ldd	r24, Z+9	; 0x09
    459c:	8c 7f       	andi	r24, 0xFC	; 252
    459e:	81 60       	ori	r24, 0x01	; 1
    45a0:	81 87       	std	Z+9, r24	; 0x09
    45a2:	80 e2       	ldi	r24, 0x20	; 32
    45a4:	82 87       	std	Z+10, r24	; 0x0a
    45a6:	e0 ea       	ldi	r30, 0xA0	; 160
    45a8:	f0 e0       	ldi	r31, 0x00	; 0
    45aa:	82 81       	ldd	r24, Z+2	; 0x02
    45ac:	81 60       	ori	r24, 0x01	; 1
    45ae:	82 83       	std	Z+2, r24	; 0x02
    45b0:	08 95       	ret

000045b2 <VBusMon_check>:
    45b2:	cf 93       	push	r28
    45b4:	80 91 d2 22 	lds	r24, 0x22D2
    45b8:	81 30       	cpi	r24, 0x01	; 1
    45ba:	61 f1       	breq	.+88     	; 0x4614 <VBusMon_check+0x62>
    45bc:	c1 e0       	ldi	r28, 0x01	; 1
    45be:	c0 93 d2 22 	sts	0x22D2, r28
    45c2:	80 91 68 06 	lds	r24, 0x0668
    45c6:	85 fd       	sbrc	r24, 5
    45c8:	12 c0       	rjmp	.+36     	; 0x45ee <VBusMon_check+0x3c>
    45ca:	80 e0       	ldi	r24, 0x00	; 0
    45cc:	0e 94 f3 2f 	call	0x5fe6	; 0x5fe6 <vbus_action>
    45d0:	0e 94 be 31 	call	0x637c	; 0x637c <udc_stop>
    45d4:	82 e0       	ldi	r24, 0x02	; 2
    45d6:	80 93 56 00 	sts	0x0056, r24
    45da:	c0 93 60 00 	sts	0x0060, r28
    45de:	b3 df       	rcall	.-154    	; 0x4546 <statusled_blink.constprop.0>
    45e0:	41 e0       	ldi	r20, 0x01	; 1
    45e2:	63 ec       	ldi	r22, 0xC3	; 195
    45e4:	7c e0       	ldi	r23, 0x0C	; 12
    45e6:	82 e0       	ldi	r24, 0x02	; 2
    45e8:	0e 94 12 2f 	call	0x5e24	; 0x5e24 <debug_string>
    45ec:	11 c0       	rjmp	.+34     	; 0x4610 <VBusMon_check+0x5e>
    45ee:	84 e0       	ldi	r24, 0x04	; 4
    45f0:	80 93 56 00 	sts	0x0056, r24
    45f4:	c0 93 60 00 	sts	0x0060, r28
    45f8:	0e 94 9c 31 	call	0x6338	; 0x6338 <udc_start>
    45fc:	81 e0       	ldi	r24, 0x01	; 1
    45fe:	0e 94 f3 2f 	call	0x5fe6	; 0x5fe6 <vbus_action>
    4602:	a1 df       	rcall	.-190    	; 0x4546 <statusled_blink.constprop.0>
    4604:	41 e0       	ldi	r20, 0x01	; 1
    4606:	65 ed       	ldi	r22, 0xD5	; 213
    4608:	7c e0       	ldi	r23, 0x0C	; 12
    460a:	82 e0       	ldi	r24, 0x02	; 2
    460c:	0e 94 12 2f 	call	0x5e24	; 0x5e24 <debug_string>
    4610:	10 92 d2 22 	sts	0x22D2, r1
    4614:	cf 91       	pop	r28
    4616:	08 95       	ret

00004618 <__vector_64>:
    4618:	1f 92       	push	r1
    461a:	0f 92       	push	r0
    461c:	0f b6       	in	r0, 0x3f	; 63
    461e:	0f 92       	push	r0
    4620:	11 24       	eor	r1, r1
    4622:	0b b6       	in	r0, 0x3b	; 59
    4624:	0f 92       	push	r0
    4626:	2f 93       	push	r18
    4628:	3f 93       	push	r19
    462a:	4f 93       	push	r20
    462c:	5f 93       	push	r21
    462e:	6f 93       	push	r22
    4630:	7f 93       	push	r23
    4632:	8f 93       	push	r24
    4634:	9f 93       	push	r25
    4636:	af 93       	push	r26
    4638:	bf 93       	push	r27
    463a:	ef 93       	push	r30
    463c:	ff 93       	push	r31
    463e:	b9 df       	rcall	.-142    	; 0x45b2 <VBusMon_check>
    4640:	ff 91       	pop	r31
    4642:	ef 91       	pop	r30
    4644:	bf 91       	pop	r27
    4646:	af 91       	pop	r26
    4648:	9f 91       	pop	r25
    464a:	8f 91       	pop	r24
    464c:	7f 91       	pop	r23
    464e:	6f 91       	pop	r22
    4650:	5f 91       	pop	r21
    4652:	4f 91       	pop	r20
    4654:	3f 91       	pop	r19
    4656:	2f 91       	pop	r18
    4658:	0f 90       	pop	r0
    465a:	0b be       	out	0x3b, r0	; 59
    465c:	0f 90       	pop	r0
    465e:	0f be       	out	0x3f, r0	; 63
    4660:	0f 90       	pop	r0
    4662:	1f 90       	pop	r1
    4664:	18 95       	reti

00004666 <__portable_avr_delay_cycles.constprop.5>:
    4666:	80 e0       	ldi	r24, 0x00	; 0
    4668:	90 e0       	ldi	r25, 0x00	; 0
    466a:	01 96       	adiw	r24, 0x01	; 1
    466c:	80 34       	cpi	r24, 0x40	; 64
    466e:	2f e1       	ldi	r18, 0x1F	; 31
    4670:	92 07       	cpc	r25, r18
    4672:	d9 f7       	brne	.-10     	; 0x466a <__portable_avr_delay_cycles.constprop.5+0x4>
    4674:	08 95       	ret

00004676 <voltmeter_init>:
    4676:	08 95       	ret

00004678 <voltmeter_getValue>:
    4678:	cf 92       	push	r12
    467a:	df 92       	push	r13
    467c:	ef 92       	push	r14
    467e:	ff 92       	push	r15
    4680:	0f 93       	push	r16
    4682:	1f 93       	push	r17
    4684:	cf 93       	push	r28
    4686:	df 93       	push	r29
    4688:	cd b7       	in	r28, 0x3d	; 61
    468a:	de b7       	in	r29, 0x3e	; 62
    468c:	ab 97       	sbiw	r28, 0x2b	; 43
    468e:	cd bf       	out	0x3d, r28	; 61
    4690:	de bf       	out	0x3e, r29	; 62
    4692:	be 01       	movw	r22, r28
    4694:	6f 5d       	subi	r22, 0xDF	; 223
    4696:	7f 4f       	sbci	r23, 0xFF	; 255
    4698:	80 e0       	ldi	r24, 0x00	; 0
    469a:	92 e0       	ldi	r25, 0x02	; 2
    469c:	0e 94 3a 2e 	call	0x5c74	; 0x5c74 <adc_read_configuration>
    46a0:	ae 01       	movw	r20, r28
    46a2:	48 5d       	subi	r20, 0xD8	; 216
    46a4:	5f 4f       	sbci	r21, 0xFF	; 255
    46a6:	61 e0       	ldi	r22, 0x01	; 1
    46a8:	80 e0       	ldi	r24, 0x00	; 0
    46aa:	92 e0       	ldi	r25, 0x02	; 2
    46ac:	0e 94 a5 2e 	call	0x5d4a	; 0x5d4a <adcch_read_configuration>
    46b0:	9a a1       	ldd	r25, Y+34	; 0x22
    46b2:	8b a1       	ldd	r24, Y+35	; 0x23
    46b4:	8f 78       	andi	r24, 0x8F	; 143
    46b6:	80 61       	ori	r24, 0x10	; 16
    46b8:	8b a3       	std	Y+35, r24	; 0x23
    46ba:	91 7e       	andi	r25, 0xE1	; 225
    46bc:	9a a3       	std	Y+34, r25	; 0x22
    46be:	1c a2       	std	Y+36, r1	; 0x24
    46c0:	86 e0       	ldi	r24, 0x06	; 6
    46c2:	8d a3       	std	Y+37, r24	; 0x25
    46c4:	81 e0       	ldi	r24, 0x01	; 1
    46c6:	88 a7       	std	Y+40, r24	; 0x28
    46c8:	88 e0       	ldi	r24, 0x08	; 8
    46ca:	89 a7       	std	Y+41, r24	; 0x29
    46cc:	be 01       	movw	r22, r28
    46ce:	6f 5d       	subi	r22, 0xDF	; 223
    46d0:	7f 4f       	sbci	r23, 0xFF	; 255
    46d2:	80 e0       	ldi	r24, 0x00	; 0
    46d4:	92 e0       	ldi	r25, 0x02	; 2
    46d6:	0e 94 f8 2d 	call	0x5bf0	; 0x5bf0 <adc_write_configuration>
    46da:	ae 01       	movw	r20, r28
    46dc:	48 5d       	subi	r20, 0xD8	; 216
    46de:	5f 4f       	sbci	r21, 0xFF	; 255
    46e0:	61 e0       	ldi	r22, 0x01	; 1
    46e2:	80 e0       	ldi	r24, 0x00	; 0
    46e4:	92 e0       	ldi	r25, 0x02	; 2
    46e6:	0e 94 5d 2e 	call	0x5cba	; 0x5cba <adcch_write_configuration>
    46ea:	41 e0       	ldi	r20, 0x01	; 1
    46ec:	50 e0       	ldi	r21, 0x00	; 0
    46ee:	60 e1       	ldi	r22, 0x10	; 16
    46f0:	80 ea       	ldi	r24, 0xA0	; 160
    46f2:	96 e0       	ldi	r25, 0x06	; 6
    46f4:	0e 94 b2 30 	call	0x6164	; 0x6164 <ioport_configure_port_pin>
    46f8:	b6 df       	rcall	.-148    	; 0x4666 <__portable_avr_delay_cycles.constprop.5>
    46fa:	80 e0       	ldi	r24, 0x00	; 0
    46fc:	92 e0       	ldi	r25, 0x02	; 2
    46fe:	0e 94 bc 2d 	call	0x5b78	; 0x5b78 <adc_enable>
    4702:	9f b7       	in	r25, 0x3f	; 63
    4704:	f8 94       	cli
    4706:	80 91 00 02 	lds	r24, 0x0200
    470a:	84 60       	ori	r24, 0x04	; 4
    470c:	80 93 00 02 	sts	0x0200, r24
    4710:	9f bf       	out	0x3f, r25	; 63
    4712:	80 91 06 02 	lds	r24, 0x0206
    4716:	98 2f       	mov	r25, r24
    4718:	91 70       	andi	r25, 0x01	; 1
    471a:	80 ff       	sbrs	r24, 0
    471c:	fa cf       	rjmp	.-12     	; 0x4712 <voltmeter_getValue+0x9a>
    471e:	90 93 06 02 	sts	0x0206, r25
    4722:	00 91 24 02 	lds	r16, 0x0224
    4726:	10 91 25 02 	lds	r17, 0x0225
    472a:	d0 2e       	mov	r13, r16
    472c:	c1 2e       	mov	r12, r17
    472e:	80 e0       	ldi	r24, 0x00	; 0
    4730:	92 e0       	ldi	r25, 0x02	; 2
    4732:	0e 94 d3 2d 	call	0x5ba6	; 0x5ba6 <adc_disable>
    4736:	18 a6       	std	Y+40, r1	; 0x28
    4738:	88 e0       	ldi	r24, 0x08	; 8
    473a:	89 a7       	std	Y+41, r24	; 0x29
    473c:	ae 01       	movw	r20, r28
    473e:	48 5d       	subi	r20, 0xD8	; 216
    4740:	5f 4f       	sbci	r21, 0xFF	; 255
    4742:	61 e0       	ldi	r22, 0x01	; 1
    4744:	80 e0       	ldi	r24, 0x00	; 0
    4746:	92 e0       	ldi	r25, 0x02	; 2
    4748:	0e 94 5d 2e 	call	0x5cba	; 0x5cba <adcch_write_configuration>
    474c:	80 e0       	ldi	r24, 0x00	; 0
    474e:	92 e0       	ldi	r25, 0x02	; 2
    4750:	0e 94 bc 2d 	call	0x5b78	; 0x5b78 <adc_enable>
    4754:	9f b7       	in	r25, 0x3f	; 63
    4756:	f8 94       	cli
    4758:	80 91 00 02 	lds	r24, 0x0200
    475c:	84 60       	ori	r24, 0x04	; 4
    475e:	80 93 00 02 	sts	0x0200, r24
    4762:	9f bf       	out	0x3f, r25	; 63
    4764:	80 91 06 02 	lds	r24, 0x0206
    4768:	98 2f       	mov	r25, r24
    476a:	91 70       	andi	r25, 0x01	; 1
    476c:	80 ff       	sbrs	r24, 0
    476e:	fa cf       	rjmp	.-12     	; 0x4764 <voltmeter_getValue+0xec>
    4770:	90 93 06 02 	sts	0x0206, r25
    4774:	9f b7       	in	r25, 0x3f	; 63
    4776:	f8 94       	cli
    4778:	80 91 00 02 	lds	r24, 0x0200
    477c:	84 60       	ori	r24, 0x04	; 4
    477e:	80 93 00 02 	sts	0x0200, r24
    4782:	9f bf       	out	0x3f, r25	; 63
    4784:	80 91 06 02 	lds	r24, 0x0206
    4788:	98 2f       	mov	r25, r24
    478a:	91 70       	andi	r25, 0x01	; 1
    478c:	80 ff       	sbrs	r24, 0
    478e:	fa cf       	rjmp	.-12     	; 0x4784 <voltmeter_getValue+0x10c>
    4790:	90 93 06 02 	sts	0x0206, r25
    4794:	e0 90 24 02 	lds	r14, 0x0224
    4798:	f0 90 25 02 	lds	r15, 0x0225
    479c:	80 e0       	ldi	r24, 0x00	; 0
    479e:	92 e0       	ldi	r25, 0x02	; 2
    47a0:	0e 94 d3 2d 	call	0x5ba6	; 0x5ba6 <adc_disable>
    47a4:	ff 92       	push	r15
    47a6:	ef 92       	push	r14
    47a8:	cf 92       	push	r12
    47aa:	df 92       	push	r13
    47ac:	86 ee       	ldi	r24, 0xE6	; 230
    47ae:	9c e0       	ldi	r25, 0x0C	; 12
    47b0:	9f 93       	push	r25
    47b2:	8f 93       	push	r24
    47b4:	ee 24       	eor	r14, r14
    47b6:	e3 94       	inc	r14
    47b8:	f1 2c       	mov	r15, r1
    47ba:	ec 0e       	add	r14, r28
    47bc:	fd 1e       	adc	r15, r29
    47be:	ff 92       	push	r15
    47c0:	ef 92       	push	r14
    47c2:	0e 94 93 49 	call	0x9326	; 0x9326 <sprintf_P>
    47c6:	40 e0       	ldi	r20, 0x00	; 0
    47c8:	b7 01       	movw	r22, r14
    47ca:	81 e0       	ldi	r24, 0x01	; 1
    47cc:	0e 94 12 2f 	call	0x5e24	; 0x5e24 <debug_string>
    47d0:	40 e0       	ldi	r20, 0x00	; 0
    47d2:	50 e0       	ldi	r21, 0x00	; 0
    47d4:	60 e1       	ldi	r22, 0x10	; 16
    47d6:	80 ea       	ldi	r24, 0xA0	; 160
    47d8:	96 e0       	ldi	r25, 0x06	; 6
    47da:	0e 94 b2 30 	call	0x6164	; 0x6164 <ioport_configure_port_pin>
    47de:	cd bf       	out	0x3d, r28	; 61
    47e0:	de bf       	out	0x3e, r29	; 62
    47e2:	c8 01       	movw	r24, r16
    47e4:	ab 96       	adiw	r28, 0x2b	; 43
    47e6:	cd bf       	out	0x3d, r28	; 61
    47e8:	de bf       	out	0x3e, r29	; 62
    47ea:	df 91       	pop	r29
    47ec:	cf 91       	pop	r28
    47ee:	1f 91       	pop	r17
    47f0:	0f 91       	pop	r16
    47f2:	ff 90       	pop	r15
    47f4:	ef 90       	pop	r14
    47f6:	df 90       	pop	r13
    47f8:	cf 90       	pop	r12
    47fa:	08 95       	ret

000047fc <thermometer_getValue>:
    47fc:	ef 92       	push	r14
    47fe:	ff 92       	push	r15
    4800:	0f 93       	push	r16
    4802:	1f 93       	push	r17
    4804:	cf 93       	push	r28
    4806:	df 93       	push	r29
    4808:	cd b7       	in	r28, 0x3d	; 61
    480a:	de b7       	in	r29, 0x3e	; 62
    480c:	ad 97       	sbiw	r28, 0x2d	; 45
    480e:	cd bf       	out	0x3d, r28	; 61
    4810:	de bf       	out	0x3e, r29	; 62
    4812:	be 01       	movw	r22, r28
    4814:	6f 5d       	subi	r22, 0xDF	; 223
    4816:	7f 4f       	sbci	r23, 0xFF	; 255
    4818:	80 e0       	ldi	r24, 0x00	; 0
    481a:	92 e0       	ldi	r25, 0x02	; 2
    481c:	0e 94 3a 2e 	call	0x5c74	; 0x5c74 <adc_read_configuration>
    4820:	ae 01       	movw	r20, r28
    4822:	48 5d       	subi	r20, 0xD8	; 216
    4824:	5f 4f       	sbci	r21, 0xFF	; 255
    4826:	61 e0       	ldi	r22, 0x01	; 1
    4828:	80 e0       	ldi	r24, 0x00	; 0
    482a:	92 e0       	ldi	r25, 0x02	; 2
    482c:	0e 94 a5 2e 	call	0x5d4a	; 0x5d4a <adcch_read_configuration>
    4830:	9a a1       	ldd	r25, Y+34	; 0x22
    4832:	8b a1       	ldd	r24, Y+35	; 0x23
    4834:	8f 78       	andi	r24, 0x8F	; 143
    4836:	25 e0       	ldi	r18, 0x05	; 5
    4838:	2d a3       	std	Y+37, r18	; 0x25
    483a:	91 7e       	andi	r25, 0xE1	; 225
    483c:	9a a3       	std	Y+34, r25	; 0x22
    483e:	1c a2       	std	Y+36, r1	; 0x24
    4840:	81 60       	ori	r24, 0x01	; 1
    4842:	8b a3       	std	Y+35, r24	; 0x23
    4844:	be 01       	movw	r22, r28
    4846:	6f 5d       	subi	r22, 0xDF	; 223
    4848:	7f 4f       	sbci	r23, 0xFF	; 255
    484a:	80 e0       	ldi	r24, 0x00	; 0
    484c:	92 e0       	ldi	r25, 0x02	; 2
    484e:	0e 94 f8 2d 	call	0x5bf0	; 0x5bf0 <adc_write_configuration>
    4852:	18 a6       	std	Y+40, r1	; 0x28
    4854:	19 a6       	std	Y+41, r1	; 0x29
    4856:	ae 01       	movw	r20, r28
    4858:	48 5d       	subi	r20, 0xD8	; 216
    485a:	5f 4f       	sbci	r21, 0xFF	; 255
    485c:	61 e0       	ldi	r22, 0x01	; 1
    485e:	80 e0       	ldi	r24, 0x00	; 0
    4860:	92 e0       	ldi	r25, 0x02	; 2
    4862:	0e 94 5d 2e 	call	0x5cba	; 0x5cba <adcch_write_configuration>
    4866:	6f e2       	ldi	r22, 0x2F	; 47
    4868:	70 e0       	ldi	r23, 0x00	; 0
    486a:	82 e0       	ldi	r24, 0x02	; 2
    486c:	0e 94 b8 34 	call	0x6970	; 0x6970 <nvm_read_byte>
    4870:	18 2f       	mov	r17, r24
    4872:	6e e2       	ldi	r22, 0x2E	; 46
    4874:	70 e0       	ldi	r23, 0x00	; 0
    4876:	82 e0       	ldi	r24, 0x02	; 2
    4878:	0e 94 b8 34 	call	0x6970	; 0x6970 <nvm_read_byte>
    487c:	51 2f       	mov	r21, r17
    487e:	40 e0       	ldi	r20, 0x00	; 0
    4880:	8a 01       	movw	r16, r20
    4882:	08 2b       	or	r16, r24
    4884:	f0 de       	rcall	.-544    	; 0x4666 <__portable_avr_delay_cycles.constprop.5>
    4886:	80 e0       	ldi	r24, 0x00	; 0
    4888:	92 e0       	ldi	r25, 0x02	; 2
    488a:	0e 94 bc 2d 	call	0x5b78	; 0x5b78 <adc_enable>
    488e:	9f b7       	in	r25, 0x3f	; 63
    4890:	f8 94       	cli
    4892:	80 91 00 02 	lds	r24, 0x0200
    4896:	84 60       	ori	r24, 0x04	; 4
    4898:	80 93 00 02 	sts	0x0200, r24
    489c:	9f bf       	out	0x3f, r25	; 63
    489e:	80 91 06 02 	lds	r24, 0x0206
    48a2:	98 2f       	mov	r25, r24
    48a4:	91 70       	andi	r25, 0x01	; 1
    48a6:	80 ff       	sbrs	r24, 0
    48a8:	fa cf       	rjmp	.-12     	; 0x489e <thermometer_getValue+0xa2>
    48aa:	90 93 06 02 	sts	0x0206, r25
    48ae:	e0 90 24 02 	lds	r14, 0x0224
    48b2:	f0 90 25 02 	lds	r15, 0x0225
    48b6:	80 e0       	ldi	r24, 0x00	; 0
    48b8:	92 e0       	ldi	r25, 0x02	; 2
    48ba:	0e 94 d3 2d 	call	0x5ba6	; 0x5ba6 <adc_disable>
    48be:	26 e6       	ldi	r18, 0x66	; 102
    48c0:	31 e0       	ldi	r19, 0x01	; 1
    48c2:	d7 01       	movw	r26, r14
    48c4:	0e 94 f3 47 	call	0x8fe6	; 0x8fe6 <__usmulhisi3>
    48c8:	98 01       	movw	r18, r16
    48ca:	40 e0       	ldi	r20, 0x00	; 0
    48cc:	50 e0       	ldi	r21, 0x00	; 0
    48ce:	0e 94 c5 47 	call	0x8f8a	; 0x8f8a <__udivmodsi4>
    48d2:	5f 93       	push	r21
    48d4:	4f 93       	push	r20
    48d6:	3f 93       	push	r19
    48d8:	2f 93       	push	r18
    48da:	89 ef       	ldi	r24, 0xF9	; 249
    48dc:	9c e0       	ldi	r25, 0x0C	; 12
    48de:	9f 93       	push	r25
    48e0:	8f 93       	push	r24
    48e2:	8e 01       	movw	r16, r28
    48e4:	0f 5f       	subi	r16, 0xFF	; 255
    48e6:	1f 4f       	sbci	r17, 0xFF	; 255
    48e8:	1f 93       	push	r17
    48ea:	0f 93       	push	r16
    48ec:	2c a7       	std	Y+44, r18	; 0x2c
    48ee:	3d a7       	std	Y+45, r19	; 0x2d
    48f0:	0e 94 93 49 	call	0x9326	; 0x9326 <sprintf_P>
    48f4:	40 e0       	ldi	r20, 0x00	; 0
    48f6:	b8 01       	movw	r22, r16
    48f8:	81 e0       	ldi	r24, 0x01	; 1
    48fa:	0e 94 12 2f 	call	0x5e24	; 0x5e24 <debug_string>
    48fe:	2c a5       	ldd	r18, Y+44	; 0x2c
    4900:	82 2f       	mov	r24, r18
    4902:	cd bf       	out	0x3d, r28	; 61
    4904:	de bf       	out	0x3e, r29	; 62
    4906:	3d a5       	ldd	r19, Y+45	; 0x2d
    4908:	93 2f       	mov	r25, r19
    490a:	ad 96       	adiw	r28, 0x2d	; 45
    490c:	cd bf       	out	0x3d, r28	; 61
    490e:	de bf       	out	0x3e, r29	; 62
    4910:	df 91       	pop	r29
    4912:	cf 91       	pop	r28
    4914:	1f 91       	pop	r17
    4916:	0f 91       	pop	r16
    4918:	ff 90       	pop	r15
    491a:	ef 90       	pop	r14
    491c:	08 95       	ret

0000491e <__portable_avr_delay_cycles>:
    491e:	61 50       	subi	r22, 0x01	; 1
    4920:	71 09       	sbc	r23, r1
    4922:	81 09       	sbc	r24, r1
    4924:	91 09       	sbc	r25, r1
    4926:	d9 f7       	brne	.-10     	; 0x491e <__portable_avr_delay_cycles>
    4928:	08 95       	ret

0000492a <sim900_wait_data_on_usart>:
    492a:	1f 93       	push	r17
    492c:	cf 93       	push	r28
    492e:	df 93       	push	r29
    4930:	18 2f       	mov	r17, r24
    4932:	10 c0       	rjmp	.+32     	; 0x4954 <sim900_wait_data_on_usart+0x2a>
    4934:	c0 e1       	ldi	r28, 0x10	; 16
    4936:	d7 e2       	ldi	r29, 0x27	; 39
    4938:	90 91 a2 25 	lds	r25, 0x25A2
    493c:	80 91 a3 25 	lds	r24, 0x25A3
    4940:	98 13       	cpse	r25, r24
    4942:	12 c0       	rjmp	.+36     	; 0x4968 <sim900_wait_data_on_usart+0x3e>
    4944:	60 e9       	ldi	r22, 0x90	; 144
    4946:	71 e0       	ldi	r23, 0x01	; 1
    4948:	80 e0       	ldi	r24, 0x00	; 0
    494a:	90 e0       	ldi	r25, 0x00	; 0
    494c:	e8 df       	rcall	.-48     	; 0x491e <__portable_avr_delay_cycles>
    494e:	21 97       	sbiw	r28, 0x01	; 1
    4950:	99 f7       	brne	.-26     	; 0x4938 <sim900_wait_data_on_usart+0xe>
    4952:	11 50       	subi	r17, 0x01	; 1
    4954:	11 11       	cpse	r17, r1
    4956:	ee cf       	rjmp	.-36     	; 0x4934 <sim900_wait_data_on_usart+0xa>
    4958:	41 e0       	ldi	r20, 0x01	; 1
    495a:	65 e4       	ldi	r22, 0x45	; 69
    495c:	73 e1       	ldi	r23, 0x13	; 19
    495e:	83 e0       	ldi	r24, 0x03	; 3
    4960:	0e 94 12 2f 	call	0x5e24	; 0x5e24 <debug_string>
    4964:	80 e0       	ldi	r24, 0x00	; 0
    4966:	01 c0       	rjmp	.+2      	; 0x496a <sim900_wait_data_on_usart+0x40>
    4968:	8f ef       	ldi	r24, 0xFF	; 255
    496a:	df 91       	pop	r29
    496c:	cf 91       	pop	r28
    496e:	1f 91       	pop	r17
    4970:	08 95       	ret

00004972 <sim900_power_toggle>:
    4972:	1f 93       	push	r17
    4974:	cf 93       	push	r28
    4976:	df 93       	push	r29
    4978:	c0 ea       	ldi	r28, 0xA0	; 160
    497a:	d6 e0       	ldi	r29, 0x06	; 6
    497c:	18 e0       	ldi	r17, 0x08	; 8
    497e:	1d 83       	std	Y+5, r17	; 0x05
    4980:	60 e0       	ldi	r22, 0x00	; 0
    4982:	7e e3       	ldi	r23, 0x3E	; 62
    4984:	89 e4       	ldi	r24, 0x49	; 73
    4986:	90 e0       	ldi	r25, 0x00	; 0
    4988:	ca df       	rcall	.-108    	; 0x491e <__portable_avr_delay_cycles>
    498a:	1e 83       	std	Y+6, r17	; 0x06
    498c:	60 e8       	ldi	r22, 0x80	; 128
    498e:	76 e9       	ldi	r23, 0x96	; 150
    4990:	88 e9       	ldi	r24, 0x98	; 152
    4992:	90 e0       	ldi	r25, 0x00	; 0
    4994:	df 91       	pop	r29
    4996:	cf 91       	pop	r28
    4998:	1f 91       	pop	r17
    499a:	c1 cf       	rjmp	.-126    	; 0x491e <__portable_avr_delay_cycles>

0000499c <statusled_blink.constprop.7>:
    499c:	1f 93       	push	r17
    499e:	cf 93       	push	r28
    49a0:	df 93       	push	r29
    49a2:	c0 e6       	ldi	r28, 0x60	; 96
    49a4:	d6 e0       	ldi	r29, 0x06	; 6
    49a6:	11 e0       	ldi	r17, 0x01	; 1
    49a8:	1d 83       	std	Y+5, r17	; 0x05
    49aa:	60 e8       	ldi	r22, 0x80	; 128
    49ac:	7a e1       	ldi	r23, 0x1A	; 26
    49ae:	86 e0       	ldi	r24, 0x06	; 6
    49b0:	90 e0       	ldi	r25, 0x00	; 0
    49b2:	b5 df       	rcall	.-150    	; 0x491e <__portable_avr_delay_cycles>
    49b4:	1e 83       	std	Y+6, r17	; 0x06
    49b6:	60 e4       	ldi	r22, 0x40	; 64
    49b8:	7d e0       	ldi	r23, 0x0D	; 13
    49ba:	83 e0       	ldi	r24, 0x03	; 3
    49bc:	90 e0       	ldi	r25, 0x00	; 0
    49be:	af df       	rcall	.-162    	; 0x491e <__portable_avr_delay_cycles>
    49c0:	60 e4       	ldi	r22, 0x40	; 64
    49c2:	7d e0       	ldi	r23, 0x0D	; 13
    49c4:	83 e0       	ldi	r24, 0x03	; 3
    49c6:	90 e0       	ldi	r25, 0x00	; 0
    49c8:	aa df       	rcall	.-172    	; 0x491e <__portable_avr_delay_cycles>
    49ca:	1d 83       	std	Y+5, r17	; 0x05
    49cc:	df 91       	pop	r29
    49ce:	cf 91       	pop	r28
    49d0:	1f 91       	pop	r17
    49d2:	08 95       	ret

000049d4 <sim900_read_string>:
    49d4:	cf 92       	push	r12
    49d6:	df 92       	push	r13
    49d8:	ef 92       	push	r14
    49da:	ff 92       	push	r15
    49dc:	0f 93       	push	r16
    49de:	1f 93       	push	r17
    49e0:	cf 93       	push	r28
    49e2:	df 93       	push	r29
    49e4:	8c 01       	movw	r16, r24
    49e6:	eb 01       	movw	r28, r22
    49e8:	c8 80       	ld	r12, Y
    49ea:	10 92 a3 25 	sts	0x25A3, r1
    49ee:	10 92 a2 25 	sts	0x25A2, r1
    49f2:	10 92 a5 25 	sts	0x25A5, r1
    49f6:	10 92 a4 25 	sts	0x25A4, r1
    49fa:	8a e0       	ldi	r24, 0x0A	; 10
    49fc:	96 df       	rcall	.-212    	; 0x492a <sim900_wait_data_on_usart>
    49fe:	81 11       	cpse	r24, r1
    4a00:	09 c0       	rjmp	.+18     	; 0x4a14 <sim900_read_string+0x40>
    4a02:	41 e0       	ldi	r20, 0x01	; 1
    4a04:	61 e7       	ldi	r22, 0x71	; 113
    4a06:	73 e1       	ldi	r23, 0x13	; 19
    4a08:	81 e0       	ldi	r24, 0x01	; 1
    4a0a:	0e 94 12 2f 	call	0x5e24	; 0x5e24 <debug_string>
    4a0e:	81 e0       	ldi	r24, 0x01	; 1
    4a10:	d1 2c       	mov	r13, r1
    4a12:	4b c0       	rjmp	.+150    	; 0x4aaa <sim900_read_string+0xd6>
    4a14:	e0 91 a3 25 	lds	r30, 0x25A3
    4a18:	f0 e0       	ldi	r31, 0x00	; 0
    4a1a:	e2 56       	subi	r30, 0x62	; 98
    4a1c:	fa 4d       	sbci	r31, 0xDA	; 218
    4a1e:	80 85       	ldd	r24, Z+8	; 0x08
    4a20:	90 91 a3 25 	lds	r25, 0x25A3
    4a24:	9f 5f       	subi	r25, 0xFF	; 255
    4a26:	97 70       	andi	r25, 0x07	; 7
    4a28:	90 93 a3 25 	sts	0x25A3, r25
    4a2c:	8d 30       	cpi	r24, 0x0D	; 13
    4a2e:	51 f4       	brne	.+20     	; 0x4a44 <sim900_read_string+0x70>
    4a30:	80 91 18 20 	lds	r24, 0x2018
    4a34:	82 30       	cpi	r24, 0x02	; 2
    4a36:	08 f3       	brcs	.-62     	; 0x49fa <sim900_read_string+0x26>
    4a38:	60 e4       	ldi	r22, 0x40	; 64
    4a3a:	80 ea       	ldi	r24, 0xA0	; 160
    4a3c:	9b e0       	ldi	r25, 0x0B	; 11
    4a3e:	0e 94 66 3e 	call	0x7ccc	; 0x7ccc <usart_putchar>
    4a42:	db cf       	rjmp	.-74     	; 0x49fa <sim900_read_string+0x26>
    4a44:	8a 30       	cpi	r24, 0x0A	; 10
    4a46:	19 f0       	breq	.+6      	; 0x4a4e <sim900_read_string+0x7a>
    4a48:	78 01       	movw	r14, r16
    4a4a:	d1 2c       	mov	r13, r1
    4a4c:	2a c0       	rjmp	.+84     	; 0x4aa2 <sim900_read_string+0xce>
    4a4e:	80 91 18 20 	lds	r24, 0x2018
    4a52:	82 30       	cpi	r24, 0x02	; 2
    4a54:	90 f2       	brcs	.-92     	; 0x49fa <sim900_read_string+0x26>
    4a56:	63 e2       	ldi	r22, 0x23	; 35
    4a58:	80 ea       	ldi	r24, 0xA0	; 160
    4a5a:	9b e0       	ldi	r25, 0x0B	; 11
    4a5c:	0e 94 66 3e 	call	0x7ccc	; 0x7ccc <usart_putchar>
    4a60:	cc cf       	rjmp	.-104    	; 0x49fa <sim900_read_string+0x26>
    4a62:	f7 01       	movw	r30, r14
    4a64:	81 93       	st	Z+, r24
    4a66:	7f 01       	movw	r14, r30
    4a68:	d3 94       	inc	r13
    4a6a:	8a e0       	ldi	r24, 0x0A	; 10
    4a6c:	5e df       	rcall	.-324    	; 0x492a <sim900_wait_data_on_usart>
    4a6e:	81 11       	cpse	r24, r1
    4a70:	08 c0       	rjmp	.+16     	; 0x4a82 <sim900_read_string+0xae>
    4a72:	41 e0       	ldi	r20, 0x01	; 1
    4a74:	6c ea       	ldi	r22, 0xAC	; 172
    4a76:	73 e1       	ldi	r23, 0x13	; 19
    4a78:	81 e0       	ldi	r24, 0x01	; 1
    4a7a:	0e 94 12 2f 	call	0x5e24	; 0x5e24 <debug_string>
    4a7e:	81 e0       	ldi	r24, 0x01	; 1
    4a80:	14 c0       	rjmp	.+40     	; 0x4aaa <sim900_read_string+0xd6>
    4a82:	e0 91 a3 25 	lds	r30, 0x25A3
    4a86:	f0 e0       	ldi	r31, 0x00	; 0
    4a88:	e2 56       	subi	r30, 0x62	; 98
    4a8a:	fa 4d       	sbci	r31, 0xDA	; 218
    4a8c:	80 85       	ldd	r24, Z+8	; 0x08
    4a8e:	90 91 a3 25 	lds	r25, 0x25A3
    4a92:	9f 5f       	subi	r25, 0xFF	; 255
    4a94:	97 70       	andi	r25, 0x07	; 7
    4a96:	90 93 a3 25 	sts	0x25A3, r25
    4a9a:	8d 30       	cpi	r24, 0x0D	; 13
    4a9c:	29 f0       	breq	.+10     	; 0x4aa8 <sim900_read_string+0xd4>
    4a9e:	8a 30       	cpi	r24, 0x0A	; 10
    4aa0:	19 f0       	breq	.+6      	; 0x4aa8 <sim900_read_string+0xd4>
    4aa2:	dc 10       	cpse	r13, r12
    4aa4:	de cf       	rjmp	.-68     	; 0x4a62 <sim900_read_string+0x8e>
    4aa6:	03 c0       	rjmp	.+6      	; 0x4aae <sim900_read_string+0xda>
    4aa8:	80 e0       	ldi	r24, 0x00	; 0
    4aaa:	cd 10       	cpse	r12, r13
    4aac:	09 c0       	rjmp	.+18     	; 0x4ac0 <sim900_read_string+0xec>
    4aae:	41 e0       	ldi	r20, 0x01	; 1
    4ab0:	67 ee       	ldi	r22, 0xE7	; 231
    4ab2:	73 e1       	ldi	r23, 0x13	; 19
    4ab4:	81 e0       	ldi	r24, 0x01	; 1
    4ab6:	0e 94 12 2f 	call	0x5e24	; 0x5e24 <debug_string>
    4aba:	dc 2c       	mov	r13, r12
    4abc:	da 94       	dec	r13
    4abe:	82 e0       	ldi	r24, 0x02	; 2
    4ac0:	f8 01       	movw	r30, r16
    4ac2:	ed 0d       	add	r30, r13
    4ac4:	f1 1d       	adc	r31, r1
    4ac6:	10 82       	st	Z, r1
    4ac8:	d8 82       	st	Y, r13
    4aca:	df 91       	pop	r29
    4acc:	cf 91       	pop	r28
    4ace:	1f 91       	pop	r17
    4ad0:	0f 91       	pop	r16
    4ad2:	ff 90       	pop	r15
    4ad4:	ef 90       	pop	r14
    4ad6:	df 90       	pop	r13
    4ad8:	cf 90       	pop	r12
    4ada:	08 95       	ret

00004adc <sim900_put_string.part.0>:
    4adc:	cf 93       	push	r28
    4ade:	df 93       	push	r29
    4ae0:	ec 01       	movw	r28, r24
    4ae2:	ae 01       	movw	r20, r28
    4ae4:	66 27       	eor	r22, r22
    4ae6:	57 fd       	sbrc	r21, 7
    4ae8:	60 95       	com	r22
    4aea:	76 2f       	mov	r23, r22
    4aec:	21 96       	adiw	r28, 0x01	; 1
    4aee:	6b bf       	out	0x3b, r22	; 59
    4af0:	fa 01       	movw	r30, r20
    4af2:	67 91       	elpm	r22, Z+
    4af4:	66 23       	and	r22, r22
    4af6:	79 f0       	breq	.+30     	; 0x4b16 <sim900_put_string.part.0+0x3a>
    4af8:	80 91 a1 0a 	lds	r24, 0x0AA1
    4afc:	85 ff       	sbrs	r24, 5
    4afe:	fc cf       	rjmp	.-8      	; 0x4af8 <sim900_put_string.part.0+0x1c>
    4b00:	60 93 a0 0a 	sts	0x0AA0, r22
    4b04:	80 91 18 20 	lds	r24, 0x2018
    4b08:	82 30       	cpi	r24, 0x02	; 2
    4b0a:	58 f3       	brcs	.-42     	; 0x4ae2 <sim900_put_string.part.0+0x6>
    4b0c:	80 ea       	ldi	r24, 0xA0	; 160
    4b0e:	9b e0       	ldi	r25, 0x0B	; 11
    4b10:	0e 94 66 3e 	call	0x7ccc	; 0x7ccc <usart_putchar>
    4b14:	e6 cf       	rjmp	.-52     	; 0x4ae2 <sim900_put_string.part.0+0x6>
    4b16:	df 91       	pop	r29
    4b18:	cf 91       	pop	r28
    4b1a:	08 95       	ret

00004b1c <sim900_put_string>:
    4b1c:	cf 93       	push	r28
    4b1e:	df 93       	push	r29
    4b20:	61 11       	cpse	r22, r1
    4b22:	02 c0       	rjmp	.+4      	; 0x4b28 <sim900_put_string+0xc>
    4b24:	ec 01       	movw	r28, r24
    4b26:	03 c0       	rjmp	.+6      	; 0x4b2e <sim900_put_string+0x12>
    4b28:	df 91       	pop	r29
    4b2a:	cf 91       	pop	r28
    4b2c:	d7 cf       	rjmp	.-82     	; 0x4adc <sim900_put_string.part.0>
    4b2e:	69 91       	ld	r22, Y+
    4b30:	66 23       	and	r22, r22
    4b32:	79 f0       	breq	.+30     	; 0x4b52 <sim900_put_string+0x36>
    4b34:	80 91 a1 0a 	lds	r24, 0x0AA1
    4b38:	85 ff       	sbrs	r24, 5
    4b3a:	fc cf       	rjmp	.-8      	; 0x4b34 <sim900_put_string+0x18>
    4b3c:	60 93 a0 0a 	sts	0x0AA0, r22
    4b40:	80 91 18 20 	lds	r24, 0x2018
    4b44:	82 30       	cpi	r24, 0x02	; 2
    4b46:	98 f3       	brcs	.-26     	; 0x4b2e <sim900_put_string+0x12>
    4b48:	80 ea       	ldi	r24, 0xA0	; 160
    4b4a:	9b e0       	ldi	r25, 0x0B	; 11
    4b4c:	0e 94 66 3e 	call	0x7ccc	; 0x7ccc <usart_putchar>
    4b50:	ee cf       	rjmp	.-36     	; 0x4b2e <sim900_put_string+0x12>
    4b52:	df 91       	pop	r29
    4b54:	cf 91       	pop	r28
    4b56:	08 95       	ret

00004b58 <sim900_cmd_with_read_string.constprop.4>:
    4b58:	cf 92       	push	r12
    4b5a:	df 92       	push	r13
    4b5c:	ef 92       	push	r14
    4b5e:	ff 92       	push	r15
    4b60:	0f 93       	push	r16
    4b62:	1f 93       	push	r17
    4b64:	cf 93       	push	r28
    4b66:	df 93       	push	r29
    4b68:	1f 92       	push	r1
    4b6a:	cd b7       	in	r28, 0x3d	; 61
    4b6c:	de b7       	in	r29, 0x3e	; 62
    4b6e:	6c 01       	movw	r12, r24
    4b70:	7b 01       	movw	r14, r22
    4b72:	8a 01       	movw	r16, r20
    4b74:	b3 df       	rcall	.-154    	; 0x4adc <sim900_put_string.part.0>
    4b76:	f8 01       	movw	r30, r16
    4b78:	80 81       	ld	r24, Z
    4b7a:	89 83       	std	Y+1, r24	; 0x01
    4b7c:	be 01       	movw	r22, r28
    4b7e:	6f 5f       	subi	r22, 0xFF	; 255
    4b80:	7f 4f       	sbci	r23, 0xFF	; 255
    4b82:	c7 01       	movw	r24, r14
    4b84:	27 df       	rcall	.-434    	; 0x49d4 <sim900_read_string>
    4b86:	88 23       	and	r24, r24
    4b88:	89 f0       	breq	.+34     	; 0x4bac <sim900_cmd_with_read_string.constprop.4+0x54>
    4b8a:	6e e8       	ldi	r22, 0x8E	; 142
    4b8c:	72 e1       	ldi	r23, 0x12	; 18
    4b8e:	81 e0       	ldi	r24, 0x01	; 1
    4b90:	0e 94 3c 2f 	call	0x5e78	; 0x5e78 <debug_string_P>
    4b94:	c6 01       	movw	r24, r12
    4b96:	a2 df       	rcall	.-188    	; 0x4adc <sim900_put_string.part.0>
    4b98:	f8 01       	movw	r30, r16
    4b9a:	80 81       	ld	r24, Z
    4b9c:	89 83       	std	Y+1, r24	; 0x01
    4b9e:	be 01       	movw	r22, r28
    4ba0:	6f 5f       	subi	r22, 0xFF	; 255
    4ba2:	7f 4f       	sbci	r23, 0xFF	; 255
    4ba4:	c7 01       	movw	r24, r14
    4ba6:	16 df       	rcall	.-468    	; 0x49d4 <sim900_read_string>
    4ba8:	81 11       	cpse	r24, r1
    4baa:	05 c0       	rjmp	.+10     	; 0x4bb6 <sim900_cmd_with_read_string.constprop.4+0x5e>
    4bac:	89 81       	ldd	r24, Y+1	; 0x01
    4bae:	f8 01       	movw	r30, r16
    4bb0:	80 83       	st	Z, r24
    4bb2:	80 e0       	ldi	r24, 0x00	; 0
    4bb4:	0b c0       	rjmp	.+22     	; 0x4bcc <sim900_cmd_with_read_string.constprop.4+0x74>
    4bb6:	6e e8       	ldi	r22, 0x8E	; 142
    4bb8:	72 e1       	ldi	r23, 0x12	; 18
    4bba:	81 e0       	ldi	r24, 0x01	; 1
    4bbc:	0e 94 3c 2f 	call	0x5e78	; 0x5e78 <debug_string_P>
    4bc0:	61 ec       	ldi	r22, 0xC1	; 193
    4bc2:	72 e1       	ldi	r23, 0x12	; 18
    4bc4:	81 e0       	ldi	r24, 0x01	; 1
    4bc6:	0e 94 3c 2f 	call	0x5e78	; 0x5e78 <debug_string_P>
    4bca:	81 e0       	ldi	r24, 0x01	; 1
    4bcc:	0f 90       	pop	r0
    4bce:	df 91       	pop	r29
    4bd0:	cf 91       	pop	r28
    4bd2:	1f 91       	pop	r17
    4bd4:	0f 91       	pop	r16
    4bd6:	ff 90       	pop	r15
    4bd8:	ef 90       	pop	r14
    4bda:	df 90       	pop	r13
    4bdc:	cf 90       	pop	r12
    4bde:	08 95       	ret

00004be0 <sim900_wait_string.constprop.5>:
    4be0:	ef 92       	push	r14
    4be2:	ff 92       	push	r15
    4be4:	0f 93       	push	r16
    4be6:	1f 93       	push	r17
    4be8:	cf 93       	push	r28
    4bea:	df 93       	push	r29
    4bec:	1f 92       	push	r1
    4bee:	cd b7       	in	r28, 0x3d	; 61
    4bf0:	de b7       	in	r29, 0x3e	; 62
    4bf2:	18 2f       	mov	r17, r24
    4bf4:	10 92 a3 25 	sts	0x25A3, r1
    4bf8:	10 92 a2 25 	sts	0x25A2, r1
    4bfc:	10 92 a5 25 	sts	0x25A5, r1
    4c00:	10 92 a4 25 	sts	0x25A4, r1
    4c04:	e8 2e       	mov	r14, r24
    4c06:	f9 2e       	mov	r15, r25
    4c08:	22 c0       	rjmp	.+68     	; 0x4c4e <sim900_wait_string.constprop.5+0x6e>
    4c0a:	84 e1       	ldi	r24, 0x14	; 20
    4c0c:	99 83       	std	Y+1, r25	; 0x01
    4c0e:	8d de       	rcall	.-742    	; 0x492a <sim900_wait_data_on_usart>
    4c10:	99 81       	ldd	r25, Y+1	; 0x01
    4c12:	81 11       	cpse	r24, r1
    4c14:	08 c0       	rjmp	.+16     	; 0x4c26 <sim900_wait_string.constprop.5+0x46>
    4c16:	62 e3       	ldi	r22, 0x32	; 50
    4c18:	74 e1       	ldi	r23, 0x14	; 20
    4c1a:	81 e0       	ldi	r24, 0x01	; 1
    4c1c:	0e 94 3c 2f 	call	0x5e78	; 0x5e78 <debug_string_P>
    4c20:	20 e0       	ldi	r18, 0x00	; 0
    4c22:	30 e0       	ldi	r19, 0x00	; 0
    4c24:	20 c0       	rjmp	.+64     	; 0x4c66 <sim900_wait_string.constprop.5+0x86>
    4c26:	e0 91 a3 25 	lds	r30, 0x25A3
    4c2a:	f0 e0       	ldi	r31, 0x00	; 0
    4c2c:	e2 56       	subi	r30, 0x62	; 98
    4c2e:	fa 4d       	sbci	r31, 0xDA	; 218
    4c30:	80 85       	ldd	r24, Z+8	; 0x08
    4c32:	20 91 a3 25 	lds	r18, 0x25A3
    4c36:	2f 5f       	subi	r18, 0xFF	; 255
    4c38:	27 70       	andi	r18, 0x07	; 7
    4c3a:	20 93 a3 25 	sts	0x25A3, r18
    4c3e:	80 13       	cpse	r24, r16
    4c40:	04 c0       	rjmp	.+8      	; 0x4c4a <sim900_wait_string.constprop.5+0x6a>
    4c42:	8f ef       	ldi	r24, 0xFF	; 255
    4c44:	e8 1a       	sub	r14, r24
    4c46:	f8 0a       	sbc	r15, r24
    4c48:	02 c0       	rjmp	.+4      	; 0x4c4e <sim900_wait_string.constprop.5+0x6e>
    4c4a:	e1 2e       	mov	r14, r17
    4c4c:	f9 2e       	mov	r15, r25
    4c4e:	a7 01       	movw	r20, r14
    4c50:	66 27       	eor	r22, r22
    4c52:	57 fd       	sbrc	r21, 7
    4c54:	60 95       	com	r22
    4c56:	76 2f       	mov	r23, r22
    4c58:	6b bf       	out	0x3b, r22	; 59
    4c5a:	fa 01       	movw	r30, r20
    4c5c:	07 91       	elpm	r16, Z+
    4c5e:	01 11       	cpse	r16, r1
    4c60:	d4 cf       	rjmp	.-88     	; 0x4c0a <sim900_wait_string.constprop.5+0x2a>
    4c62:	21 2f       	mov	r18, r17
    4c64:	39 2f       	mov	r19, r25
    4c66:	c9 01       	movw	r24, r18
    4c68:	0f 90       	pop	r0
    4c6a:	df 91       	pop	r29
    4c6c:	cf 91       	pop	r28
    4c6e:	1f 91       	pop	r17
    4c70:	0f 91       	pop	r16
    4c72:	ff 90       	pop	r15
    4c74:	ef 90       	pop	r14
    4c76:	08 95       	ret

00004c78 <sim900_wait4dictionary>:
    4c78:	4f 92       	push	r4
    4c7a:	5f 92       	push	r5
    4c7c:	6f 92       	push	r6
    4c7e:	7f 92       	push	r7
    4c80:	bf 92       	push	r11
    4c82:	cf 92       	push	r12
    4c84:	df 92       	push	r13
    4c86:	ef 92       	push	r14
    4c88:	ff 92       	push	r15
    4c8a:	0f 93       	push	r16
    4c8c:	1f 93       	push	r17
    4c8e:	cf 93       	push	r28
    4c90:	df 93       	push	r29
    4c92:	cd b7       	in	r28, 0x3d	; 61
    4c94:	de b7       	in	r29, 0x3e	; 62
    4c96:	7c 01       	movw	r14, r24
    4c98:	b6 2e       	mov	r11, r22
    4c9a:	0d b7       	in	r16, 0x3d	; 61
    4c9c:	1e b7       	in	r17, 0x3e	; 62
    4c9e:	8d b7       	in	r24, 0x3d	; 61
    4ca0:	9e b7       	in	r25, 0x3e	; 62
    4ca2:	22 e0       	ldi	r18, 0x02	; 2
    4ca4:	62 9f       	mul	r22, r18
    4ca6:	80 19       	sub	r24, r0
    4ca8:	91 09       	sbc	r25, r1
    4caa:	11 24       	eor	r1, r1
    4cac:	8d bf       	out	0x3d, r24	; 61
    4cae:	9e bf       	out	0x3e, r25	; 62
    4cb0:	cd b6       	in	r12, 0x3d	; 61
    4cb2:	de b6       	in	r13, 0x3e	; 62
    4cb4:	8f ef       	ldi	r24, 0xFF	; 255
    4cb6:	c8 1a       	sub	r12, r24
    4cb8:	d8 0a       	sbc	r13, r24
    4cba:	10 92 a3 25 	sts	0x25A3, r1
    4cbe:	10 92 a2 25 	sts	0x25A2, r1
    4cc2:	10 92 a5 25 	sts	0x25A5, r1
    4cc6:	10 92 a4 25 	sts	0x25A4, r1
    4cca:	46 2f       	mov	r20, r22
    4ccc:	14 c0       	rjmp	.+40     	; 0x4cf6 <sim900_wait4dictionary+0x7e>
    4cce:	24 2f       	mov	r18, r20
    4cd0:	30 e0       	ldi	r19, 0x00	; 0
    4cd2:	22 0f       	add	r18, r18
    4cd4:	33 1f       	adc	r19, r19
    4cd6:	c7 01       	movw	r24, r14
    4cd8:	82 0f       	add	r24, r18
    4cda:	93 1f       	adc	r25, r19
    4cdc:	aa 27       	eor	r26, r26
    4cde:	97 fd       	sbrc	r25, 7
    4ce0:	a0 95       	com	r26
    4ce2:	ba 2f       	mov	r27, r26
    4ce4:	ab bf       	out	0x3b, r26	; 59
    4ce6:	fc 01       	movw	r30, r24
    4ce8:	87 91       	elpm	r24, Z+
    4cea:	96 91       	elpm	r25, Z
    4cec:	f6 01       	movw	r30, r12
    4cee:	e2 0f       	add	r30, r18
    4cf0:	f3 1f       	adc	r31, r19
    4cf2:	80 83       	st	Z, r24
    4cf4:	91 83       	std	Z+1, r25	; 0x01
    4cf6:	41 50       	subi	r20, 0x01	; 1
    4cf8:	50 f7       	brcc	.-44     	; 0x4cce <sim900_wait4dictionary+0x56>
    4cfa:	84 e1       	ldi	r24, 0x14	; 20
    4cfc:	16 de       	rcall	.-980    	; 0x492a <sim900_wait_data_on_usart>
    4cfe:	81 11       	cpse	r24, r1
    4d00:	09 c0       	rjmp	.+18     	; 0x4d14 <sim900_wait4dictionary+0x9c>
    4d02:	41 e0       	ldi	r20, 0x01	; 1
    4d04:	68 ee       	ldi	r22, 0xE8	; 232
    4d06:	72 e1       	ldi	r23, 0x12	; 18
    4d08:	81 e0       	ldi	r24, 0x01	; 1
    4d0a:	0e 94 12 2f 	call	0x5e24	; 0x5e24 <debug_string>
    4d0e:	20 e0       	ldi	r18, 0x00	; 0
    4d10:	30 e0       	ldi	r19, 0x00	; 0
    4d12:	4f c0       	rjmp	.+158    	; 0x4db2 <sim900_wait4dictionary+0x13a>
    4d14:	e0 91 a3 25 	lds	r30, 0x25A3
    4d18:	f0 e0       	ldi	r31, 0x00	; 0
    4d1a:	e2 56       	subi	r30, 0x62	; 98
    4d1c:	fa 4d       	sbci	r31, 0xDA	; 218
    4d1e:	30 85       	ldd	r19, Z+8	; 0x08
    4d20:	80 91 a3 25 	lds	r24, 0x25A3
    4d24:	8f 5f       	subi	r24, 0xFF	; 255
    4d26:	87 70       	andi	r24, 0x07	; 7
    4d28:	80 93 a3 25 	sts	0x25A3, r24
    4d2c:	c7 01       	movw	r24, r14
    4d2e:	d6 01       	movw	r26, r12
    4d30:	20 e0       	ldi	r18, 0x00	; 0
    4d32:	3b c0       	rjmp	.+118    	; 0x4daa <sim900_wait4dictionary+0x132>
    4d34:	4d 91       	ld	r20, X+
    4d36:	5c 91       	ld	r21, X
    4d38:	11 97       	sbiw	r26, 0x01	; 1
    4d3a:	2a 01       	movw	r4, r20
    4d3c:	66 24       	eor	r6, r6
    4d3e:	57 fc       	sbrc	r5, 7
    4d40:	60 94       	com	r6
    4d42:	76 2c       	mov	r7, r6
    4d44:	6b be       	out	0x3b, r6	; 59
    4d46:	f2 01       	movw	r30, r4
    4d48:	47 90       	elpm	r4, Z+
    4d4a:	34 15       	cp	r19, r4
    4d4c:	71 f0       	breq	.+28     	; 0x4d6a <sim900_wait4dictionary+0xf2>
    4d4e:	ac 01       	movw	r20, r24
    4d50:	66 27       	eor	r22, r22
    4d52:	57 fd       	sbrc	r21, 7
    4d54:	60 95       	com	r22
    4d56:	76 2f       	mov	r23, r22
    4d58:	6b bf       	out	0x3b, r22	; 59
    4d5a:	fa 01       	movw	r30, r20
    4d5c:	47 91       	elpm	r20, Z+
    4d5e:	56 91       	elpm	r21, Z
    4d60:	4c 93       	st	X, r20
    4d62:	11 96       	adiw	r26, 0x01	; 1
    4d64:	5c 93       	st	X, r21
    4d66:	11 97       	sbiw	r26, 0x01	; 1
    4d68:	1d c0       	rjmp	.+58     	; 0x4da4 <sim900_wait4dictionary+0x12c>
    4d6a:	4f 5f       	subi	r20, 0xFF	; 255
    4d6c:	5f 4f       	sbci	r21, 0xFF	; 255
    4d6e:	4d 93       	st	X+, r20
    4d70:	5c 93       	st	X, r21
    4d72:	11 97       	sbiw	r26, 0x01	; 1
    4d74:	66 27       	eor	r22, r22
    4d76:	57 fd       	sbrc	r21, 7
    4d78:	60 95       	com	r22
    4d7a:	76 2f       	mov	r23, r22
    4d7c:	6b bf       	out	0x3b, r22	; 59
    4d7e:	fa 01       	movw	r30, r20
    4d80:	47 91       	elpm	r20, Z+
    4d82:	41 11       	cpse	r20, r1
    4d84:	0f c0       	rjmp	.+30     	; 0x4da4 <sim900_wait4dictionary+0x12c>
    4d86:	c7 01       	movw	r24, r14
    4d88:	82 0f       	add	r24, r18
    4d8a:	91 1d       	adc	r25, r1
    4d8c:	82 0f       	add	r24, r18
    4d8e:	91 1d       	adc	r25, r1
    4d90:	aa 27       	eor	r26, r26
    4d92:	97 fd       	sbrc	r25, 7
    4d94:	a0 95       	com	r26
    4d96:	ba 2f       	mov	r27, r26
    4d98:	ab bf       	out	0x3b, r26	; 59
    4d9a:	fc 01       	movw	r30, r24
    4d9c:	87 91       	elpm	r24, Z+
    4d9e:	96 91       	elpm	r25, Z
    4da0:	9c 01       	movw	r18, r24
    4da2:	07 c0       	rjmp	.+14     	; 0x4db2 <sim900_wait4dictionary+0x13a>
    4da4:	2f 5f       	subi	r18, 0xFF	; 255
    4da6:	02 96       	adiw	r24, 0x02	; 2
    4da8:	12 96       	adiw	r26, 0x02	; 2
    4daa:	2b 15       	cp	r18, r11
    4dac:	09 f4       	brne	.+2      	; 0x4db0 <sim900_wait4dictionary+0x138>
    4dae:	a5 cf       	rjmp	.-182    	; 0x4cfa <sim900_wait4dictionary+0x82>
    4db0:	c1 cf       	rjmp	.-126    	; 0x4d34 <sim900_wait4dictionary+0xbc>
    4db2:	c9 01       	movw	r24, r18
    4db4:	0d bf       	out	0x3d, r16	; 61
    4db6:	1e bf       	out	0x3e, r17	; 62
    4db8:	df 91       	pop	r29
    4dba:	cf 91       	pop	r28
    4dbc:	1f 91       	pop	r17
    4dbe:	0f 91       	pop	r16
    4dc0:	ff 90       	pop	r15
    4dc2:	ef 90       	pop	r14
    4dc4:	df 90       	pop	r13
    4dc6:	cf 90       	pop	r12
    4dc8:	bf 90       	pop	r11
    4dca:	7f 90       	pop	r7
    4dcc:	6f 90       	pop	r6
    4dce:	5f 90       	pop	r5
    4dd0:	4f 90       	pop	r4
    4dd2:	08 95       	ret

00004dd4 <sim900_wait_retstring>:
    4dd4:	62 e0       	ldi	r22, 0x02	; 2
    4dd6:	8d e6       	ldi	r24, 0x6D	; 109
    4dd8:	93 e1       	ldi	r25, 0x13	; 19
    4dda:	4e cf       	rjmp	.-356    	; 0x4c78 <sim900_wait4dictionary>

00004ddc <sim900_cmd_with_retstring.constprop.3>:
    4ddc:	cf 93       	push	r28
    4dde:	df 93       	push	r29
    4de0:	ec 01       	movw	r28, r24
    4de2:	7c de       	rcall	.-776    	; 0x4adc <sim900_put_string.part.0>
    4de4:	f7 df       	rcall	.-18     	; 0x4dd4 <sim900_wait_retstring>
    4de6:	00 97       	sbiw	r24, 0x00	; 0
    4de8:	29 f4       	brne	.+10     	; 0x4df4 <sim900_cmd_with_retstring.constprop.3+0x18>
    4dea:	ce 01       	movw	r24, r28
    4dec:	77 de       	rcall	.-786    	; 0x4adc <sim900_put_string.part.0>
    4dee:	df 91       	pop	r29
    4df0:	cf 91       	pop	r28
    4df2:	f0 cf       	rjmp	.-32     	; 0x4dd4 <sim900_wait_retstring>
    4df4:	df 91       	pop	r29
    4df6:	cf 91       	pop	r28
    4df8:	08 95       	ret

00004dfa <sim900_power_off>:
    4dfa:	80 91 a8 06 	lds	r24, 0x06A8
    4dfe:	81 ff       	sbrs	r24, 1
    4e00:	06 c0       	rjmp	.+12     	; 0x4e0e <sim900_power_off+0x14>
    4e02:	6b e0       	ldi	r22, 0x0B	; 11
    4e04:	7d e0       	ldi	r23, 0x0D	; 13
    4e06:	81 e0       	ldi	r24, 0x01	; 1
    4e08:	0e 94 3c 2f 	call	0x5e78	; 0x5e78 <debug_string_P>
    4e0c:	b2 cd       	rjmp	.-1180   	; 0x4972 <sim900_power_toggle>
    4e0e:	6e e3       	ldi	r22, 0x3E	; 62
    4e10:	7d e0       	ldi	r23, 0x0D	; 13
    4e12:	81 e0       	ldi	r24, 0x01	; 1
    4e14:	0c 94 3c 2f 	jmp	0x5e78	; 0x5e78 <debug_string_P>

00004e18 <sim900_init>:
    4e18:	8f 92       	push	r8
    4e1a:	9f 92       	push	r9
    4e1c:	af 92       	push	r10
    4e1e:	bf 92       	push	r11
    4e20:	cf 92       	push	r12
    4e22:	df 92       	push	r13
    4e24:	ef 92       	push	r14
    4e26:	ff 92       	push	r15
    4e28:	0f 93       	push	r16
    4e2a:	1f 93       	push	r17
    4e2c:	cf 93       	push	r28
    4e2e:	df 93       	push	r29
    4e30:	cd b7       	in	r28, 0x3d	; 61
    4e32:	de b7       	in	r29, 0x3e	; 62
    4e34:	64 97       	sbiw	r28, 0x14	; 20
    4e36:	cd bf       	out	0x3d, r28	; 61
    4e38:	de bf       	out	0x3e, r29	; 62
    4e3a:	89 e6       	ldi	r24, 0x69	; 105
    4e3c:	9d e0       	ldi	r25, 0x0D	; 13
    4e3e:	89 8b       	std	Y+17, r24	; 0x11
    4e40:	9a 8b       	std	Y+18, r25	; 0x12
    4e42:	bc 01       	movw	r22, r24
    4e44:	82 e0       	ldi	r24, 0x02	; 2
    4e46:	0e 94 67 2f 	call	0x5ece	; 0x5ece <debug_function_in_name_print_P>
    4e4a:	41 e0       	ldi	r20, 0x01	; 1
    4e4c:	50 e0       	ldi	r21, 0x00	; 0
    4e4e:	60 ea       	ldi	r22, 0xA0	; 160
    4e50:	7a e0       	ldi	r23, 0x0A	; 10
    4e52:	8e e9       	ldi	r24, 0x9E	; 158
    4e54:	95 e2       	ldi	r25, 0x25	; 37
    4e56:	2b d5       	rcall	.+2646   	; 0x58ae <usart_interruptdriver_initialize>
    4e58:	80 91 a3 0a 	lds	r24, 0x0AA3
    4e5c:	8f 7c       	andi	r24, 0xCF	; 207
    4e5e:	80 61       	ori	r24, 0x10	; 16
    4e60:	80 93 a3 0a 	sts	0x0AA3, r24
    4e64:	80 91 a3 0a 	lds	r24, 0x0AA3
    4e68:	83 7f       	andi	r24, 0xF3	; 243
    4e6a:	80 93 a3 0a 	sts	0x0AA3, r24
    4e6e:	65 e7       	ldi	r22, 0x75	; 117
    4e70:	7d e0       	ldi	r23, 0x0D	; 13
    4e72:	81 e0       	ldi	r24, 0x01	; 1
    4e74:	0e 94 3c 2f 	call	0x5e78	; 0x5e78 <debug_string_P>
    4e78:	38 e1       	ldi	r19, 0x18	; 24
    4e7a:	a3 2e       	mov	r10, r19
    4e7c:	8e 01       	movw	r16, r28
    4e7e:	0f 5f       	subi	r16, 0xFF	; 255
    4e80:	1f 4f       	sbci	r17, 0xFF	; 255
    4e82:	40 e1       	ldi	r20, 0x10	; 16
    4e84:	94 2e       	mov	r9, r20
    4e86:	50 e1       	ldi	r21, 0x10	; 16
    4e88:	85 2e       	mov	r8, r21
    4e8a:	80 91 a4 0a 	lds	r24, 0x0AA4
    4e8e:	80 61       	ori	r24, 0x10	; 16
    4e90:	80 93 a4 0a 	sts	0x0AA4, r24
    4e94:	b2 df       	rcall	.-156    	; 0x4dfa <sim900_power_off>
    4e96:	23 e0       	ldi	r18, 0x03	; 3
    4e98:	c2 2e       	mov	r12, r18
    4e9a:	d1 2c       	mov	r13, r1
    4e9c:	e1 2c       	mov	r14, r1
    4e9e:	f1 2c       	mov	r15, r1
    4ea0:	1d c0       	rjmp	.+58     	; 0x4edc <sim900_init+0xc4>
    4ea2:	67 dd       	rcall	.-1330   	; 0x4972 <sim900_power_toggle>
    4ea4:	94 e0       	ldi	r25, 0x04	; 4
    4ea6:	b9 2e       	mov	r11, r25
    4ea8:	0e c0       	rjmp	.+28     	; 0x4ec6 <sim900_init+0xae>
    4eaa:	78 dd       	rcall	.-1296   	; 0x499c <statusled_blink.constprop.7>
    4eac:	88 ea       	ldi	r24, 0xA8	; 168
    4eae:	9d e0       	ldi	r25, 0x0D	; 13
    4eb0:	15 de       	rcall	.-982    	; 0x4adc <sim900_put_string.part.0>
    4eb2:	90 df       	rcall	.-224    	; 0x4dd4 <sim900_wait_retstring>
    4eb4:	7c 01       	movw	r14, r24
    4eb6:	2d e0       	ldi	r18, 0x0D	; 13
    4eb8:	8d 3a       	cpi	r24, 0xAD	; 173
    4eba:	92 07       	cpc	r25, r18
    4ebc:	f1 f0       	breq	.+60     	; 0x4efa <sim900_init+0xe2>
    4ebe:	60 eb       	ldi	r22, 0xB0	; 176
    4ec0:	7d e0       	ldi	r23, 0x0D	; 13
    4ec2:	81 e0       	ldi	r24, 0x01	; 1
    4ec4:	d9 d7       	rcall	.+4018   	; 0x5e78 <debug_string_P>
    4ec6:	ba 94       	dec	r11
    4ec8:	81 f7       	brne	.-32     	; 0x4eaa <sim900_init+0x92>
    4eca:	8d ea       	ldi	r24, 0xAD	; 173
    4ecc:	e8 16       	cp	r14, r24
    4ece:	8d e0       	ldi	r24, 0x0D	; 13
    4ed0:	f8 06       	cpc	r15, r24
    4ed2:	99 f0       	breq	.+38     	; 0x4efa <sim900_init+0xe2>
    4ed4:	62 ee       	ldi	r22, 0xE2	; 226
    4ed6:	7d e0       	ldi	r23, 0x0D	; 13
    4ed8:	81 e0       	ldi	r24, 0x01	; 1
    4eda:	ce d7       	rcall	.+3996   	; 0x5e78 <debug_string_P>
    4edc:	e1 e0       	ldi	r30, 0x01	; 1
    4ede:	ce 1a       	sub	r12, r30
    4ee0:	d1 08       	sbc	r13, r1
    4ee2:	f9 f6       	brne	.-66     	; 0x4ea2 <sim900_init+0x8a>
    4ee4:	fd ea       	ldi	r31, 0xAD	; 173
    4ee6:	ef 16       	cp	r14, r31
    4ee8:	fd e0       	ldi	r31, 0x0D	; 13
    4eea:	ff 06       	cpc	r15, r31
    4eec:	31 f0       	breq	.+12     	; 0x4efa <sim900_init+0xe2>
    4eee:	60 e3       	ldi	r22, 0x30	; 48
    4ef0:	7e e0       	ldi	r23, 0x0E	; 14
    4ef2:	81 e0       	ldi	r24, 0x01	; 1
    4ef4:	c1 d7       	rcall	.+3970   	; 0x5e78 <debug_string_P>
    4ef6:	1f ef       	ldi	r17, 0xFF	; 255
    4ef8:	12 c1       	rjmp	.+548    	; 0x511e <sim900_init+0x306>
    4efa:	60 e8       	ldi	r22, 0x80	; 128
    4efc:	74 e8       	ldi	r23, 0x84	; 132
    4efe:	8e e1       	ldi	r24, 0x1E	; 30
    4f00:	90 e0       	ldi	r25, 0x00	; 0
    4f02:	0d dd       	rcall	.-1510   	; 0x491e <__portable_avr_delay_cycles>
    4f04:	80 e8       	ldi	r24, 0x80	; 128
    4f06:	9e e0       	ldi	r25, 0x0E	; 14
    4f08:	69 df       	rcall	.-302    	; 0x4ddc <sim900_cmd_with_retstring.constprop.3>
    4f0a:	8d 5a       	subi	r24, 0xAD	; 173
    4f0c:	9d 40       	sbci	r25, 0x0D	; 13
    4f0e:	29 f0       	breq	.+10     	; 0x4f1a <sim900_init+0x102>
    4f10:	67 e8       	ldi	r22, 0x87	; 135
    4f12:	7e e0       	ldi	r23, 0x0E	; 14
    4f14:	81 e0       	ldi	r24, 0x01	; 1
    4f16:	b0 d7       	rcall	.+3936   	; 0x5e78 <debug_string_P>
    4f18:	04 c0       	rjmp	.+8      	; 0x4f22 <sim900_init+0x10a>
    4f1a:	68 eb       	ldi	r22, 0xB8	; 184
    4f1c:	7e e0       	ldi	r23, 0x0E	; 14
    4f1e:	82 e0       	ldi	r24, 0x02	; 2
    4f20:	ab d7       	rcall	.+3926   	; 0x5e78 <debug_string_P>
    4f22:	60 e8       	ldi	r22, 0x80	; 128
    4f24:	74 e8       	ldi	r23, 0x84	; 132
    4f26:	8e e1       	ldi	r24, 0x1E	; 30
    4f28:	90 e0       	ldi	r25, 0x00	; 0
    4f2a:	f9 dc       	rcall	.-1550   	; 0x491e <__portable_avr_delay_cycles>
    4f2c:	8e ed       	ldi	r24, 0xDE	; 222
    4f2e:	9e e0       	ldi	r25, 0x0E	; 14
    4f30:	55 df       	rcall	.-342    	; 0x4ddc <sim900_cmd_with_retstring.constprop.3>
    4f32:	8d 5a       	subi	r24, 0xAD	; 173
    4f34:	9d 40       	sbci	r25, 0x0D	; 13
    4f36:	29 f0       	breq	.+10     	; 0x4f42 <sim900_init+0x12a>
    4f38:	6a ee       	ldi	r22, 0xEA	; 234
    4f3a:	7e e0       	ldi	r23, 0x0E	; 14
    4f3c:	81 e0       	ldi	r24, 0x01	; 1
    4f3e:	9c d7       	rcall	.+3896   	; 0x5e78 <debug_string_P>
    4f40:	04 c0       	rjmp	.+8      	; 0x4f4a <sim900_init+0x132>
    4f42:	6e e1       	ldi	r22, 0x1E	; 30
    4f44:	7f e0       	ldi	r23, 0x0F	; 15
    4f46:	82 e0       	ldi	r24, 0x02	; 2
    4f48:	97 d7       	rcall	.+3886   	; 0x5e78 <debug_string_P>
    4f4a:	60 e8       	ldi	r22, 0x80	; 128
    4f4c:	74 e8       	ldi	r23, 0x84	; 132
    4f4e:	8e e1       	ldi	r24, 0x1E	; 30
    4f50:	90 e0       	ldi	r25, 0x00	; 0
    4f52:	e5 dc       	rcall	.-1590   	; 0x491e <__portable_avr_delay_cycles>
    4f54:	89 e4       	ldi	r24, 0x49	; 73
    4f56:	9f e0       	ldi	r25, 0x0F	; 15
    4f58:	41 df       	rcall	.-382    	; 0x4ddc <sim900_cmd_with_retstring.constprop.3>
    4f5a:	7c 01       	movw	r14, r24
    4f5c:	fd e0       	ldi	r31, 0x0D	; 13
    4f5e:	8d 3a       	cpi	r24, 0xAD	; 173
    4f60:	9f 07       	cpc	r25, r31
    4f62:	21 f0       	breq	.+8      	; 0x4f6c <sim900_init+0x154>
    4f64:	64 e5       	ldi	r22, 0x54	; 84
    4f66:	7f e0       	ldi	r23, 0x0F	; 15
    4f68:	81 e0       	ldi	r24, 0x01	; 1
    4f6a:	86 d7       	rcall	.+3852   	; 0x5e78 <debug_string_P>
    4f6c:	ac 8a       	std	Y+20, r10	; 0x14
    4f6e:	60 e8       	ldi	r22, 0x80	; 128
    4f70:	74 e8       	ldi	r23, 0x84	; 132
    4f72:	8e e1       	ldi	r24, 0x1E	; 30
    4f74:	90 e0       	ldi	r25, 0x00	; 0
    4f76:	d3 dc       	rcall	.-1626   	; 0x491e <__portable_avr_delay_cycles>
    4f78:	ae 01       	movw	r20, r28
    4f7a:	4c 5e       	subi	r20, 0xEC	; 236
    4f7c:	5f 4f       	sbci	r21, 0xFF	; 255
    4f7e:	60 eb       	ldi	r22, 0xB0	; 176
    4f80:	75 e2       	ldi	r23, 0x25	; 37
    4f82:	87 e8       	ldi	r24, 0x87	; 135
    4f84:	9f e0       	ldi	r25, 0x0F	; 15
    4f86:	e8 dd       	rcall	.-1072   	; 0x4b58 <sim900_cmd_with_read_string.constprop.4>
    4f88:	25 df       	rcall	.-438    	; 0x4dd4 <sim900_wait_retstring>
    4f8a:	60 e9       	ldi	r22, 0x90	; 144
    4f8c:	7f e0       	ldi	r23, 0x0F	; 15
    4f8e:	81 e0       	ldi	r24, 0x01	; 1
    4f90:	73 d7       	rcall	.+3814   	; 0x5e78 <debug_string_P>
    4f92:	40 e0       	ldi	r20, 0x00	; 0
    4f94:	60 eb       	ldi	r22, 0xB0	; 176
    4f96:	75 e2       	ldi	r23, 0x25	; 37
    4f98:	81 e0       	ldi	r24, 0x01	; 1
    4f9a:	44 d7       	rcall	.+3720   	; 0x5e24 <debug_string>
    4f9c:	6f ec       	ldi	r22, 0xCF	; 207
    4f9e:	7e e1       	ldi	r23, 0x1E	; 30
    4fa0:	81 e0       	ldi	r24, 0x01	; 1
    4fa2:	6a d7       	rcall	.+3796   	; 0x5e78 <debug_string_P>
    4fa4:	2d ea       	ldi	r18, 0xAD	; 173
    4fa6:	e2 16       	cp	r14, r18
    4fa8:	2d e0       	ldi	r18, 0x0D	; 13
    4faa:	f2 06       	cpc	r15, r18
    4fac:	29 f0       	breq	.+10     	; 0x4fb8 <sim900_init+0x1a0>
    4fae:	60 ea       	ldi	r22, 0xA0	; 160
    4fb0:	7f e0       	ldi	r23, 0x0F	; 15
    4fb2:	81 e0       	ldi	r24, 0x01	; 1
    4fb4:	61 d7       	rcall	.+3778   	; 0x5e78 <debug_string_P>
    4fb6:	04 c0       	rjmp	.+8      	; 0x4fc0 <sim900_init+0x1a8>
    4fb8:	61 ec       	ldi	r22, 0xC1	; 193
    4fba:	7f e0       	ldi	r23, 0x0F	; 15
    4fbc:	81 e0       	ldi	r24, 0x01	; 1
    4fbe:	5c d7       	rcall	.+3768   	; 0x5e78 <debug_string_P>
    4fc0:	60 e8       	ldi	r22, 0x80	; 128
    4fc2:	74 e8       	ldi	r23, 0x84	; 132
    4fc4:	8e e1       	ldi	r24, 0x1E	; 30
    4fc6:	90 e0       	ldi	r25, 0x00	; 0
    4fc8:	aa dc       	rcall	.-1708   	; 0x491e <__portable_avr_delay_cycles>
    4fca:	8f ed       	ldi	r24, 0xDF	; 223
    4fcc:	9f e0       	ldi	r25, 0x0F	; 15
    4fce:	86 dd       	rcall	.-1268   	; 0x4adc <sim900_put_string.part.0>
    4fd0:	01 df       	rcall	.-510    	; 0x4dd4 <sim900_wait_retstring>
    4fd2:	8d 5a       	subi	r24, 0xAD	; 173
    4fd4:	9d 40       	sbci	r25, 0x0D	; 13
    4fd6:	31 f0       	breq	.+12     	; 0x4fe4 <sim900_init+0x1cc>
    4fd8:	6b ee       	ldi	r22, 0xEB	; 235
    4fda:	7f e0       	ldi	r23, 0x0F	; 15
    4fdc:	81 e0       	ldi	r24, 0x01	; 1
    4fde:	4c d7       	rcall	.+3736   	; 0x5e78 <debug_string_P>
    4fe0:	11 e0       	ldi	r17, 0x01	; 1
    4fe2:	9d c0       	rjmp	.+314    	; 0x511e <sim900_init+0x306>
    4fe4:	60 e8       	ldi	r22, 0x80	; 128
    4fe6:	74 e8       	ldi	r23, 0x84	; 132
    4fe8:	8e e1       	ldi	r24, 0x1E	; 30
    4fea:	90 e0       	ldi	r25, 0x00	; 0
    4fec:	98 dc       	rcall	.-1744   	; 0x491e <__portable_avr_delay_cycles>
    4fee:	8e e0       	ldi	r24, 0x0E	; 14
    4ff0:	90 e1       	ldi	r25, 0x10	; 16
    4ff2:	74 dd       	rcall	.-1304   	; 0x4adc <sim900_put_string.part.0>
    4ff4:	69 e0       	ldi	r22, 0x09	; 9
    4ff6:	89 e1       	ldi	r24, 0x19	; 25
    4ff8:	90 e1       	ldi	r25, 0x10	; 16
    4ffa:	3e de       	rcall	.-900    	; 0x4c78 <sim900_wait4dictionary>
    4ffc:	f0 e1       	ldi	r31, 0x10	; 16
    4ffe:	8b 32       	cpi	r24, 0x2B	; 43
    5000:	9f 07       	cpc	r25, r31
    5002:	09 f0       	breq	.+2      	; 0x5006 <sim900_init+0x1ee>
    5004:	35 c0       	rjmp	.+106    	; 0x5070 <sim900_init+0x258>
    5006:	63 e3       	ldi	r22, 0x33	; 51
    5008:	70 e1       	ldi	r23, 0x10	; 16
    500a:	81 e0       	ldi	r24, 0x01	; 1
    500c:	35 d7       	rcall	.+3690   	; 0x5e78 <debug_string_P>
    500e:	68 e0       	ldi	r22, 0x08	; 8
    5010:	c8 01       	movw	r24, r16
    5012:	0e 94 1c 10 	call	0x2038	; 0x2038 <cfg_get_sim_pin>
    5016:	89 81       	ldd	r24, Y+1	; 0x01
    5018:	81 11       	cpse	r24, r1
    501a:	06 c0       	rjmp	.+12     	; 0x5028 <sim900_init+0x210>
    501c:	61 e6       	ldi	r22, 0x61	; 97
    501e:	70 e1       	ldi	r23, 0x10	; 16
    5020:	81 e0       	ldi	r24, 0x01	; 1
    5022:	2a d7       	rcall	.+3668   	; 0x5e78 <debug_string_P>
    5024:	13 e0       	ldi	r17, 0x03	; 3
    5026:	7b c0       	rjmp	.+246    	; 0x511e <sim900_init+0x306>
    5028:	6a ea       	ldi	r22, 0xAA	; 170
    502a:	70 e1       	ldi	r23, 0x10	; 16
    502c:	81 e0       	ldi	r24, 0x01	; 1
    502e:	24 d7       	rcall	.+3656   	; 0x5e78 <debug_string_P>
    5030:	40 e0       	ldi	r20, 0x00	; 0
    5032:	b8 01       	movw	r22, r16
    5034:	81 e0       	ldi	r24, 0x01	; 1
    5036:	f6 d6       	rcall	.+3564   	; 0x5e24 <debug_string>
    5038:	6f ec       	ldi	r22, 0xCF	; 207
    503a:	7e e1       	ldi	r23, 0x1E	; 30
    503c:	81 e0       	ldi	r24, 0x01	; 1
    503e:	1c d7       	rcall	.+3640   	; 0x5e78 <debug_string_P>
    5040:	60 e8       	ldi	r22, 0x80	; 128
    5042:	74 e8       	ldi	r23, 0x84	; 132
    5044:	8e e1       	ldi	r24, 0x1E	; 30
    5046:	90 e0       	ldi	r25, 0x00	; 0
    5048:	6a dc       	rcall	.-1836   	; 0x491e <__portable_avr_delay_cycles>
    504a:	8e ee       	ldi	r24, 0xEE	; 238
    504c:	90 e1       	ldi	r25, 0x10	; 16
    504e:	46 dd       	rcall	.-1396   	; 0x4adc <sim900_put_string.part.0>
    5050:	60 e0       	ldi	r22, 0x00	; 0
    5052:	c8 01       	movw	r24, r16
    5054:	63 dd       	rcall	.-1338   	; 0x4b1c <sim900_put_string>
    5056:	8f ec       	ldi	r24, 0xCF	; 207
    5058:	9e e1       	ldi	r25, 0x1E	; 30
    505a:	40 dd       	rcall	.-1408   	; 0x4adc <sim900_put_string.part.0>
    505c:	bb de       	rcall	.-650    	; 0x4dd4 <sim900_wait_retstring>
    505e:	8d 5a       	subi	r24, 0xAD	; 173
    5060:	9d 40       	sbci	r25, 0x0D	; 13
    5062:	99 f0       	breq	.+38     	; 0x508a <sim900_init+0x272>
    5064:	67 ef       	ldi	r22, 0xF7	; 247
    5066:	70 e1       	ldi	r23, 0x10	; 16
    5068:	81 e0       	ldi	r24, 0x01	; 1
    506a:	06 d7       	rcall	.+3596   	; 0x5e78 <debug_string_P>
    506c:	13 e0       	ldi	r17, 0x03	; 3
    506e:	57 c0       	rjmp	.+174    	; 0x511e <sim900_init+0x306>
    5070:	8c 51       	subi	r24, 0x1C	; 28
    5072:	91 41       	sbci	r25, 0x11	; 17
    5074:	51 f4       	brne	.+20     	; 0x508a <sim900_init+0x272>
    5076:	64 e2       	ldi	r22, 0x24	; 36
    5078:	71 e1       	ldi	r23, 0x11	; 17
    507a:	81 e0       	ldi	r24, 0x01	; 1
    507c:	fd d6       	rcall	.+3578   	; 0x5e78 <debug_string_P>
    507e:	62 e5       	ldi	r22, 0x52	; 82
    5080:	71 e1       	ldi	r23, 0x11	; 17
    5082:	81 e0       	ldi	r24, 0x01	; 1
    5084:	f9 d6       	rcall	.+3570   	; 0x5e78 <debug_string_P>
    5086:	14 e0       	ldi	r17, 0x04	; 4
    5088:	4a c0       	rjmp	.+148    	; 0x511e <sim900_init+0x306>
    508a:	1c 8a       	std	Y+20, r1	; 0x14
    508c:	43 c0       	rjmp	.+134    	; 0x5114 <sim900_init+0x2fc>
    508e:	86 dc       	rcall	.-1780   	; 0x499c <statusled_blink.constprop.7>
    5090:	60 e8       	ldi	r22, 0x80	; 128
    5092:	74 e8       	ldi	r23, 0x84	; 132
    5094:	8e e1       	ldi	r24, 0x1E	; 30
    5096:	90 e0       	ldi	r25, 0x00	; 0
    5098:	42 dc       	rcall	.-1916   	; 0x491e <__portable_avr_delay_cycles>
    509a:	87 e8       	ldi	r24, 0x87	; 135
    509c:	91 e1       	ldi	r25, 0x11	; 17
    509e:	1e dd       	rcall	.-1476   	; 0x4adc <sim900_put_string.part.0>
    50a0:	8b 8a       	std	Y+19, r8	; 0x13
    50a2:	f8 01       	movw	r30, r16
    50a4:	29 2d       	mov	r18, r9
    50a6:	11 92       	st	Z+, r1
    50a8:	2a 95       	dec	r18
    50aa:	e9 f7       	brne	.-6      	; 0x50a6 <sim900_init+0x28e>
    50ac:	be 01       	movw	r22, r28
    50ae:	6d 5e       	subi	r22, 0xED	; 237
    50b0:	7f 4f       	sbci	r23, 0xFF	; 255
    50b2:	c8 01       	movw	r24, r16
    50b4:	8f dc       	rcall	.-1762   	; 0x49d4 <sim900_read_string>
    50b6:	45 e0       	ldi	r20, 0x05	; 5
    50b8:	50 e0       	ldi	r21, 0x00	; 0
    50ba:	62 e9       	ldi	r22, 0x92	; 146
    50bc:	71 e1       	ldi	r23, 0x11	; 17
    50be:	c8 01       	movw	r24, r16
    50c0:	0e 94 12 49 	call	0x9224	; 0x9224 <strncasecmp_P>
    50c4:	89 2b       	or	r24, r25
    50c6:	29 f0       	breq	.+10     	; 0x50d2 <sim900_init+0x2ba>
    50c8:	6d e9       	ldi	r22, 0x9D	; 157
    50ca:	71 e1       	ldi	r23, 0x11	; 17
    50cc:	81 e0       	ldi	r24, 0x01	; 1
    50ce:	d4 d6       	rcall	.+3496   	; 0x5e78 <debug_string_P>
    50d0:	dc ce       	rjmp	.-584    	; 0x4e8a <sim900_init+0x72>
    50d2:	8a 85       	ldd	r24, Y+10	; 0x0a
    50d4:	81 33       	cpi	r24, 0x31	; 49
    50d6:	31 f4       	brne	.+12     	; 0x50e4 <sim900_init+0x2cc>
    50d8:	60 ee       	ldi	r22, 0xE0	; 224
    50da:	71 e1       	ldi	r23, 0x11	; 17
    50dc:	81 e0       	ldi	r24, 0x01	; 1
    50de:	cc d6       	rcall	.+3480   	; 0x5e78 <debug_string_P>
    50e0:	10 e0       	ldi	r17, 0x00	; 0
    50e2:	1d c0       	rjmp	.+58     	; 0x511e <sim900_init+0x306>
    50e4:	6b e1       	ldi	r22, 0x1B	; 27
    50e6:	72 e1       	ldi	r23, 0x12	; 18
    50e8:	81 e0       	ldi	r24, 0x01	; 1
    50ea:	c6 d6       	rcall	.+3468   	; 0x5e78 <debug_string_P>
    50ec:	40 e0       	ldi	r20, 0x00	; 0
    50ee:	b8 01       	movw	r22, r16
    50f0:	81 e0       	ldi	r24, 0x01	; 1
    50f2:	98 d6       	rcall	.+3376   	; 0x5e24 <debug_string>
    50f4:	6a e3       	ldi	r22, 0x3A	; 58
    50f6:	72 e1       	ldi	r23, 0x12	; 18
    50f8:	81 e0       	ldi	r24, 0x01	; 1
    50fa:	be d6       	rcall	.+3452   	; 0x5e78 <debug_string_P>
    50fc:	61 e6       	ldi	r22, 0x61	; 97
    50fe:	72 e1       	ldi	r23, 0x12	; 18
    5100:	81 e0       	ldi	r24, 0x01	; 1
    5102:	ba d6       	rcall	.+3444   	; 0x5e78 <debug_string_P>
    5104:	60 e0       	ldi	r22, 0x00	; 0
    5106:	7d e2       	ldi	r23, 0x2D	; 45
    5108:	81 e3       	ldi	r24, 0x31	; 49
    510a:	91 e0       	ldi	r25, 0x01	; 1
    510c:	08 dc       	rcall	.-2032   	; 0x491e <__portable_avr_delay_cycles>
    510e:	8c 89       	ldd	r24, Y+20	; 0x14
    5110:	8f 5f       	subi	r24, 0xFF	; 255
    5112:	8c 8b       	std	Y+20, r24	; 0x14
    5114:	8c 89       	ldd	r24, Y+20	; 0x14
    5116:	82 31       	cpi	r24, 0x12	; 18
    5118:	08 f4       	brcc	.+2      	; 0x511c <sim900_init+0x304>
    511a:	b9 cf       	rjmp	.-142    	; 0x508e <sim900_init+0x276>
    511c:	10 e0       	ldi	r17, 0x00	; 0
    511e:	ce 01       	movw	r24, r28
    5120:	41 96       	adiw	r24, 0x11	; 17
    5122:	e8 d6       	rcall	.+3536   	; 0x5ef4 <debug_function_out_name_print_P>
    5124:	81 2f       	mov	r24, r17
    5126:	64 96       	adiw	r28, 0x14	; 20
    5128:	cd bf       	out	0x3d, r28	; 61
    512a:	de bf       	out	0x3e, r29	; 62
    512c:	df 91       	pop	r29
    512e:	cf 91       	pop	r28
    5130:	1f 91       	pop	r17
    5132:	0f 91       	pop	r16
    5134:	ff 90       	pop	r15
    5136:	ef 90       	pop	r14
    5138:	df 90       	pop	r13
    513a:	cf 90       	pop	r12
    513c:	bf 90       	pop	r11
    513e:	af 90       	pop	r10
    5140:	9f 90       	pop	r9
    5142:	8f 90       	pop	r8
    5144:	08 95       	ret

00005146 <sim900_GPRS_init>:
    5146:	df 92       	push	r13
    5148:	ef 92       	push	r14
    514a:	ff 92       	push	r15
    514c:	0f 93       	push	r16
    514e:	1f 93       	push	r17
    5150:	cf 93       	push	r28
    5152:	df 93       	push	r29
    5154:	cd b7       	in	r28, 0x3d	; 61
    5156:	de b7       	in	r29, 0x3e	; 62
    5158:	a3 97       	sbiw	r28, 0x23	; 35
    515a:	cd bf       	out	0x3d, r28	; 61
    515c:	de bf       	out	0x3e, r29	; 62
    515e:	8c 01       	movw	r16, r24
    5160:	d6 2e       	mov	r13, r22
    5162:	80 e2       	ldi	r24, 0x20	; 32
    5164:	8b a3       	std	Y+35, r24	; 0x23
    5166:	8c ea       	ldi	r24, 0xAC	; 172
    5168:	94 e1       	ldi	r25, 0x14	; 20
    516a:	89 a3       	std	Y+33, r24	; 0x21
    516c:	9a a3       	std	Y+34, r25	; 0x22
    516e:	bc 01       	movw	r22, r24
    5170:	82 e0       	ldi	r24, 0x02	; 2
    5172:	ad d6       	rcall	.+3418   	; 0x5ece <debug_function_in_name_print_P>
    5174:	60 e8       	ldi	r22, 0x80	; 128
    5176:	74 e8       	ldi	r23, 0x84	; 132
    5178:	8e e1       	ldi	r24, 0x1E	; 30
    517a:	90 e0       	ldi	r25, 0x00	; 0
    517c:	d0 db       	rcall	.-2144   	; 0x491e <__portable_avr_delay_cycles>
    517e:	ae 01       	movw	r20, r28
    5180:	4d 5d       	subi	r20, 0xDD	; 221
    5182:	5f 4f       	sbci	r21, 0xFF	; 255
    5184:	be 01       	movw	r22, r28
    5186:	6f 5f       	subi	r22, 0xFF	; 255
    5188:	7f 4f       	sbci	r23, 0xFF	; 255
    518a:	8d eb       	ldi	r24, 0xBD	; 189
    518c:	94 e1       	ldi	r25, 0x14	; 20
    518e:	e4 dc       	rcall	.-1592   	; 0x4b58 <sim900_cmd_with_read_string.constprop.4>
    5190:	88 23       	and	r24, r24
    5192:	39 f0       	breq	.+14     	; 0x51a2 <sim900_GPRS_init+0x5c>
    5194:	41 e0       	ldi	r20, 0x01	; 1
    5196:	6c ec       	ldi	r22, 0xCC	; 204
    5198:	74 e1       	ldi	r23, 0x14	; 20
    519a:	81 e0       	ldi	r24, 0x01	; 1
    519c:	43 d6       	rcall	.+3206   	; 0x5e24 <debug_string>
    519e:	11 e0       	ldi	r17, 0x01	; 1
    51a0:	db c0       	rjmp	.+438    	; 0x5358 <sim900_GPRS_init+0x212>
    51a2:	18 de       	rcall	.-976    	; 0x4dd4 <sim900_wait_retstring>
    51a4:	7c 01       	movw	r14, r24
    51a6:	41 e0       	ldi	r20, 0x01	; 1
    51a8:	62 e2       	ldi	r22, 0x22	; 34
    51aa:	75 e1       	ldi	r23, 0x15	; 21
    51ac:	82 e0       	ldi	r24, 0x02	; 2
    51ae:	3a d6       	rcall	.+3188   	; 0x5e24 <debug_string>
    51b0:	40 e0       	ldi	r20, 0x00	; 0
    51b2:	be 01       	movw	r22, r28
    51b4:	6f 5f       	subi	r22, 0xFF	; 255
    51b6:	7f 4f       	sbci	r23, 0xFF	; 255
    51b8:	82 e0       	ldi	r24, 0x02	; 2
    51ba:	34 d6       	rcall	.+3176   	; 0x5e24 <debug_string>
    51bc:	41 e0       	ldi	r20, 0x01	; 1
    51be:	6f ec       	ldi	r22, 0xCF	; 207
    51c0:	7e e1       	ldi	r23, 0x1E	; 30
    51c2:	82 e0       	ldi	r24, 0x02	; 2
    51c4:	2f d6       	rcall	.+3166   	; 0x5e24 <debug_string>
    51c6:	2d ea       	ldi	r18, 0xAD	; 173
    51c8:	e2 16       	cp	r14, r18
    51ca:	2d e0       	ldi	r18, 0x0D	; 13
    51cc:	f2 06       	cpc	r15, r18
    51ce:	39 f0       	breq	.+14     	; 0x51de <sim900_GPRS_init+0x98>
    51d0:	41 e0       	ldi	r20, 0x01	; 1
    51d2:	62 e4       	ldi	r22, 0x42	; 66
    51d4:	75 e1       	ldi	r23, 0x15	; 21
    51d6:	81 e0       	ldi	r24, 0x01	; 1
    51d8:	25 d6       	rcall	.+3146   	; 0x5e24 <debug_string>
    51da:	11 e0       	ldi	r17, 0x01	; 1
    51dc:	bd c0       	rjmp	.+378    	; 0x5358 <sim900_GPRS_init+0x212>
    51de:	4b e0       	ldi	r20, 0x0B	; 11
    51e0:	50 e0       	ldi	r21, 0x00	; 0
    51e2:	68 e9       	ldi	r22, 0x98	; 152
    51e4:	75 e1       	ldi	r23, 0x15	; 21
    51e6:	ce 01       	movw	r24, r28
    51e8:	01 96       	adiw	r24, 0x01	; 1
    51ea:	0e 94 12 49 	call	0x9224	; 0x9224 <strncasecmp_P>
    51ee:	89 2b       	or	r24, r25
    51f0:	81 f0       	breq	.+32     	; 0x5212 <sim900_GPRS_init+0xcc>
    51f2:	8b 85       	ldd	r24, Y+11	; 0x0b
    51f4:	41 e0       	ldi	r20, 0x01	; 1
    51f6:	82 33       	cpi	r24, 0x32	; 50
    51f8:	31 f4       	brne	.+12     	; 0x5206 <sim900_GPRS_init+0xc0>
    51fa:	6e ea       	ldi	r22, 0xAE	; 174
    51fc:	75 e1       	ldi	r23, 0x15	; 21
    51fe:	81 e0       	ldi	r24, 0x01	; 1
    5200:	11 d6       	rcall	.+3106   	; 0x5e24 <debug_string>
    5202:	12 e0       	ldi	r17, 0x02	; 2
    5204:	a9 c0       	rjmp	.+338    	; 0x5358 <sim900_GPRS_init+0x212>
    5206:	67 ef       	ldi	r22, 0xF7	; 247
    5208:	75 e1       	ldi	r23, 0x15	; 21
    520a:	81 e0       	ldi	r24, 0x01	; 1
    520c:	0b d6       	rcall	.+3094   	; 0x5e24 <debug_string>
    520e:	10 e0       	ldi	r17, 0x00	; 0
    5210:	a3 c0       	rjmp	.+326    	; 0x5358 <sim900_GPRS_init+0x212>
    5212:	60 e8       	ldi	r22, 0x80	; 128
    5214:	74 e8       	ldi	r23, 0x84	; 132
    5216:	8e e1       	ldi	r24, 0x1E	; 30
    5218:	90 e0       	ldi	r25, 0x00	; 0
    521a:	81 db       	rcall	.-2302   	; 0x491e <__portable_avr_delay_cycles>
    521c:	8a e3       	ldi	r24, 0x3A	; 58
    521e:	96 e1       	ldi	r25, 0x16	; 22
    5220:	dd dd       	rcall	.-1094   	; 0x4ddc <sim900_cmd_with_retstring.constprop.3>
    5222:	89 2b       	or	r24, r25
    5224:	39 f4       	brne	.+14     	; 0x5234 <sim900_GPRS_init+0xee>
    5226:	41 e0       	ldi	r20, 0x01	; 1
    5228:	6a e5       	ldi	r22, 0x5A	; 90
    522a:	76 e1       	ldi	r23, 0x16	; 22
    522c:	81 e0       	ldi	r24, 0x01	; 1
    522e:	fa d5       	rcall	.+3060   	; 0x5e24 <debug_string>
    5230:	11 e0       	ldi	r17, 0x01	; 1
    5232:	92 c0       	rjmp	.+292    	; 0x5358 <sim900_GPRS_init+0x212>
    5234:	60 e8       	ldi	r22, 0x80	; 128
    5236:	74 e8       	ldi	r23, 0x84	; 132
    5238:	8e e1       	ldi	r24, 0x1E	; 30
    523a:	90 e0       	ldi	r25, 0x00	; 0
    523c:	70 db       	rcall	.-2336   	; 0x491e <__portable_avr_delay_cycles>
    523e:	82 ec       	ldi	r24, 0xC2	; 194
    5240:	96 e1       	ldi	r25, 0x16	; 22
    5242:	4c dc       	rcall	.-1896   	; 0x4adc <sim900_put_string.part.0>
    5244:	6d 2d       	mov	r22, r13
    5246:	c8 01       	movw	r24, r16
    5248:	69 dc       	rcall	.-1838   	; 0x4b1c <sim900_put_string>
    524a:	87 ed       	ldi	r24, 0xD7	; 215
    524c:	96 e1       	ldi	r25, 0x16	; 22
    524e:	46 dc       	rcall	.-1908   	; 0x4adc <sim900_put_string.part.0>
    5250:	c1 dd       	rcall	.-1150   	; 0x4dd4 <sim900_wait_retstring>
    5252:	2d e0       	ldi	r18, 0x0D	; 13
    5254:	8d 3a       	cpi	r24, 0xAD	; 173
    5256:	92 07       	cpc	r25, r18
    5258:	c1 f0       	breq	.+48     	; 0x528a <sim900_GPRS_init+0x144>
    525a:	89 2b       	or	r24, r25
    525c:	81 f4       	brne	.+32     	; 0x527e <sim900_GPRS_init+0x138>
    525e:	82 ec       	ldi	r24, 0xC2	; 194
    5260:	96 e1       	ldi	r25, 0x16	; 22
    5262:	3c dc       	rcall	.-1928   	; 0x4adc <sim900_put_string.part.0>
    5264:	6d 2d       	mov	r22, r13
    5266:	c8 01       	movw	r24, r16
    5268:	59 dc       	rcall	.-1870   	; 0x4b1c <sim900_put_string>
    526a:	87 ed       	ldi	r24, 0xD7	; 215
    526c:	96 e1       	ldi	r25, 0x16	; 22
    526e:	36 dc       	rcall	.-1940   	; 0x4adc <sim900_put_string.part.0>
    5270:	b1 dd       	rcall	.-1182   	; 0x4dd4 <sim900_wait_retstring>
    5272:	2d e0       	ldi	r18, 0x0D	; 13
    5274:	8d 3a       	cpi	r24, 0xAD	; 173
    5276:	92 07       	cpc	r25, r18
    5278:	41 f0       	breq	.+16     	; 0x528a <sim900_GPRS_init+0x144>
    527a:	89 2b       	or	r24, r25
    527c:	31 f0       	breq	.+12     	; 0x528a <sim900_GPRS_init+0x144>
    527e:	6b ed       	ldi	r22, 0xDB	; 219
    5280:	76 e1       	ldi	r23, 0x16	; 22
    5282:	81 e0       	ldi	r24, 0x01	; 1
    5284:	f9 d5       	rcall	.+3058   	; 0x5e78 <debug_string_P>
    5286:	11 e0       	ldi	r17, 0x01	; 1
    5288:	67 c0       	rjmp	.+206    	; 0x5358 <sim900_GPRS_init+0x212>
    528a:	60 e8       	ldi	r22, 0x80	; 128
    528c:	74 e8       	ldi	r23, 0x84	; 132
    528e:	8e e1       	ldi	r24, 0x1E	; 30
    5290:	90 e0       	ldi	r25, 0x00	; 0
    5292:	45 db       	rcall	.-2422   	; 0x491e <__portable_avr_delay_cycles>
    5294:	88 e3       	ldi	r24, 0x38	; 56
    5296:	97 e1       	ldi	r25, 0x17	; 23
    5298:	a1 dd       	rcall	.-1214   	; 0x4ddc <sim900_cmd_with_retstring.constprop.3>
    529a:	8d 5a       	subi	r24, 0xAD	; 173
    529c:	9d 40       	sbci	r25, 0x0D	; 13
    529e:	31 f0       	breq	.+12     	; 0x52ac <sim900_GPRS_init+0x166>
    52a0:	67 e4       	ldi	r22, 0x47	; 71
    52a2:	77 e1       	ldi	r23, 0x17	; 23
    52a4:	81 e0       	ldi	r24, 0x01	; 1
    52a6:	e8 d5       	rcall	.+3024   	; 0x5e78 <debug_string_P>
    52a8:	11 e0       	ldi	r17, 0x01	; 1
    52aa:	56 c0       	rjmp	.+172    	; 0x5358 <sim900_GPRS_init+0x212>
    52ac:	6a e0       	ldi	r22, 0x0A	; 10
    52ae:	f6 2e       	mov	r15, r22
    52b0:	70 e2       	ldi	r23, 0x20	; 32
    52b2:	e7 2e       	mov	r14, r23
    52b4:	eb a2       	std	Y+35, r14	; 0x23
    52b6:	60 e8       	ldi	r22, 0x80	; 128
    52b8:	74 e8       	ldi	r23, 0x84	; 132
    52ba:	8e e1       	ldi	r24, 0x1E	; 30
    52bc:	90 e0       	ldi	r25, 0x00	; 0
    52be:	2f db       	rcall	.-2466   	; 0x491e <__portable_avr_delay_cycles>
    52c0:	ae 01       	movw	r20, r28
    52c2:	4d 5d       	subi	r20, 0xDD	; 221
    52c4:	5f 4f       	sbci	r21, 0xFF	; 255
    52c6:	be 01       	movw	r22, r28
    52c8:	6f 5f       	subi	r22, 0xFF	; 255
    52ca:	7f 4f       	sbci	r23, 0xFF	; 255
    52cc:	8e e9       	ldi	r24, 0x9E	; 158
    52ce:	97 e1       	ldi	r25, 0x17	; 23
    52d0:	43 dc       	rcall	.-1914   	; 0x4b58 <sim900_cmd_with_read_string.constprop.4>
    52d2:	88 23       	and	r24, r24
    52d4:	31 f0       	breq	.+12     	; 0x52e2 <sim900_GPRS_init+0x19c>
    52d6:	6d ea       	ldi	r22, 0xAD	; 173
    52d8:	77 e1       	ldi	r23, 0x17	; 23
    52da:	81 e0       	ldi	r24, 0x01	; 1
    52dc:	cd d5       	rcall	.+2970   	; 0x5e78 <debug_string_P>
    52de:	11 e0       	ldi	r17, 0x01	; 1
    52e0:	3b c0       	rjmp	.+118    	; 0x5358 <sim900_GPRS_init+0x212>
    52e2:	78 dd       	rcall	.-1296   	; 0x4dd4 <sim900_wait_retstring>
    52e4:	8c 01       	movw	r16, r24
    52e6:	60 e0       	ldi	r22, 0x00	; 0
    52e8:	78 e1       	ldi	r23, 0x18	; 24
    52ea:	82 e0       	ldi	r24, 0x02	; 2
    52ec:	c5 d5       	rcall	.+2954   	; 0x5e78 <debug_string_P>
    52ee:	40 e0       	ldi	r20, 0x00	; 0
    52f0:	be 01       	movw	r22, r28
    52f2:	6f 5f       	subi	r22, 0xFF	; 255
    52f4:	7f 4f       	sbci	r23, 0xFF	; 255
    52f6:	82 e0       	ldi	r24, 0x02	; 2
    52f8:	95 d5       	rcall	.+2858   	; 0x5e24 <debug_string>
    52fa:	6f ec       	ldi	r22, 0xCF	; 207
    52fc:	7e e1       	ldi	r23, 0x1E	; 30
    52fe:	82 e0       	ldi	r24, 0x02	; 2
    5300:	bb d5       	rcall	.+2934   	; 0x5e78 <debug_string_P>
    5302:	0d 5a       	subi	r16, 0xAD	; 173
    5304:	1d 40       	sbci	r17, 0x0D	; 13
    5306:	31 f0       	breq	.+12     	; 0x5314 <sim900_GPRS_init+0x1ce>
    5308:	60 e2       	ldi	r22, 0x20	; 32
    530a:	78 e1       	ldi	r23, 0x18	; 24
    530c:	81 e0       	ldi	r24, 0x01	; 1
    530e:	b4 d5       	rcall	.+2920   	; 0x5e78 <debug_string_P>
    5310:	11 e0       	ldi	r17, 0x01	; 1
    5312:	22 c0       	rjmp	.+68     	; 0x5358 <sim900_GPRS_init+0x212>
    5314:	8b 85       	ldd	r24, Y+11	; 0x0b
    5316:	80 33       	cpi	r24, 0x30	; 48
    5318:	51 f4       	brne	.+20     	; 0x532e <sim900_GPRS_init+0x1e8>
    531a:	63 e6       	ldi	r22, 0x63	; 99
    531c:	78 e1       	ldi	r23, 0x18	; 24
    531e:	81 e0       	ldi	r24, 0x01	; 1
    5320:	ab d5       	rcall	.+2902   	; 0x5e78 <debug_string_P>
    5322:	60 e0       	ldi	r22, 0x00	; 0
    5324:	72 e1       	ldi	r23, 0x12	; 18
    5326:	8a e7       	ldi	r24, 0x7A	; 122
    5328:	90 e0       	ldi	r25, 0x00	; 0
    532a:	f9 da       	rcall	.-2574   	; 0x491e <__portable_avr_delay_cycles>
    532c:	11 c0       	rjmp	.+34     	; 0x5350 <sim900_GPRS_init+0x20a>
    532e:	81 33       	cpi	r24, 0x31	; 49
    5330:	31 f4       	brne	.+12     	; 0x533e <sim900_GPRS_init+0x1f8>
    5332:	61 ec       	ldi	r22, 0xC1	; 193
    5334:	78 e1       	ldi	r23, 0x18	; 24
    5336:	82 e0       	ldi	r24, 0x02	; 2
    5338:	9f d5       	rcall	.+2878   	; 0x5e78 <debug_string_P>
    533a:	10 e0       	ldi	r17, 0x00	; 0
    533c:	0d c0       	rjmp	.+26     	; 0x5358 <sim900_GPRS_init+0x212>
    533e:	82 53       	subi	r24, 0x32	; 50
    5340:	82 30       	cpi	r24, 0x02	; 2
    5342:	30 f4       	brcc	.+12     	; 0x5350 <sim900_GPRS_init+0x20a>
    5344:	63 ef       	ldi	r22, 0xF3	; 243
    5346:	78 e1       	ldi	r23, 0x18	; 24
    5348:	81 e0       	ldi	r24, 0x01	; 1
    534a:	96 d5       	rcall	.+2860   	; 0x5e78 <debug_string_P>
    534c:	11 e0       	ldi	r17, 0x01	; 1
    534e:	04 c0       	rjmp	.+8      	; 0x5358 <sim900_GPRS_init+0x212>
    5350:	fa 94       	dec	r15
    5352:	09 f0       	breq	.+2      	; 0x5356 <sim900_GPRS_init+0x210>
    5354:	af cf       	rjmp	.-162    	; 0x52b4 <sim900_GPRS_init+0x16e>
    5356:	10 e0       	ldi	r17, 0x00	; 0
    5358:	ce 01       	movw	r24, r28
    535a:	81 96       	adiw	r24, 0x21	; 33
    535c:	cb d5       	rcall	.+2966   	; 0x5ef4 <debug_function_out_name_print_P>
    535e:	81 2f       	mov	r24, r17
    5360:	a3 96       	adiw	r28, 0x23	; 35
    5362:	cd bf       	out	0x3d, r28	; 61
    5364:	de bf       	out	0x3e, r29	; 62
    5366:	df 91       	pop	r29
    5368:	cf 91       	pop	r28
    536a:	1f 91       	pop	r17
    536c:	0f 91       	pop	r16
    536e:	ff 90       	pop	r15
    5370:	ef 90       	pop	r14
    5372:	df 90       	pop	r13
    5374:	08 95       	ret

00005376 <sim900_GPRS_simple_open>:
    5376:	cf 93       	push	r28
    5378:	df 93       	push	r29
    537a:	cd b7       	in	r28, 0x3d	; 61
    537c:	de b7       	in	r29, 0x3e	; 62
    537e:	c0 54       	subi	r28, 0x40	; 64
    5380:	d1 09       	sbc	r29, r1
    5382:	cd bf       	out	0x3d, r28	; 61
    5384:	de bf       	out	0x3e, r29	; 62
    5386:	6c e3       	ldi	r22, 0x3C	; 60
    5388:	ce 01       	movw	r24, r28
    538a:	01 96       	adiw	r24, 0x01	; 1
    538c:	0e 94 20 10 	call	0x2040	; 0x2040 <cfg_get_gprs_apn>
    5390:	67 e8       	ldi	r22, 0x87	; 135
    5392:	74 e1       	ldi	r23, 0x14	; 20
    5394:	82 e0       	ldi	r24, 0x02	; 2
    5396:	70 d5       	rcall	.+2784   	; 0x5e78 <debug_string_P>
    5398:	40 e0       	ldi	r20, 0x00	; 0
    539a:	be 01       	movw	r22, r28
    539c:	6f 5f       	subi	r22, 0xFF	; 255
    539e:	7f 4f       	sbci	r23, 0xFF	; 255
    53a0:	82 e0       	ldi	r24, 0x02	; 2
    53a2:	40 d5       	rcall	.+2688   	; 0x5e24 <debug_string>
    53a4:	6f ec       	ldi	r22, 0xCF	; 207
    53a6:	7e e1       	ldi	r23, 0x1E	; 30
    53a8:	82 e0       	ldi	r24, 0x02	; 2
    53aa:	66 d5       	rcall	.+2764   	; 0x5e78 <debug_string_P>
    53ac:	60 e0       	ldi	r22, 0x00	; 0
    53ae:	ce 01       	movw	r24, r28
    53b0:	01 96       	adiw	r24, 0x01	; 1
    53b2:	c9 de       	rcall	.-622    	; 0x5146 <sim900_GPRS_init>
    53b4:	c0 5c       	subi	r28, 0xC0	; 192
    53b6:	df 4f       	sbci	r29, 0xFF	; 255
    53b8:	cd bf       	out	0x3d, r28	; 61
    53ba:	de bf       	out	0x3e, r29	; 62
    53bc:	df 91       	pop	r29
    53be:	cf 91       	pop	r28
    53c0:	08 95       	ret

000053c2 <sim900_GPRS_close>:
    53c2:	60 e8       	ldi	r22, 0x80	; 128
    53c4:	74 e8       	ldi	r23, 0x84	; 132
    53c6:	8e e1       	ldi	r24, 0x1E	; 30
    53c8:	90 e0       	ldi	r25, 0x00	; 0
    53ca:	a9 da       	rcall	.-2734   	; 0x491e <__portable_avr_delay_cycles>
    53cc:	84 e4       	ldi	r24, 0x44	; 68
    53ce:	99 e1       	ldi	r25, 0x19	; 25
    53d0:	05 dd       	rcall	.-1526   	; 0x4ddc <sim900_cmd_with_retstring.constprop.3>
    53d2:	21 e0       	ldi	r18, 0x01	; 1
    53d4:	8d 5a       	subi	r24, 0xAD	; 173
    53d6:	9d 40       	sbci	r25, 0x0D	; 13
    53d8:	09 f4       	brne	.+2      	; 0x53dc <sim900_GPRS_close+0x1a>
    53da:	20 e0       	ldi	r18, 0x00	; 0
    53dc:	82 2f       	mov	r24, r18
    53de:	08 95       	ret

000053e0 <sim900_GPRS_simple_close>:
    53e0:	f0 cf       	rjmp	.-32     	; 0x53c2 <sim900_GPRS_close>

000053e2 <sim900_http_read>:
    53e2:	ef 92       	push	r14
    53e4:	ff 92       	push	r15
    53e6:	0f 93       	push	r16
    53e8:	1f 93       	push	r17
    53ea:	cf 93       	push	r28
    53ec:	df 93       	push	r29
    53ee:	cd b7       	in	r28, 0x3d	; 61
    53f0:	de b7       	in	r29, 0x3e	; 62
    53f2:	c1 54       	subi	r28, 0x41	; 65
    53f4:	d1 09       	sbc	r29, r1
    53f6:	cd bf       	out	0x3d, r28	; 61
    53f8:	de bf       	out	0x3e, r29	; 62
    53fa:	8c 01       	movw	r16, r24
    53fc:	7b 01       	movw	r14, r22
    53fe:	80 e4       	ldi	r24, 0x40	; 64
    5400:	22 96       	adiw	r28, 0x02	; 2
    5402:	8f af       	std	Y+63, r24	; 0x3f
    5404:	22 97       	sbiw	r28, 0x02	; 2
    5406:	60 e8       	ldi	r22, 0x80	; 128
    5408:	74 e8       	ldi	r23, 0x84	; 132
    540a:	8e e1       	ldi	r24, 0x1E	; 30
    540c:	90 e0       	ldi	r25, 0x00	; 0
    540e:	87 da       	rcall	.-2802   	; 0x491e <__portable_avr_delay_cycles>
    5410:	83 e5       	ldi	r24, 0x53	; 83
    5412:	99 e1       	ldi	r25, 0x19	; 25
    5414:	63 db       	rcall	.-2362   	; 0x4adc <sim900_put_string.part.0>
    5416:	81 e6       	ldi	r24, 0x61	; 97
    5418:	99 e1       	ldi	r25, 0x19	; 25
    541a:	e2 db       	rcall	.-2108   	; 0x4be0 <sim900_wait_string.constprop.5>
    541c:	89 2b       	or	r24, r25
    541e:	99 f1       	breq	.+102    	; 0x5486 <sim900_http_read+0xa4>
    5420:	be 01       	movw	r22, r28
    5422:	6f 5b       	subi	r22, 0xBF	; 191
    5424:	7f 4f       	sbci	r23, 0xFF	; 255
    5426:	ce 01       	movw	r24, r28
    5428:	01 96       	adiw	r24, 0x01	; 1
    542a:	d4 da       	rcall	.-2648   	; 0x49d4 <sim900_read_string>
    542c:	28 2f       	mov	r18, r24
    542e:	30 e0       	ldi	r19, 0x00	; 0
    5430:	21 30       	cpi	r18, 0x01	; 1
    5432:	31 05       	cpc	r19, r1
    5434:	39 f4       	brne	.+14     	; 0x5444 <sim900_http_read+0x62>
    5436:	6c e6       	ldi	r22, 0x6C	; 108
    5438:	79 e1       	ldi	r23, 0x19	; 25
    543a:	81 e0       	ldi	r24, 0x01	; 1
    543c:	1d d5       	rcall	.+2618   	; 0x5e78 <debug_string_P>
    543e:	21 e0       	ldi	r18, 0x01	; 1
    5440:	30 e0       	ldi	r19, 0x00	; 0
    5442:	26 c0       	rjmp	.+76     	; 0x5490 <sim900_http_read+0xae>
    5444:	22 30       	cpi	r18, 0x02	; 2
    5446:	31 05       	cpc	r19, r1
    5448:	39 f4       	brne	.+14     	; 0x5458 <sim900_http_read+0x76>
    544a:	6d ea       	ldi	r22, 0xAD	; 173
    544c:	79 e1       	ldi	r23, 0x19	; 25
    544e:	81 e0       	ldi	r24, 0x01	; 1
    5450:	13 d5       	rcall	.+2598   	; 0x5e78 <debug_string_P>
    5452:	22 e0       	ldi	r18, 0x02	; 2
    5454:	30 e0       	ldi	r19, 0x00	; 0
    5456:	1c c0       	rjmp	.+56     	; 0x5490 <sim900_http_read+0xae>
    5458:	b7 01       	movw	r22, r14
    545a:	c8 01       	movw	r24, r16
    545c:	bb da       	rcall	.-2698   	; 0x49d4 <sim900_read_string>
    545e:	90 e0       	ldi	r25, 0x00	; 0
    5460:	81 30       	cpi	r24, 0x01	; 1
    5462:	91 05       	cpc	r25, r1
    5464:	39 f4       	brne	.+14     	; 0x5474 <sim900_http_read+0x92>
    5466:	68 ee       	ldi	r22, 0xE8	; 232
    5468:	79 e1       	ldi	r23, 0x19	; 25
    546a:	81 e0       	ldi	r24, 0x01	; 1
    546c:	05 d5       	rcall	.+2570   	; 0x5e78 <debug_string_P>
    546e:	23 e0       	ldi	r18, 0x03	; 3
    5470:	30 e0       	ldi	r19, 0x00	; 0
    5472:	0e c0       	rjmp	.+28     	; 0x5490 <sim900_http_read+0xae>
    5474:	02 97       	sbiw	r24, 0x02	; 2
    5476:	51 f4       	brne	.+20     	; 0x548c <sim900_http_read+0xaa>
    5478:	69 e2       	ldi	r22, 0x29	; 41
    547a:	7a e1       	ldi	r23, 0x1A	; 26
    547c:	81 e0       	ldi	r24, 0x01	; 1
    547e:	fc d4       	rcall	.+2552   	; 0x5e78 <debug_string_P>
    5480:	24 e0       	ldi	r18, 0x04	; 4
    5482:	30 e0       	ldi	r19, 0x00	; 0
    5484:	05 c0       	rjmp	.+10     	; 0x5490 <sim900_http_read+0xae>
    5486:	21 e0       	ldi	r18, 0x01	; 1
    5488:	30 e0       	ldi	r19, 0x00	; 0
    548a:	02 c0       	rjmp	.+4      	; 0x5490 <sim900_http_read+0xae>
    548c:	20 e0       	ldi	r18, 0x00	; 0
    548e:	30 e0       	ldi	r19, 0x00	; 0
    5490:	c9 01       	movw	r24, r18
    5492:	cf 5b       	subi	r28, 0xBF	; 191
    5494:	df 4f       	sbci	r29, 0xFF	; 255
    5496:	cd bf       	out	0x3d, r28	; 61
    5498:	de bf       	out	0x3e, r29	; 62
    549a:	df 91       	pop	r29
    549c:	cf 91       	pop	r28
    549e:	1f 91       	pop	r17
    54a0:	0f 91       	pop	r16
    54a2:	ff 90       	pop	r15
    54a4:	ef 90       	pop	r14
    54a6:	08 95       	ret

000054a8 <sim900_http_get>:
    54a8:	bf 92       	push	r11
    54aa:	cf 92       	push	r12
    54ac:	df 92       	push	r13
    54ae:	ef 92       	push	r14
    54b0:	ff 92       	push	r15
    54b2:	0f 93       	push	r16
    54b4:	1f 93       	push	r17
    54b6:	cf 93       	push	r28
    54b8:	df 93       	push	r29
    54ba:	cd b7       	in	r28, 0x3d	; 61
    54bc:	de b7       	in	r29, 0x3e	; 62
    54be:	61 97       	sbiw	r28, 0x11	; 17
    54c0:	cd bf       	out	0x3d, r28	; 61
    54c2:	de bf       	out	0x3e, r29	; 62
    54c4:	8c 01       	movw	r16, r24
    54c6:	b6 2e       	mov	r11, r22
    54c8:	7a 01       	movw	r14, r20
    54ca:	69 01       	movw	r12, r18
    54cc:	60 e8       	ldi	r22, 0x80	; 128
    54ce:	74 e8       	ldi	r23, 0x84	; 132
    54d0:	8e e1       	ldi	r24, 0x1E	; 30
    54d2:	90 e0       	ldi	r25, 0x00	; 0
    54d4:	24 da       	rcall	.-3000   	; 0x491e <__portable_avr_delay_cycles>
    54d6:	84 e6       	ldi	r24, 0x64	; 100
    54d8:	9a e1       	ldi	r25, 0x1A	; 26
    54da:	80 dc       	rcall	.-1792   	; 0x4ddc <sim900_cmd_with_retstring.constprop.3>
    54dc:	89 2b       	or	r24, r25
    54de:	39 f4       	brne	.+14     	; 0x54ee <sim900_http_get+0x46>
    54e0:	69 e6       	ldi	r22, 0x69	; 105
    54e2:	7a e1       	ldi	r23, 0x1A	; 26
    54e4:	81 e0       	ldi	r24, 0x01	; 1
    54e6:	c8 d4       	rcall	.+2448   	; 0x5e78 <debug_string_P>
    54e8:	21 e0       	ldi	r18, 0x01	; 1
    54ea:	30 e0       	ldi	r19, 0x00	; 0
    54ec:	af c0       	rjmp	.+350    	; 0x564c <sim900_http_get+0x1a4>
    54ee:	60 e8       	ldi	r22, 0x80	; 128
    54f0:	74 e8       	ldi	r23, 0x84	; 132
    54f2:	8e e1       	ldi	r24, 0x1E	; 30
    54f4:	90 e0       	ldi	r25, 0x00	; 0
    54f6:	13 da       	rcall	.-3034   	; 0x491e <__portable_avr_delay_cycles>
    54f8:	84 e9       	ldi	r24, 0x94	; 148
    54fa:	9a e1       	ldi	r25, 0x1A	; 26
    54fc:	6f dc       	rcall	.-1826   	; 0x4ddc <sim900_cmd_with_retstring.constprop.3>
    54fe:	8d 5a       	subi	r24, 0xAD	; 173
    5500:	9d 40       	sbci	r25, 0x0D	; 13
    5502:	39 f0       	breq	.+14     	; 0x5512 <sim900_http_get+0x6a>
    5504:	62 ea       	ldi	r22, 0xA2	; 162
    5506:	7a e1       	ldi	r23, 0x1A	; 26
    5508:	81 e0       	ldi	r24, 0x01	; 1
    550a:	b6 d4       	rcall	.+2412   	; 0x5e78 <debug_string_P>
    550c:	21 e0       	ldi	r18, 0x01	; 1
    550e:	30 e0       	ldi	r19, 0x00	; 0
    5510:	9d c0       	rjmp	.+314    	; 0x564c <sim900_http_get+0x1a4>
    5512:	60 e8       	ldi	r22, 0x80	; 128
    5514:	74 e8       	ldi	r23, 0x84	; 132
    5516:	8e e1       	ldi	r24, 0x1E	; 30
    5518:	90 e0       	ldi	r25, 0x00	; 0
    551a:	01 da       	rcall	.-3070   	; 0x491e <__portable_avr_delay_cycles>
    551c:	89 ec       	ldi	r24, 0xC9	; 201
    551e:	9a e1       	ldi	r25, 0x1A	; 26
    5520:	5d dc       	rcall	.-1862   	; 0x4ddc <sim900_cmd_with_retstring.constprop.3>
    5522:	8d 5a       	subi	r24, 0xAD	; 173
    5524:	9d 40       	sbci	r25, 0x0D	; 13
    5526:	39 f0       	breq	.+14     	; 0x5536 <sim900_http_get+0x8e>
    5528:	6f ed       	ldi	r22, 0xDF	; 223
    552a:	7a e1       	ldi	r23, 0x1A	; 26
    552c:	81 e0       	ldi	r24, 0x01	; 1
    552e:	a4 d4       	rcall	.+2376   	; 0x5e78 <debug_string_P>
    5530:	21 e0       	ldi	r18, 0x01	; 1
    5532:	30 e0       	ldi	r19, 0x00	; 0
    5534:	8b c0       	rjmp	.+278    	; 0x564c <sim900_http_get+0x1a4>
    5536:	60 e8       	ldi	r22, 0x80	; 128
    5538:	74 e8       	ldi	r23, 0x84	; 132
    553a:	8e e1       	ldi	r24, 0x1E	; 30
    553c:	90 e0       	ldi	r25, 0x00	; 0
    553e:	ef d9       	rcall	.-3106   	; 0x491e <__portable_avr_delay_cycles>
    5540:	8c e0       	ldi	r24, 0x0C	; 12
    5542:	9b e1       	ldi	r25, 0x1B	; 27
    5544:	cb da       	rcall	.-2666   	; 0x4adc <sim900_put_string.part.0>
    5546:	6b 2d       	mov	r22, r11
    5548:	c8 01       	movw	r24, r16
    554a:	e8 da       	rcall	.-2608   	; 0x4b1c <sim900_put_string>
    554c:	80 e2       	ldi	r24, 0x20	; 32
    554e:	9b e1       	ldi	r25, 0x1B	; 27
    5550:	c5 da       	rcall	.-2678   	; 0x4adc <sim900_put_string.part.0>
    5552:	40 dc       	rcall	.-1920   	; 0x4dd4 <sim900_wait_retstring>
    5554:	60 e8       	ldi	r22, 0x80	; 128
    5556:	74 e8       	ldi	r23, 0x84	; 132
    5558:	8e e1       	ldi	r24, 0x1E	; 30
    555a:	90 e0       	ldi	r25, 0x00	; 0
    555c:	e0 d9       	rcall	.-3136   	; 0x491e <__portable_avr_delay_cycles>
    555e:	84 e2       	ldi	r24, 0x24	; 36
    5560:	9b e1       	ldi	r25, 0x1B	; 27
    5562:	3c dc       	rcall	.-1928   	; 0x4ddc <sim900_cmd_with_retstring.constprop.3>
    5564:	8d 5a       	subi	r24, 0xAD	; 173
    5566:	9d 40       	sbci	r25, 0x0D	; 13
    5568:	39 f0       	breq	.+14     	; 0x5578 <sim900_http_get+0xd0>
    556a:	66 e3       	ldi	r22, 0x36	; 54
    556c:	7b e1       	ldi	r23, 0x1B	; 27
    556e:	81 e0       	ldi	r24, 0x01	; 1
    5570:	83 d4       	rcall	.+2310   	; 0x5e78 <debug_string_P>
    5572:	21 e0       	ldi	r18, 0x01	; 1
    5574:	30 e0       	ldi	r19, 0x00	; 0
    5576:	6a c0       	rjmp	.+212    	; 0x564c <sim900_http_get+0x1a4>
    5578:	8f e5       	ldi	r24, 0x5F	; 95
    557a:	9b e1       	ldi	r25, 0x1B	; 27
    557c:	31 db       	rcall	.-2462   	; 0x4be0 <sim900_wait_string.constprop.5>
    557e:	89 2b       	or	r24, r25
    5580:	39 f4       	brne	.+14     	; 0x5590 <sim900_http_get+0xe8>
    5582:	6c e6       	ldi	r22, 0x6C	; 108
    5584:	7b e1       	ldi	r23, 0x1B	; 27
    5586:	81 e0       	ldi	r24, 0x01	; 1
    5588:	77 d4       	rcall	.+2286   	; 0x5e78 <debug_string_P>
    558a:	21 e0       	ldi	r18, 0x01	; 1
    558c:	30 e0       	ldi	r19, 0x00	; 0
    558e:	5e c0       	rjmp	.+188    	; 0x564c <sim900_http_get+0x1a4>
    5590:	80 e1       	ldi	r24, 0x10	; 16
    5592:	89 8b       	std	Y+17, r24	; 0x11
    5594:	be 01       	movw	r22, r28
    5596:	6f 5e       	subi	r22, 0xEF	; 239
    5598:	7f 4f       	sbci	r23, 0xFF	; 255
    559a:	ce 01       	movw	r24, r28
    559c:	01 96       	adiw	r24, 0x01	; 1
    559e:	1a da       	rcall	.-3020   	; 0x49d4 <sim900_read_string>
    55a0:	81 30       	cpi	r24, 0x01	; 1
    55a2:	31 f4       	brne	.+12     	; 0x55b0 <sim900_http_get+0x108>
    55a4:	69 e9       	ldi	r22, 0x99	; 153
    55a6:	7b e1       	ldi	r23, 0x1B	; 27
    55a8:	67 d4       	rcall	.+2254   	; 0x5e78 <debug_string_P>
    55aa:	21 e0       	ldi	r18, 0x01	; 1
    55ac:	30 e0       	ldi	r19, 0x00	; 0
    55ae:	4e c0       	rjmp	.+156    	; 0x564c <sim900_http_get+0x1a4>
    55b0:	69 ed       	ldi	r22, 0xD9	; 217
    55b2:	7b e1       	ldi	r23, 0x1B	; 27
    55b4:	81 e0       	ldi	r24, 0x01	; 1
    55b6:	60 d4       	rcall	.+2240   	; 0x5e78 <debug_string_P>
    55b8:	40 e0       	ldi	r20, 0x00	; 0
    55ba:	be 01       	movw	r22, r28
    55bc:	6f 5f       	subi	r22, 0xFF	; 255
    55be:	7f 4f       	sbci	r23, 0xFF	; 255
    55c0:	81 e0       	ldi	r24, 0x01	; 1
    55c2:	30 d4       	rcall	.+2144   	; 0x5e24 <debug_string>
    55c4:	6f ec       	ldi	r22, 0xCF	; 207
    55c6:	7e e1       	ldi	r23, 0x1E	; 30
    55c8:	81 e0       	ldi	r24, 0x01	; 1
    55ca:	56 d4       	rcall	.+2220   	; 0x5e78 <debug_string_P>
    55cc:	8b 81       	ldd	r24, Y+3	; 0x03
    55ce:	82 33       	cpi	r24, 0x32	; 50
    55d0:	31 f4       	brne	.+12     	; 0x55de <sim900_http_get+0x136>
    55d2:	8c 81       	ldd	r24, Y+4	; 0x04
    55d4:	80 33       	cpi	r24, 0x30	; 48
    55d6:	19 f4       	brne	.+6      	; 0x55de <sim900_http_get+0x136>
    55d8:	8d 81       	ldd	r24, Y+5	; 0x05
    55da:	80 33       	cpi	r24, 0x30	; 48
    55dc:	39 f0       	breq	.+14     	; 0x55ec <sim900_http_get+0x144>
    55de:	61 e0       	ldi	r22, 0x01	; 1
    55e0:	7c e1       	ldi	r23, 0x1C	; 28
    55e2:	81 e0       	ldi	r24, 0x01	; 1
    55e4:	49 d4       	rcall	.+2194   	; 0x5e78 <debug_string_P>
    55e6:	21 e0       	ldi	r18, 0x01	; 1
    55e8:	30 e0       	ldi	r19, 0x00	; 0
    55ea:	30 c0       	rjmp	.+96     	; 0x564c <sim900_http_get+0x1a4>
    55ec:	60 e8       	ldi	r22, 0x80	; 128
    55ee:	74 e8       	ldi	r23, 0x84	; 132
    55f0:	8e e1       	ldi	r24, 0x1E	; 30
    55f2:	90 e0       	ldi	r25, 0x00	; 0
    55f4:	94 d9       	rcall	.-3288   	; 0x491e <__portable_avr_delay_cycles>
    55f6:	81 e3       	ldi	r24, 0x31	; 49
    55f8:	9c e1       	ldi	r25, 0x1C	; 28
    55fa:	70 da       	rcall	.-2848   	; 0x4adc <sim900_put_string.part.0>
    55fc:	8f e3       	ldi	r24, 0x3F	; 63
    55fe:	9c e1       	ldi	r25, 0x1C	; 28
    5600:	ef da       	rcall	.-2594   	; 0x4be0 <sim900_wait_string.constprop.5>
    5602:	89 2b       	or	r24, r25
    5604:	09 f1       	breq	.+66     	; 0x5648 <sim900_http_get+0x1a0>
    5606:	80 e1       	ldi	r24, 0x10	; 16
    5608:	89 8b       	std	Y+17, r24	; 0x11
    560a:	be 01       	movw	r22, r28
    560c:	6f 5e       	subi	r22, 0xEF	; 239
    560e:	7f 4f       	sbci	r23, 0xFF	; 255
    5610:	ce 01       	movw	r24, r28
    5612:	01 96       	adiw	r24, 0x01	; 1
    5614:	df d9       	rcall	.-3138   	; 0x49d4 <sim900_read_string>
    5616:	81 30       	cpi	r24, 0x01	; 1
    5618:	39 f4       	brne	.+14     	; 0x5628 <sim900_http_get+0x180>
    561a:	41 e0       	ldi	r20, 0x01	; 1
    561c:	6a e4       	ldi	r22, 0x4A	; 74
    561e:	7c e1       	ldi	r23, 0x1C	; 28
    5620:	01 d4       	rcall	.+2050   	; 0x5e24 <debug_string>
    5622:	21 e0       	ldi	r18, 0x01	; 1
    5624:	30 e0       	ldi	r19, 0x00	; 0
    5626:	12 c0       	rjmp	.+36     	; 0x564c <sim900_http_get+0x1a4>
    5628:	82 30       	cpi	r24, 0x02	; 2
    562a:	41 f4       	brne	.+16     	; 0x563c <sim900_http_get+0x194>
    562c:	41 e0       	ldi	r20, 0x01	; 1
    562e:	69 e8       	ldi	r22, 0x89	; 137
    5630:	7c e1       	ldi	r23, 0x1C	; 28
    5632:	81 e0       	ldi	r24, 0x01	; 1
    5634:	f7 d3       	rcall	.+2030   	; 0x5e24 <debug_string>
    5636:	22 e0       	ldi	r18, 0x02	; 2
    5638:	30 e0       	ldi	r19, 0x00	; 0
    563a:	08 c0       	rjmp	.+16     	; 0x564c <sim900_http_get+0x1a4>
    563c:	b6 01       	movw	r22, r12
    563e:	c7 01       	movw	r24, r14
    5640:	c9 d9       	rcall	.-3182   	; 0x49d4 <sim900_read_string>
    5642:	20 e0       	ldi	r18, 0x00	; 0
    5644:	30 e0       	ldi	r19, 0x00	; 0
    5646:	02 c0       	rjmp	.+4      	; 0x564c <sim900_http_get+0x1a4>
    5648:	21 e0       	ldi	r18, 0x01	; 1
    564a:	30 e0       	ldi	r19, 0x00	; 0
    564c:	c9 01       	movw	r24, r18
    564e:	61 96       	adiw	r28, 0x11	; 17
    5650:	cd bf       	out	0x3d, r28	; 61
    5652:	de bf       	out	0x3e, r29	; 62
    5654:	df 91       	pop	r29
    5656:	cf 91       	pop	r28
    5658:	1f 91       	pop	r17
    565a:	0f 91       	pop	r16
    565c:	ff 90       	pop	r15
    565e:	ef 90       	pop	r14
    5660:	df 90       	pop	r13
    5662:	cf 90       	pop	r12
    5664:	bf 90       	pop	r11
    5666:	08 95       	ret

00005668 <sim900_http_post>:
    5668:	af 92       	push	r10
    566a:	bf 92       	push	r11
    566c:	cf 92       	push	r12
    566e:	df 92       	push	r13
    5670:	ef 92       	push	r14
    5672:	ff 92       	push	r15
    5674:	0f 93       	push	r16
    5676:	1f 93       	push	r17
    5678:	cf 93       	push	r28
    567a:	df 93       	push	r29
    567c:	cd b7       	in	r28, 0x3d	; 61
    567e:	de b7       	in	r29, 0x3e	; 62
    5680:	c1 54       	subi	r28, 0x41	; 65
    5682:	d1 09       	sbc	r29, r1
    5684:	cd bf       	out	0x3d, r28	; 61
    5686:	de bf       	out	0x3e, r29	; 62
    5688:	7c 01       	movw	r14, r24
    568a:	a6 2e       	mov	r10, r22
    568c:	6a 01       	movw	r12, r20
    568e:	12 2f       	mov	r17, r18
    5690:	b3 2e       	mov	r11, r19
    5692:	60 e8       	ldi	r22, 0x80	; 128
    5694:	74 e8       	ldi	r23, 0x84	; 132
    5696:	8e e1       	ldi	r24, 0x1E	; 30
    5698:	90 e0       	ldi	r25, 0x00	; 0
    569a:	41 d9       	rcall	.-3454   	; 0x491e <__portable_avr_delay_cycles>
    569c:	82 ec       	ldi	r24, 0xC2	; 194
    569e:	9c e1       	ldi	r25, 0x1C	; 28
    56a0:	9d db       	rcall	.-2246   	; 0x4ddc <sim900_cmd_with_retstring.constprop.3>
    56a2:	89 2b       	or	r24, r25
    56a4:	41 f4       	brne	.+16     	; 0x56b6 <sim900_http_post+0x4e>
    56a6:	41 e0       	ldi	r20, 0x01	; 1
    56a8:	67 ec       	ldi	r22, 0xC7	; 199
    56aa:	7c e1       	ldi	r23, 0x1C	; 28
    56ac:	83 e0       	ldi	r24, 0x03	; 3
    56ae:	ba d3       	rcall	.+1908   	; 0x5e24 <debug_string>
    56b0:	21 e0       	ldi	r18, 0x01	; 1
    56b2:	30 e0       	ldi	r19, 0x00	; 0
    56b4:	b4 c0       	rjmp	.+360    	; 0x581e <sim900_http_post+0x1b6>
    56b6:	60 e8       	ldi	r22, 0x80	; 128
    56b8:	74 e8       	ldi	r23, 0x84	; 132
    56ba:	8e e1       	ldi	r24, 0x1E	; 30
    56bc:	90 e0       	ldi	r25, 0x00	; 0
    56be:	2f d9       	rcall	.-3490   	; 0x491e <__portable_avr_delay_cycles>
    56c0:	83 ef       	ldi	r24, 0xF3	; 243
    56c2:	9c e1       	ldi	r25, 0x1C	; 28
    56c4:	8b db       	rcall	.-2282   	; 0x4ddc <sim900_cmd_with_retstring.constprop.3>
    56c6:	8d 5a       	subi	r24, 0xAD	; 173
    56c8:	9d 40       	sbci	r25, 0x0D	; 13
    56ca:	09 f0       	breq	.+2      	; 0x56ce <sim900_http_post+0x66>
    56cc:	78 c0       	rjmp	.+240    	; 0x57be <sim900_http_post+0x156>
    56ce:	60 e8       	ldi	r22, 0x80	; 128
    56d0:	74 e8       	ldi	r23, 0x84	; 132
    56d2:	8e e1       	ldi	r24, 0x1E	; 30
    56d4:	90 e0       	ldi	r25, 0x00	; 0
    56d6:	23 d9       	rcall	.-3514   	; 0x491e <__portable_avr_delay_cycles>
    56d8:	81 e0       	ldi	r24, 0x01	; 1
    56da:	9d e1       	ldi	r25, 0x1D	; 29
    56dc:	7f db       	rcall	.-2306   	; 0x4ddc <sim900_cmd_with_retstring.constprop.3>
    56de:	8d 5a       	subi	r24, 0xAD	; 173
    56e0:	9d 40       	sbci	r25, 0x0D	; 13
    56e2:	09 f0       	breq	.+2      	; 0x56e6 <sim900_http_post+0x7e>
    56e4:	6c c0       	rjmp	.+216    	; 0x57be <sim900_http_post+0x156>
    56e6:	60 e8       	ldi	r22, 0x80	; 128
    56e8:	74 e8       	ldi	r23, 0x84	; 132
    56ea:	8e e1       	ldi	r24, 0x1E	; 30
    56ec:	90 e0       	ldi	r25, 0x00	; 0
    56ee:	17 d9       	rcall	.-3538   	; 0x491e <__portable_avr_delay_cycles>
    56f0:	87 e1       	ldi	r24, 0x17	; 23
    56f2:	9d e1       	ldi	r25, 0x1D	; 29
    56f4:	f3 d9       	rcall	.-3098   	; 0x4adc <sim900_put_string.part.0>
    56f6:	6a 2d       	mov	r22, r10
    56f8:	c7 01       	movw	r24, r14
    56fa:	10 da       	rcall	.-3040   	; 0x4b1c <sim900_put_string>
    56fc:	8b e2       	ldi	r24, 0x2B	; 43
    56fe:	9d e1       	ldi	r25, 0x1D	; 29
    5700:	ed d9       	rcall	.-3110   	; 0x4adc <sim900_put_string.part.0>
    5702:	68 db       	rcall	.-2352   	; 0x4dd4 <sim900_wait_retstring>
    5704:	60 e8       	ldi	r22, 0x80	; 128
    5706:	74 e8       	ldi	r23, 0x84	; 132
    5708:	8e e1       	ldi	r24, 0x1E	; 30
    570a:	90 e0       	ldi	r25, 0x00	; 0
    570c:	08 d9       	rcall	.-3568   	; 0x491e <__portable_avr_delay_cycles>
    570e:	85 e7       	ldi	r24, 0x75	; 117
    5710:	8f 93       	push	r24
    5712:	80 e3       	ldi	r24, 0x30	; 48
    5714:	8f 93       	push	r24
    5716:	bf 92       	push	r11
    5718:	1f 93       	push	r17
    571a:	2f e2       	ldi	r18, 0x2F	; 47
    571c:	3d e1       	ldi	r19, 0x1D	; 29
    571e:	3f 93       	push	r19
    5720:	2f 93       	push	r18
    5722:	ee 24       	eor	r14, r14
    5724:	e3 94       	inc	r14
    5726:	f1 2c       	mov	r15, r1
    5728:	ec 0e       	add	r14, r28
    572a:	fd 1e       	adc	r15, r29
    572c:	ff 92       	push	r15
    572e:	ef 92       	push	r14
    5730:	0e 94 93 49 	call	0x9326	; 0x9326 <sprintf_P>
    5734:	60 e0       	ldi	r22, 0x00	; 0
    5736:	c7 01       	movw	r24, r14
    5738:	f1 d9       	rcall	.-3102   	; 0x4b1c <sim900_put_string>
    573a:	83 e4       	ldi	r24, 0x43	; 67
    573c:	9d e1       	ldi	r25, 0x1D	; 29
    573e:	50 da       	rcall	.-2912   	; 0x4be0 <sim900_wait_string.constprop.5>
    5740:	cd bf       	out	0x3d, r28	; 61
    5742:	de bf       	out	0x3e, r29	; 62
    5744:	89 2b       	or	r24, r25
    5746:	09 f4       	brne	.+2      	; 0x574a <sim900_http_post+0xe2>
    5748:	3a c0       	rjmp	.+116    	; 0x57be <sim900_http_post+0x156>
    574a:	60 e8       	ldi	r22, 0x80	; 128
    574c:	74 e8       	ldi	r23, 0x84	; 132
    574e:	8e e1       	ldi	r24, 0x1E	; 30
    5750:	90 e0       	ldi	r25, 0x00	; 0
    5752:	e5 d8       	rcall	.-3638   	; 0x491e <__portable_avr_delay_cycles>
    5754:	60 2f       	mov	r22, r16
    5756:	c6 01       	movw	r24, r12
    5758:	e1 d9       	rcall	.-3134   	; 0x4b1c <sim900_put_string>
    575a:	3c db       	rcall	.-2440   	; 0x4dd4 <sim900_wait_retstring>
    575c:	60 e8       	ldi	r22, 0x80	; 128
    575e:	74 e8       	ldi	r23, 0x84	; 132
    5760:	8e e1       	ldi	r24, 0x1E	; 30
    5762:	90 e0       	ldi	r25, 0x00	; 0
    5764:	dc d8       	rcall	.-3656   	; 0x491e <__portable_avr_delay_cycles>
    5766:	8c e4       	ldi	r24, 0x4C	; 76
    5768:	9d e1       	ldi	r25, 0x1D	; 29
    576a:	38 db       	rcall	.-2448   	; 0x4ddc <sim900_cmd_with_retstring.constprop.3>
    576c:	8d 5a       	subi	r24, 0xAD	; 173
    576e:	9d 40       	sbci	r25, 0x0D	; 13
    5770:	41 f0       	breq	.+16     	; 0x5782 <sim900_http_post+0x11a>
    5772:	41 e0       	ldi	r20, 0x01	; 1
    5774:	6e e5       	ldi	r22, 0x5E	; 94
    5776:	7d e1       	ldi	r23, 0x1D	; 29
    5778:	81 e0       	ldi	r24, 0x01	; 1
    577a:	54 d3       	rcall	.+1704   	; 0x5e24 <debug_string>
    577c:	21 e0       	ldi	r18, 0x01	; 1
    577e:	30 e0       	ldi	r19, 0x00	; 0
    5780:	4e c0       	rjmp	.+156    	; 0x581e <sim900_http_post+0x1b6>
    5782:	88 e8       	ldi	r24, 0x88	; 136
    5784:	9d e1       	ldi	r25, 0x1D	; 29
    5786:	2c da       	rcall	.-2984   	; 0x4be0 <sim900_wait_string.constprop.5>
    5788:	89 2b       	or	r24, r25
    578a:	e1 f4       	brne	.+56     	; 0x57c4 <sim900_http_post+0x15c>
    578c:	41 e0       	ldi	r20, 0x01	; 1
    578e:	65 e9       	ldi	r22, 0x95	; 149
    5790:	7d e1       	ldi	r23, 0x1D	; 29
    5792:	81 e0       	ldi	r24, 0x01	; 1
    5794:	47 d3       	rcall	.+1678   	; 0x5e24 <debug_string>
    5796:	81 ec       	ldi	r24, 0xC1	; 193
    5798:	9d e1       	ldi	r25, 0x1D	; 29
    579a:	22 da       	rcall	.-3004   	; 0x4be0 <sim900_wait_string.constprop.5>
    579c:	89 2b       	or	r24, r25
    579e:	91 f4       	brne	.+36     	; 0x57c4 <sim900_http_post+0x15c>
    57a0:	41 e0       	ldi	r20, 0x01	; 1
    57a2:	6e ec       	ldi	r22, 0xCE	; 206
    57a4:	7d e1       	ldi	r23, 0x1D	; 29
    57a6:	81 e0       	ldi	r24, 0x01	; 1
    57a8:	3d d3       	rcall	.+1658   	; 0x5e24 <debug_string>
    57aa:	88 ef       	ldi	r24, 0xF8	; 248
    57ac:	9d e1       	ldi	r25, 0x1D	; 29
    57ae:	18 da       	rcall	.-3024   	; 0x4be0 <sim900_wait_string.constprop.5>
    57b0:	89 2b       	or	r24, r25
    57b2:	41 f4       	brne	.+16     	; 0x57c4 <sim900_http_post+0x15c>
    57b4:	41 e0       	ldi	r20, 0x01	; 1
    57b6:	65 e0       	ldi	r22, 0x05	; 5
    57b8:	7e e1       	ldi	r23, 0x1E	; 30
    57ba:	81 e0       	ldi	r24, 0x01	; 1
    57bc:	33 d3       	rcall	.+1638   	; 0x5e24 <debug_string>
    57be:	21 e0       	ldi	r18, 0x01	; 1
    57c0:	30 e0       	ldi	r19, 0x00	; 0
    57c2:	2d c0       	rjmp	.+90     	; 0x581e <sim900_http_post+0x1b6>
    57c4:	80 e4       	ldi	r24, 0x40	; 64
    57c6:	22 96       	adiw	r28, 0x02	; 2
    57c8:	8f af       	std	Y+63, r24	; 0x3f
    57ca:	22 97       	sbiw	r28, 0x02	; 2
    57cc:	be 01       	movw	r22, r28
    57ce:	6f 5b       	subi	r22, 0xBF	; 191
    57d0:	7f 4f       	sbci	r23, 0xFF	; 255
    57d2:	ce 01       	movw	r24, r28
    57d4:	01 96       	adiw	r24, 0x01	; 1
    57d6:	fe d8       	rcall	.-3588   	; 0x49d4 <sim900_read_string>
    57d8:	41 e0       	ldi	r20, 0x01	; 1
    57da:	63 e3       	ldi	r22, 0x33	; 51
    57dc:	7e e1       	ldi	r23, 0x1E	; 30
    57de:	81 e0       	ldi	r24, 0x01	; 1
    57e0:	21 d3       	rcall	.+1602   	; 0x5e24 <debug_string>
    57e2:	40 e0       	ldi	r20, 0x00	; 0
    57e4:	be 01       	movw	r22, r28
    57e6:	6f 5f       	subi	r22, 0xFF	; 255
    57e8:	7f 4f       	sbci	r23, 0xFF	; 255
    57ea:	81 e0       	ldi	r24, 0x01	; 1
    57ec:	1b d3       	rcall	.+1590   	; 0x5e24 <debug_string>
    57ee:	41 e0       	ldi	r20, 0x01	; 1
    57f0:	6f ec       	ldi	r22, 0xCF	; 207
    57f2:	7e e1       	ldi	r23, 0x1E	; 30
    57f4:	81 e0       	ldi	r24, 0x01	; 1
    57f6:	16 d3       	rcall	.+1580   	; 0x5e24 <debug_string>
    57f8:	8b 81       	ldd	r24, Y+3	; 0x03
    57fa:	82 33       	cpi	r24, 0x32	; 50
    57fc:	31 f4       	brne	.+12     	; 0x580a <sim900_http_post+0x1a2>
    57fe:	8c 81       	ldd	r24, Y+4	; 0x04
    5800:	80 33       	cpi	r24, 0x30	; 48
    5802:	19 f4       	brne	.+6      	; 0x580a <sim900_http_post+0x1a2>
    5804:	8d 81       	ldd	r24, Y+5	; 0x05
    5806:	80 33       	cpi	r24, 0x30	; 48
    5808:	41 f0       	breq	.+16     	; 0x581a <sim900_http_post+0x1b2>
    580a:	41 e0       	ldi	r20, 0x01	; 1
    580c:	6c e5       	ldi	r22, 0x5C	; 92
    580e:	7e e1       	ldi	r23, 0x1E	; 30
    5810:	81 e0       	ldi	r24, 0x01	; 1
    5812:	08 d3       	rcall	.+1552   	; 0x5e24 <debug_string>
    5814:	21 e0       	ldi	r18, 0x01	; 1
    5816:	30 e0       	ldi	r19, 0x00	; 0
    5818:	02 c0       	rjmp	.+4      	; 0x581e <sim900_http_post+0x1b6>
    581a:	20 e0       	ldi	r18, 0x00	; 0
    581c:	30 e0       	ldi	r19, 0x00	; 0
    581e:	c9 01       	movw	r24, r18
    5820:	cf 5b       	subi	r28, 0xBF	; 191
    5822:	df 4f       	sbci	r29, 0xFF	; 255
    5824:	cd bf       	out	0x3d, r28	; 61
    5826:	de bf       	out	0x3e, r29	; 62
    5828:	df 91       	pop	r29
    582a:	cf 91       	pop	r28
    582c:	1f 91       	pop	r17
    582e:	0f 91       	pop	r16
    5830:	ff 90       	pop	r15
    5832:	ef 90       	pop	r14
    5834:	df 90       	pop	r13
    5836:	cf 90       	pop	r12
    5838:	bf 90       	pop	r11
    583a:	af 90       	pop	r10
    583c:	08 95       	ret

0000583e <sim900_http_close>:
    583e:	60 e8       	ldi	r22, 0x80	; 128
    5840:	74 e8       	ldi	r23, 0x84	; 132
    5842:	8e e1       	ldi	r24, 0x1E	; 30
    5844:	90 e0       	ldi	r25, 0x00	; 0
    5846:	6b d8       	rcall	.-3882   	; 0x491e <__portable_avr_delay_cycles>
    5848:	8d e8       	ldi	r24, 0x8D	; 141
    584a:	9e e1       	ldi	r25, 0x1E	; 30
    584c:	c7 da       	rcall	.-2674   	; 0x4ddc <sim900_cmd_with_retstring.constprop.3>
    584e:	21 e0       	ldi	r18, 0x01	; 1
    5850:	8d 5a       	subi	r24, 0xAD	; 173
    5852:	9d 40       	sbci	r25, 0x0D	; 13
    5854:	09 f4       	brne	.+2      	; 0x5858 <sim900_http_close+0x1a>
    5856:	20 e0       	ldi	r18, 0x00	; 0
    5858:	82 2f       	mov	r24, r18
    585a:	08 95       	ret

0000585c <__vector_58>:
    585c:	1f 92       	push	r1
    585e:	0f 92       	push	r0
    5860:	0f b6       	in	r0, 0x3f	; 63
    5862:	0f 92       	push	r0
    5864:	11 24       	eor	r1, r1
    5866:	0b b6       	in	r0, 0x3b	; 59
    5868:	0f 92       	push	r0
    586a:	2f 93       	push	r18
    586c:	3f 93       	push	r19
    586e:	4f 93       	push	r20
    5870:	5f 93       	push	r21
    5872:	6f 93       	push	r22
    5874:	7f 93       	push	r23
    5876:	8f 93       	push	r24
    5878:	9f 93       	push	r25
    587a:	af 93       	push	r26
    587c:	bf 93       	push	r27
    587e:	ef 93       	push	r30
    5880:	ff 93       	push	r31
    5882:	8e e9       	ldi	r24, 0x9E	; 158
    5884:	95 e2       	ldi	r25, 0x25	; 37
    5886:	1d d0       	rcall	.+58     	; 0x58c2 <USART_RX_CBuffer_Complete>
    5888:	ff 91       	pop	r31
    588a:	ef 91       	pop	r30
    588c:	bf 91       	pop	r27
    588e:	af 91       	pop	r26
    5890:	9f 91       	pop	r25
    5892:	8f 91       	pop	r24
    5894:	7f 91       	pop	r23
    5896:	6f 91       	pop	r22
    5898:	5f 91       	pop	r21
    589a:	4f 91       	pop	r20
    589c:	3f 91       	pop	r19
    589e:	2f 91       	pop	r18
    58a0:	0f 90       	pop	r0
    58a2:	0b be       	out	0x3b, r0	; 59
    58a4:	0f 90       	pop	r0
    58a6:	0f be       	out	0x3f, r0	; 63
    58a8:	0f 90       	pop	r0
    58aa:	1f 90       	pop	r1
    58ac:	18 95       	reti

000058ae <usart_interruptdriver_initialize>:
    58ae:	fc 01       	movw	r30, r24
    58b0:	60 83       	st	Z, r22
    58b2:	71 83       	std	Z+1, r23	; 0x01
    58b4:	42 83       	std	Z+2, r20	; 0x02
    58b6:	53 83       	std	Z+3, r21	; 0x03
    58b8:	15 82       	std	Z+5, r1	; 0x05
    58ba:	14 82       	std	Z+4, r1	; 0x04
    58bc:	17 82       	std	Z+7, r1	; 0x07
    58be:	16 82       	std	Z+6, r1	; 0x06
    58c0:	08 95       	ret

000058c2 <USART_RX_CBuffer_Complete>:
    58c2:	fc 01       	movw	r30, r24
    58c4:	24 81       	ldd	r18, Z+4	; 0x04
    58c6:	82 2f       	mov	r24, r18
    58c8:	8f 5f       	subi	r24, 0xFF	; 255
    58ca:	87 70       	andi	r24, 0x07	; 7
    58cc:	95 81       	ldd	r25, Z+5	; 0x05
    58ce:	89 13       	cpse	r24, r25
    58d0:	04 c0       	rjmp	.+8      	; 0x58da <USART_RX_CBuffer_Complete+0x18>
    58d2:	98 2f       	mov	r25, r24
    58d4:	9f 5f       	subi	r25, 0xFF	; 255
    58d6:	97 70       	andi	r25, 0x07	; 7
    58d8:	95 83       	std	Z+5, r25	; 0x05
    58da:	a0 81       	ld	r26, Z
    58dc:	b1 81       	ldd	r27, Z+1	; 0x01
    58de:	6c 91       	ld	r22, X
    58e0:	df 01       	movw	r26, r30
    58e2:	a2 0f       	add	r26, r18
    58e4:	b1 1d       	adc	r27, r1
    58e6:	18 96       	adiw	r26, 0x08	; 8
    58e8:	6c 93       	st	X, r22
    58ea:	84 83       	std	Z+4, r24	; 0x04
    58ec:	80 91 18 20 	lds	r24, 0x2018
    58f0:	83 30       	cpi	r24, 0x03	; 3
    58f2:	20 f0       	brcs	.+8      	; 0x58fc <USART_RX_CBuffer_Complete+0x3a>
    58f4:	80 ea       	ldi	r24, 0xA0	; 160
    58f6:	9b e0       	ldi	r25, 0x0B	; 11
    58f8:	0e 94 66 3e 	call	0x7ccc	; 0x7ccc <usart_putchar>
    58fc:	81 e0       	ldi	r24, 0x01	; 1
    58fe:	08 95       	ret

00005900 <board_init>:
    5900:	e0 e7       	ldi	r30, 0x70	; 112
    5902:	f0 e0       	ldi	r31, 0x00	; 0
    5904:	81 81       	ldd	r24, Z+1	; 0x01
    5906:	83 60       	ori	r24, 0x03	; 3
    5908:	81 83       	std	Z+1, r24	; 0x01
    590a:	82 81       	ldd	r24, Z+2	; 0x02
    590c:	87 60       	ori	r24, 0x07	; 7
    590e:	82 83       	std	Z+2, r24	; 0x02
    5910:	e0 eb       	ldi	r30, 0xB0	; 176
    5912:	f0 e0       	ldi	r31, 0x00	; 0
    5914:	9f ef       	ldi	r25, 0xFF	; 255
    5916:	90 83       	st	Z, r25
    5918:	88 e1       	ldi	r24, 0x18	; 24
    591a:	a0 e0       	ldi	r26, 0x00	; 0
    591c:	b6 e0       	ldi	r27, 0x06	; 6
    591e:	50 96       	adiw	r26, 0x10	; 16
    5920:	8c 93       	st	X, r24
    5922:	90 83       	st	Z, r25
    5924:	e0 e2       	ldi	r30, 0x20	; 32
    5926:	f6 e0       	ldi	r31, 0x06	; 6
    5928:	80 8b       	std	Z+16, r24	; 0x10
    592a:	e0 ea       	ldi	r30, 0xA0	; 160
    592c:	f6 e0       	ldi	r31, 0x06	; 6
    592e:	86 85       	ldd	r24, Z+14	; 0x0e
    5930:	80 61       	ori	r24, 0x10	; 16
    5932:	86 87       	std	Z+14, r24	; 0x0e
    5934:	43 e0       	ldi	r20, 0x03	; 3
    5936:	50 e0       	ldi	r21, 0x00	; 0
    5938:	60 e8       	ldi	r22, 0x80	; 128
    593a:	80 ea       	ldi	r24, 0xA0	; 160
    593c:	96 e0       	ldi	r25, 0x06	; 6
    593e:	12 d4       	rcall	.+2084   	; 0x6164 <ioport_configure_port_pin>
    5940:	40 e0       	ldi	r20, 0x00	; 0
    5942:	50 e0       	ldi	r21, 0x00	; 0
    5944:	60 e4       	ldi	r22, 0x40	; 64
    5946:	80 ea       	ldi	r24, 0xA0	; 160
    5948:	96 e0       	ldi	r25, 0x06	; 6
    594a:	0c d4       	rcall	.+2072   	; 0x6164 <ioport_configure_port_pin>
    594c:	43 e0       	ldi	r20, 0x03	; 3
    594e:	50 e0       	ldi	r21, 0x00	; 0
    5950:	68 e0       	ldi	r22, 0x08	; 8
    5952:	80 e8       	ldi	r24, 0x80	; 128
    5954:	96 e0       	ldi	r25, 0x06	; 6
    5956:	06 d4       	rcall	.+2060   	; 0x6164 <ioport_configure_port_pin>
    5958:	40 e0       	ldi	r20, 0x00	; 0
    595a:	50 e0       	ldi	r21, 0x00	; 0
    595c:	64 e0       	ldi	r22, 0x04	; 4
    595e:	80 e8       	ldi	r24, 0x80	; 128
    5960:	96 e0       	ldi	r25, 0x06	; 6
    5962:	00 d4       	rcall	.+2048   	; 0x6164 <ioport_configure_port_pin>
    5964:	43 e0       	ldi	r20, 0x03	; 3
    5966:	50 e0       	ldi	r21, 0x00	; 0
    5968:	61 e0       	ldi	r22, 0x01	; 1
    596a:	80 e6       	ldi	r24, 0x60	; 96
    596c:	96 e0       	ldi	r25, 0x06	; 6
    596e:	fa d3       	rcall	.+2036   	; 0x6164 <ioport_configure_port_pin>
    5970:	41 e0       	ldi	r20, 0x01	; 1
    5972:	50 e0       	ldi	r21, 0x00	; 0
    5974:	68 e0       	ldi	r22, 0x08	; 8
    5976:	80 ea       	ldi	r24, 0xA0	; 160
    5978:	96 e0       	ldi	r25, 0x06	; 6
    597a:	f4 d3       	rcall	.+2024   	; 0x6164 <ioport_configure_port_pin>
    597c:	40 e0       	ldi	r20, 0x00	; 0
    597e:	50 e0       	ldi	r21, 0x00	; 0
    5980:	62 e0       	ldi	r22, 0x02	; 2
    5982:	80 ea       	ldi	r24, 0xA0	; 160
    5984:	96 e0       	ldi	r25, 0x06	; 6
    5986:	ee d3       	rcall	.+2012   	; 0x6164 <ioport_configure_port_pin>
    5988:	40 e0       	ldi	r20, 0x00	; 0
    598a:	51 e0       	ldi	r21, 0x01	; 1
    598c:	61 e0       	ldi	r22, 0x01	; 1
    598e:	80 ee       	ldi	r24, 0xE0	; 224
    5990:	97 e0       	ldi	r25, 0x07	; 7
    5992:	e8 d3       	rcall	.+2000   	; 0x6164 <ioport_configure_port_pin>
    5994:	40 e0       	ldi	r20, 0x00	; 0
    5996:	51 e0       	ldi	r21, 0x01	; 1
    5998:	62 e0       	ldi	r22, 0x02	; 2
    599a:	80 ee       	ldi	r24, 0xE0	; 224
    599c:	97 e0       	ldi	r25, 0x07	; 7
    599e:	e2 d3       	rcall	.+1988   	; 0x6164 <ioport_configure_port_pin>
    59a0:	40 e0       	ldi	r20, 0x00	; 0
    59a2:	50 e8       	ldi	r21, 0x80	; 128
    59a4:	60 e2       	ldi	r22, 0x20	; 32
    59a6:	80 e6       	ldi	r24, 0x60	; 96
    59a8:	96 e0       	ldi	r25, 0x06	; 6
    59aa:	dc d3       	rcall	.+1976   	; 0x6164 <ioport_configure_port_pin>
    59ac:	40 e0       	ldi	r20, 0x00	; 0
    59ae:	50 e0       	ldi	r21, 0x00	; 0
    59b0:	60 e1       	ldi	r22, 0x10	; 16
    59b2:	80 ea       	ldi	r24, 0xA0	; 160
    59b4:	96 e0       	ldi	r25, 0x06	; 6
    59b6:	d6 c3       	rjmp	.+1964   	; 0x6164 <ioport_configure_port_pin>

000059b8 <calendar_leapyear>:
    59b8:	9c 01       	movw	r18, r24
    59ba:	83 70       	andi	r24, 0x03	; 3
    59bc:	99 27       	eor	r25, r25
    59be:	89 2b       	or	r24, r25
    59c0:	81 f4       	brne	.+32     	; 0x59e2 <calendar_leapyear+0x2a>
    59c2:	c9 01       	movw	r24, r18
    59c4:	64 e6       	ldi	r22, 0x64	; 100
    59c6:	70 e0       	ldi	r23, 0x00	; 0
    59c8:	0e 94 b1 47 	call	0x8f62	; 0x8f62 <__udivmodhi4>
    59cc:	89 2b       	or	r24, r25
    59ce:	11 f0       	breq	.+4      	; 0x59d4 <calendar_leapyear+0x1c>
    59d0:	81 e0       	ldi	r24, 0x01	; 1
    59d2:	08 95       	ret
    59d4:	c9 01       	movw	r24, r18
    59d6:	60 e9       	ldi	r22, 0x90	; 144
    59d8:	71 e0       	ldi	r23, 0x01	; 1
    59da:	0e 94 b1 47 	call	0x8f62	; 0x8f62 <__udivmodhi4>
    59de:	89 2b       	or	r24, r25
    59e0:	b9 f3       	breq	.-18     	; 0x59d0 <calendar_leapyear+0x18>
    59e2:	80 e0       	ldi	r24, 0x00	; 0
    59e4:	08 95       	ret

000059e6 <calendar_timestamp_to_date>:
    59e6:	4f 92       	push	r4
    59e8:	5f 92       	push	r5
    59ea:	6f 92       	push	r6
    59ec:	7f 92       	push	r7
    59ee:	8f 92       	push	r8
    59f0:	9f 92       	push	r9
    59f2:	af 92       	push	r10
    59f4:	bf 92       	push	r11
    59f6:	cf 92       	push	r12
    59f8:	df 92       	push	r13
    59fa:	ef 92       	push	r14
    59fc:	ff 92       	push	r15
    59fe:	cf 93       	push	r28
    5a00:	df 93       	push	r29
    5a02:	ea 01       	movw	r28, r20
    5a04:	22 eb       	ldi	r18, 0xB2	; 178
    5a06:	37 e0       	ldi	r19, 0x07	; 7
    5a08:	2d 83       	std	Y+5, r18	; 0x05
    5a0a:	3e 83       	std	Y+6, r19	; 0x06
    5a0c:	1c 82       	std	Y+4, r1	; 0x04
    5a0e:	20 e8       	ldi	r18, 0x80	; 128
    5a10:	31 e5       	ldi	r19, 0x51	; 81
    5a12:	41 e0       	ldi	r20, 0x01	; 1
    5a14:	50 e0       	ldi	r21, 0x00	; 0
    5a16:	0e 94 c5 47 	call	0x8f8a	; 0x8f8a <__udivmodsi4>
    5a1a:	69 01       	movw	r12, r18
    5a1c:	7a 01       	movw	r14, r20
    5a1e:	2b 01       	movw	r4, r22
    5a20:	3c 01       	movw	r6, r24
    5a22:	2c e3       	ldi	r18, 0x3C	; 60
    5a24:	82 2e       	mov	r8, r18
    5a26:	91 2c       	mov	r9, r1
    5a28:	a1 2c       	mov	r10, r1
    5a2a:	b1 2c       	mov	r11, r1
    5a2c:	a5 01       	movw	r20, r10
    5a2e:	94 01       	movw	r18, r8
    5a30:	0e 94 c5 47 	call	0x8f8a	; 0x8f8a <__udivmodsi4>
    5a34:	68 83       	st	Y, r22
    5a36:	c3 01       	movw	r24, r6
    5a38:	b2 01       	movw	r22, r4
    5a3a:	20 e1       	ldi	r18, 0x10	; 16
    5a3c:	3e e0       	ldi	r19, 0x0E	; 14
    5a3e:	40 e0       	ldi	r20, 0x00	; 0
    5a40:	50 e0       	ldi	r21, 0x00	; 0
    5a42:	0e 94 c5 47 	call	0x8f8a	; 0x8f8a <__udivmodsi4>
    5a46:	72 2e       	mov	r7, r18
    5a48:	a5 01       	movw	r20, r10
    5a4a:	94 01       	movw	r18, r8
    5a4c:	0e 94 c5 47 	call	0x8f8a	; 0x8f8a <__udivmodsi4>
    5a50:	29 83       	std	Y+1, r18	; 0x01
    5a52:	7a 82       	std	Y+2, r7	; 0x02
    5a54:	c7 01       	movw	r24, r14
    5a56:	b6 01       	movw	r22, r12
    5a58:	6c 5f       	subi	r22, 0xFC	; 252
    5a5a:	7f 4f       	sbci	r23, 0xFF	; 255
    5a5c:	8f 4f       	sbci	r24, 0xFF	; 255
    5a5e:	9f 4f       	sbci	r25, 0xFF	; 255
    5a60:	27 e0       	ldi	r18, 0x07	; 7
    5a62:	30 e0       	ldi	r19, 0x00	; 0
    5a64:	40 e0       	ldi	r20, 0x00	; 0
    5a66:	50 e0       	ldi	r21, 0x00	; 0
    5a68:	0e 94 c5 47 	call	0x8f8a	; 0x8f8a <__udivmodsi4>
    5a6c:	6f 83       	std	Y+7, r22	; 0x07
    5a6e:	09 c0       	rjmp	.+18     	; 0x5a82 <calendar_timestamp_to_date+0x9c>
    5a70:	c4 1a       	sub	r12, r20
    5a72:	d5 0a       	sbc	r13, r21
    5a74:	e6 0a       	sbc	r14, r22
    5a76:	f7 0a       	sbc	r15, r23
    5a78:	2f ef       	ldi	r18, 0xFF	; 255
    5a7a:	a2 1a       	sub	r10, r18
    5a7c:	b2 0a       	sbc	r11, r18
    5a7e:	ad 82       	std	Y+5, r10	; 0x05
    5a80:	be 82       	std	Y+6, r11	; 0x06
    5a82:	ad 80       	ldd	r10, Y+5	; 0x05
    5a84:	be 80       	ldd	r11, Y+6	; 0x06
    5a86:	c5 01       	movw	r24, r10
    5a88:	97 df       	rcall	.-210    	; 0x59b8 <calendar_leapyear>
    5a8a:	88 23       	and	r24, r24
    5a8c:	19 f0       	breq	.+6      	; 0x5a94 <calendar_timestamp_to_date+0xae>
    5a8e:	4e e6       	ldi	r20, 0x6E	; 110
    5a90:	51 e0       	ldi	r21, 0x01	; 1
    5a92:	02 c0       	rjmp	.+4      	; 0x5a98 <calendar_timestamp_to_date+0xb2>
    5a94:	4d e6       	ldi	r20, 0x6D	; 109
    5a96:	51 e0       	ldi	r21, 0x01	; 1
    5a98:	60 e0       	ldi	r22, 0x00	; 0
    5a9a:	70 e0       	ldi	r23, 0x00	; 0
    5a9c:	c4 16       	cp	r12, r20
    5a9e:	d5 06       	cpc	r13, r21
    5aa0:	e6 06       	cpc	r14, r22
    5aa2:	f7 06       	cpc	r15, r23
    5aa4:	28 f7       	brcc	.-54     	; 0x5a70 <calendar_timestamp_to_date+0x8a>
    5aa6:	07 c0       	rjmp	.+14     	; 0x5ab6 <calendar_timestamp_to_date+0xd0>
    5aa8:	c4 1a       	sub	r12, r20
    5aaa:	d5 0a       	sbc	r13, r21
    5aac:	e6 0a       	sbc	r14, r22
    5aae:	f7 0a       	sbc	r15, r23
    5ab0:	2f 5f       	subi	r18, 0xFF	; 255
    5ab2:	2c 83       	std	Y+4, r18	; 0x04
    5ab4:	04 c0       	rjmp	.+8      	; 0x5abe <calendar_timestamp_to_date+0xd8>
    5ab6:	2c e0       	ldi	r18, 0x0C	; 12
    5ab8:	82 9f       	mul	r24, r18
    5aba:	c0 01       	movw	r24, r0
    5abc:	11 24       	eor	r1, r1
    5abe:	2c 81       	ldd	r18, Y+4	; 0x04
    5ac0:	fc 01       	movw	r30, r24
    5ac2:	e2 0f       	add	r30, r18
    5ac4:	f1 1d       	adc	r31, r1
    5ac6:	e1 5a       	subi	r30, 0xA1	; 161
    5ac8:	fe 4d       	sbci	r31, 0xDE	; 222
    5aca:	40 81       	ld	r20, Z
    5acc:	50 e0       	ldi	r21, 0x00	; 0
    5ace:	60 e0       	ldi	r22, 0x00	; 0
    5ad0:	70 e0       	ldi	r23, 0x00	; 0
    5ad2:	c4 16       	cp	r12, r20
    5ad4:	d5 06       	cpc	r13, r21
    5ad6:	e6 06       	cpc	r14, r22
    5ad8:	f7 06       	cpc	r15, r23
    5ada:	30 f7       	brcc	.-52     	; 0x5aa8 <calendar_timestamp_to_date+0xc2>
    5adc:	cb 82       	std	Y+3, r12	; 0x03
    5ade:	df 91       	pop	r29
    5ae0:	cf 91       	pop	r28
    5ae2:	ff 90       	pop	r15
    5ae4:	ef 90       	pop	r14
    5ae6:	df 90       	pop	r13
    5ae8:	cf 90       	pop	r12
    5aea:	bf 90       	pop	r11
    5aec:	af 90       	pop	r10
    5aee:	9f 90       	pop	r9
    5af0:	8f 90       	pop	r8
    5af2:	7f 90       	pop	r7
    5af4:	6f 90       	pop	r6
    5af6:	5f 90       	pop	r5
    5af8:	4f 90       	pop	r4
    5afa:	08 95       	ret

00005afc <adc_enable_clock>:
    5afc:	81 15       	cp	r24, r1
    5afe:	22 e0       	ldi	r18, 0x02	; 2
    5b00:	92 07       	cpc	r25, r18
    5b02:	61 f4       	brne	.+24     	; 0x5b1c <adc_enable_clock+0x20>
    5b04:	80 91 d3 22 	lds	r24, 0x22D3
    5b08:	98 2f       	mov	r25, r24
    5b0a:	9f 5f       	subi	r25, 0xFF	; 255
    5b0c:	90 93 d3 22 	sts	0x22D3, r25
    5b10:	81 11       	cpse	r24, r1
    5b12:	13 c0       	rjmp	.+38     	; 0x5b3a <adc_enable_clock+0x3e>
    5b14:	62 e0       	ldi	r22, 0x02	; 2
    5b16:	81 e0       	ldi	r24, 0x01	; 1
    5b18:	90 e0       	ldi	r25, 0x00	; 0
    5b1a:	0e c0       	rjmp	.+28     	; 0x5b38 <adc_enable_clock+0x3c>
    5b1c:	80 34       	cpi	r24, 0x40	; 64
    5b1e:	92 40       	sbci	r25, 0x02	; 2
    5b20:	61 f4       	brne	.+24     	; 0x5b3a <adc_enable_clock+0x3e>
    5b22:	80 91 d4 22 	lds	r24, 0x22D4
    5b26:	98 2f       	mov	r25, r24
    5b28:	9f 5f       	subi	r25, 0xFF	; 255
    5b2a:	90 93 d4 22 	sts	0x22D4, r25
    5b2e:	81 11       	cpse	r24, r1
    5b30:	04 c0       	rjmp	.+8      	; 0x5b3a <adc_enable_clock+0x3e>
    5b32:	62 e0       	ldi	r22, 0x02	; 2
    5b34:	82 e0       	ldi	r24, 0x02	; 2
    5b36:	90 e0       	ldi	r25, 0x00	; 0
    5b38:	dd c2       	rjmp	.+1466   	; 0x60f4 <sysclk_enable_module>
    5b3a:	08 95       	ret

00005b3c <adc_disable_clock>:
    5b3c:	81 15       	cp	r24, r1
    5b3e:	22 e0       	ldi	r18, 0x02	; 2
    5b40:	92 07       	cpc	r25, r18
    5b42:	59 f4       	brne	.+22     	; 0x5b5a <adc_disable_clock+0x1e>
    5b44:	80 91 d3 22 	lds	r24, 0x22D3
    5b48:	81 50       	subi	r24, 0x01	; 1
    5b4a:	80 93 d3 22 	sts	0x22D3, r24
    5b4e:	81 11       	cpse	r24, r1
    5b50:	12 c0       	rjmp	.+36     	; 0x5b76 <adc_disable_clock+0x3a>
    5b52:	62 e0       	ldi	r22, 0x02	; 2
    5b54:	81 e0       	ldi	r24, 0x01	; 1
    5b56:	90 e0       	ldi	r25, 0x00	; 0
    5b58:	0d c0       	rjmp	.+26     	; 0x5b74 <adc_disable_clock+0x38>
    5b5a:	80 34       	cpi	r24, 0x40	; 64
    5b5c:	92 40       	sbci	r25, 0x02	; 2
    5b5e:	59 f4       	brne	.+22     	; 0x5b76 <adc_disable_clock+0x3a>
    5b60:	80 91 d4 22 	lds	r24, 0x22D4
    5b64:	81 50       	subi	r24, 0x01	; 1
    5b66:	80 93 d4 22 	sts	0x22D4, r24
    5b6a:	81 11       	cpse	r24, r1
    5b6c:	04 c0       	rjmp	.+8      	; 0x5b76 <adc_disable_clock+0x3a>
    5b6e:	62 e0       	ldi	r22, 0x02	; 2
    5b70:	82 e0       	ldi	r24, 0x02	; 2
    5b72:	90 e0       	ldi	r25, 0x00	; 0
    5b74:	ca c2       	rjmp	.+1428   	; 0x610a <sysclk_disable_module>
    5b76:	08 95       	ret

00005b78 <adc_enable>:
    5b78:	1f 93       	push	r17
    5b7a:	cf 93       	push	r28
    5b7c:	df 93       	push	r29
    5b7e:	ec 01       	movw	r28, r24
    5b80:	1f b7       	in	r17, 0x3f	; 63
    5b82:	f8 94       	cli
    5b84:	bb df       	rcall	.-138    	; 0x5afc <adc_enable_clock>
    5b86:	88 81       	ld	r24, Y
    5b88:	81 60       	ori	r24, 0x01	; 1
    5b8a:	88 83       	st	Y, r24
    5b8c:	1f bf       	out	0x3f, r17	; 63
    5b8e:	9f b7       	in	r25, 0x3f	; 63
    5b90:	f8 94       	cli
    5b92:	e9 ec       	ldi	r30, 0xC9	; 201
    5b94:	f5 e2       	ldi	r31, 0x25	; 37
    5b96:	80 81       	ld	r24, Z
    5b98:	8f 5f       	subi	r24, 0xFF	; 255
    5b9a:	80 83       	st	Z, r24
    5b9c:	9f bf       	out	0x3f, r25	; 63
    5b9e:	df 91       	pop	r29
    5ba0:	cf 91       	pop	r28
    5ba2:	1f 91       	pop	r17
    5ba4:	08 95       	ret

00005ba6 <adc_disable>:
    5ba6:	cf 93       	push	r28
    5ba8:	cf b7       	in	r28, 0x3f	; 63
    5baa:	f8 94       	cli
    5bac:	fc 01       	movw	r30, r24
    5bae:	20 81       	ld	r18, Z
    5bb0:	2e 7f       	andi	r18, 0xFE	; 254
    5bb2:	20 83       	st	Z, r18
    5bb4:	c3 df       	rcall	.-122    	; 0x5b3c <adc_disable_clock>
    5bb6:	cf bf       	out	0x3f, r28	; 63
    5bb8:	9f b7       	in	r25, 0x3f	; 63
    5bba:	f8 94       	cli
    5bbc:	e9 ec       	ldi	r30, 0xC9	; 201
    5bbe:	f5 e2       	ldi	r31, 0x25	; 37
    5bc0:	80 81       	ld	r24, Z
    5bc2:	81 50       	subi	r24, 0x01	; 1
    5bc4:	80 83       	st	Z, r24
    5bc6:	9f bf       	out	0x3f, r25	; 63
    5bc8:	cf 91       	pop	r28
    5bca:	08 95       	ret

00005bcc <nvm_read_production_signature_row>:
    5bcc:	68 2f       	mov	r22, r24
    5bce:	70 e0       	ldi	r23, 0x00	; 0
    5bd0:	82 e0       	ldi	r24, 0x02	; 2
    5bd2:	ce c6       	rjmp	.+3484   	; 0x6970 <nvm_read_byte>

00005bd4 <adc_get_calibration_data.part.0>:
    5bd4:	cf 93       	push	r28
    5bd6:	df 93       	push	r29
    5bd8:	81 e2       	ldi	r24, 0x21	; 33
    5bda:	f8 df       	rcall	.-16     	; 0x5bcc <nvm_read_production_signature_row>
    5bdc:	d8 2f       	mov	r29, r24
    5bde:	80 e0       	ldi	r24, 0x00	; 0
    5be0:	c8 2f       	mov	r28, r24
    5be2:	80 e2       	ldi	r24, 0x20	; 32
    5be4:	f3 df       	rcall	.-26     	; 0x5bcc <nvm_read_production_signature_row>
    5be6:	c8 2b       	or	r28, r24
    5be8:	ce 01       	movw	r24, r28
    5bea:	df 91       	pop	r29
    5bec:	cf 91       	pop	r28
    5bee:	08 95       	ret

00005bf0 <adc_write_configuration>:
    5bf0:	df 92       	push	r13
    5bf2:	ef 92       	push	r14
    5bf4:	ff 92       	push	r15
    5bf6:	0f 93       	push	r16
    5bf8:	1f 93       	push	r17
    5bfa:	cf 93       	push	r28
    5bfc:	df 93       	push	r29
    5bfe:	ec 01       	movw	r28, r24
    5c00:	8b 01       	movw	r16, r22
    5c02:	c1 15       	cp	r28, r1
    5c04:	82 e0       	ldi	r24, 0x02	; 2
    5c06:	d8 07       	cpc	r29, r24
    5c08:	19 f4       	brne	.+6      	; 0x5c10 <adc_write_configuration+0x20>
    5c0a:	e4 df       	rcall	.-56     	; 0x5bd4 <adc_get_calibration_data.part.0>
    5c0c:	7c 01       	movw	r14, r24
    5c0e:	0d c0       	rjmp	.+26     	; 0x5c2a <adc_write_configuration+0x3a>
    5c10:	c0 34       	cpi	r28, 0x40	; 64
    5c12:	e2 e0       	ldi	r30, 0x02	; 2
    5c14:	de 07       	cpc	r29, r30
    5c16:	31 f5       	brne	.+76     	; 0x5c64 <adc_write_configuration+0x74>
    5c18:	85 e2       	ldi	r24, 0x25	; 37
    5c1a:	d8 df       	rcall	.-80     	; 0x5bcc <nvm_read_production_signature_row>
    5c1c:	f8 2e       	mov	r15, r24
    5c1e:	84 e2       	ldi	r24, 0x24	; 36
    5c20:	d5 df       	rcall	.-86     	; 0x5bcc <nvm_read_production_signature_row>
    5c22:	3f 2d       	mov	r19, r15
    5c24:	20 e0       	ldi	r18, 0x00	; 0
    5c26:	79 01       	movw	r14, r18
    5c28:	e8 2a       	or	r14, r24
    5c2a:	df b6       	in	r13, 0x3f	; 63
    5c2c:	f8 94       	cli
    5c2e:	ce 01       	movw	r24, r28
    5c30:	65 df       	rcall	.-310    	; 0x5afc <adc_enable_clock>
    5c32:	28 81       	ld	r18, Y
    5c34:	82 e0       	ldi	r24, 0x02	; 2
    5c36:	88 83       	st	Y, r24
    5c38:	ec 86       	std	Y+12, r14	; 0x0c
    5c3a:	fd 86       	std	Y+13, r15	; 0x0d
    5c3c:	f8 01       	movw	r30, r16
    5c3e:	85 81       	ldd	r24, Z+5	; 0x05
    5c40:	96 81       	ldd	r25, Z+6	; 0x06
    5c42:	88 8f       	std	Y+24, r24	; 0x18
    5c44:	99 8f       	std	Y+25, r25	; 0x19
    5c46:	82 81       	ldd	r24, Z+2	; 0x02
    5c48:	8a 83       	std	Y+2, r24	; 0x02
    5c4a:	84 81       	ldd	r24, Z+4	; 0x04
    5c4c:	8c 83       	std	Y+4, r24	; 0x04
    5c4e:	83 81       	ldd	r24, Z+3	; 0x03
    5c50:	8b 83       	std	Y+3, r24	; 0x03
    5c52:	81 81       	ldd	r24, Z+1	; 0x01
    5c54:	89 83       	std	Y+1, r24	; 0x01
    5c56:	21 70       	andi	r18, 0x01	; 1
    5c58:	80 81       	ld	r24, Z
    5c5a:	28 2b       	or	r18, r24
    5c5c:	28 83       	st	Y, r18
    5c5e:	ce 01       	movw	r24, r28
    5c60:	6d df       	rcall	.-294    	; 0x5b3c <adc_disable_clock>
    5c62:	df be       	out	0x3f, r13	; 63
    5c64:	df 91       	pop	r29
    5c66:	cf 91       	pop	r28
    5c68:	1f 91       	pop	r17
    5c6a:	0f 91       	pop	r16
    5c6c:	ff 90       	pop	r15
    5c6e:	ef 90       	pop	r14
    5c70:	df 90       	pop	r13
    5c72:	08 95       	ret

00005c74 <adc_read_configuration>:
    5c74:	ff 92       	push	r15
    5c76:	0f 93       	push	r16
    5c78:	1f 93       	push	r17
    5c7a:	cf 93       	push	r28
    5c7c:	df 93       	push	r29
    5c7e:	ec 01       	movw	r28, r24
    5c80:	8b 01       	movw	r16, r22
    5c82:	ff b6       	in	r15, 0x3f	; 63
    5c84:	f8 94       	cli
    5c86:	3a df       	rcall	.-396    	; 0x5afc <adc_enable_clock>
    5c88:	88 81       	ld	r24, Y
    5c8a:	80 7c       	andi	r24, 0xC0	; 192
    5c8c:	f8 01       	movw	r30, r16
    5c8e:	80 83       	st	Z, r24
    5c90:	88 8d       	ldd	r24, Y+24	; 0x18
    5c92:	99 8d       	ldd	r25, Y+25	; 0x19
    5c94:	85 83       	std	Z+5, r24	; 0x05
    5c96:	96 83       	std	Z+6, r25	; 0x06
    5c98:	8a 81       	ldd	r24, Y+2	; 0x02
    5c9a:	82 83       	std	Z+2, r24	; 0x02
    5c9c:	8c 81       	ldd	r24, Y+4	; 0x04
    5c9e:	84 83       	std	Z+4, r24	; 0x04
    5ca0:	8b 81       	ldd	r24, Y+3	; 0x03
    5ca2:	83 83       	std	Z+3, r24	; 0x03
    5ca4:	89 81       	ldd	r24, Y+1	; 0x01
    5ca6:	81 83       	std	Z+1, r24	; 0x01
    5ca8:	ce 01       	movw	r24, r28
    5caa:	48 df       	rcall	.-368    	; 0x5b3c <adc_disable_clock>
    5cac:	ff be       	out	0x3f, r15	; 63
    5cae:	df 91       	pop	r29
    5cb0:	cf 91       	pop	r28
    5cb2:	1f 91       	pop	r17
    5cb4:	0f 91       	pop	r16
    5cb6:	ff 90       	pop	r15
    5cb8:	08 95       	ret

00005cba <adcch_write_configuration>:
    5cba:	af 92       	push	r10
    5cbc:	bf 92       	push	r11
    5cbe:	df 92       	push	r13
    5cc0:	ef 92       	push	r14
    5cc2:	ff 92       	push	r15
    5cc4:	0f 93       	push	r16
    5cc6:	1f 93       	push	r17
    5cc8:	cf 93       	push	r28
    5cca:	df 93       	push	r29
    5ccc:	1f 92       	push	r1
    5cce:	cd b7       	in	r28, 0x3d	; 61
    5cd0:	de b7       	in	r29, 0x3e	; 62
    5cd2:	7c 01       	movw	r14, r24
    5cd4:	8a 01       	movw	r16, r20
    5cd6:	86 2f       	mov	r24, r22
    5cd8:	83 70       	andi	r24, 0x03	; 3
    5cda:	96 2f       	mov	r25, r22
    5cdc:	21 f4       	brne	.+8      	; 0x5ce6 <adcch_write_configuration+0x2c>
    5cde:	96 95       	lsr	r25
    5ce0:	96 95       	lsr	r25
    5ce2:	82 e0       	ldi	r24, 0x02	; 2
    5ce4:	01 c0       	rjmp	.+2      	; 0x5ce8 <adcch_write_configuration+0x2e>
    5ce6:	80 e0       	ldi	r24, 0x00	; 0
    5ce8:	90 ff       	sbrs	r25, 0
    5cea:	8f 5f       	subi	r24, 0xFF	; 255
    5cec:	57 01       	movw	r10, r14
    5cee:	90 e2       	ldi	r25, 0x20	; 32
    5cf0:	a9 0e       	add	r10, r25
    5cf2:	b1 1c       	adc	r11, r1
    5cf4:	e8 e0       	ldi	r30, 0x08	; 8
    5cf6:	8e 9f       	mul	r24, r30
    5cf8:	a0 0c       	add	r10, r0
    5cfa:	b1 1c       	adc	r11, r1
    5cfc:	11 24       	eor	r1, r1
    5cfe:	df b6       	in	r13, 0x3f	; 63
    5d00:	f8 94       	cli
    5d02:	c7 01       	movw	r24, r14
    5d04:	69 83       	std	Y+1, r22	; 0x01
    5d06:	fa de       	rcall	.-524    	; 0x5afc <adc_enable_clock>
    5d08:	f8 01       	movw	r30, r16
    5d0a:	80 81       	ld	r24, Z
    5d0c:	f5 01       	movw	r30, r10
    5d0e:	80 83       	st	Z, r24
    5d10:	f8 01       	movw	r30, r16
    5d12:	82 81       	ldd	r24, Z+2	; 0x02
    5d14:	f5 01       	movw	r30, r10
    5d16:	82 83       	std	Z+2, r24	; 0x02
    5d18:	f8 01       	movw	r30, r16
    5d1a:	81 81       	ldd	r24, Z+1	; 0x01
    5d1c:	f5 01       	movw	r30, r10
    5d1e:	81 83       	std	Z+1, r24	; 0x01
    5d20:	69 81       	ldd	r22, Y+1	; 0x01
    5d22:	60 ff       	sbrs	r22, 0
    5d24:	04 c0       	rjmp	.+8      	; 0x5d2e <adcch_write_configuration+0x74>
    5d26:	f8 01       	movw	r30, r16
    5d28:	83 81       	ldd	r24, Z+3	; 0x03
    5d2a:	f5 01       	movw	r30, r10
    5d2c:	86 83       	std	Z+6, r24	; 0x06
    5d2e:	c7 01       	movw	r24, r14
    5d30:	05 df       	rcall	.-502    	; 0x5b3c <adc_disable_clock>
    5d32:	df be       	out	0x3f, r13	; 63
    5d34:	0f 90       	pop	r0
    5d36:	df 91       	pop	r29
    5d38:	cf 91       	pop	r28
    5d3a:	1f 91       	pop	r17
    5d3c:	0f 91       	pop	r16
    5d3e:	ff 90       	pop	r15
    5d40:	ef 90       	pop	r14
    5d42:	df 90       	pop	r13
    5d44:	bf 90       	pop	r11
    5d46:	af 90       	pop	r10
    5d48:	08 95       	ret

00005d4a <adcch_read_configuration>:
    5d4a:	af 92       	push	r10
    5d4c:	bf 92       	push	r11
    5d4e:	df 92       	push	r13
    5d50:	ef 92       	push	r14
    5d52:	ff 92       	push	r15
    5d54:	0f 93       	push	r16
    5d56:	1f 93       	push	r17
    5d58:	cf 93       	push	r28
    5d5a:	df 93       	push	r29
    5d5c:	1f 92       	push	r1
    5d5e:	cd b7       	in	r28, 0x3d	; 61
    5d60:	de b7       	in	r29, 0x3e	; 62
    5d62:	7c 01       	movw	r14, r24
    5d64:	8a 01       	movw	r16, r20
    5d66:	86 2f       	mov	r24, r22
    5d68:	83 70       	andi	r24, 0x03	; 3
    5d6a:	96 2f       	mov	r25, r22
    5d6c:	21 f4       	brne	.+8      	; 0x5d76 <adcch_read_configuration+0x2c>
    5d6e:	96 95       	lsr	r25
    5d70:	96 95       	lsr	r25
    5d72:	82 e0       	ldi	r24, 0x02	; 2
    5d74:	01 c0       	rjmp	.+2      	; 0x5d78 <adcch_read_configuration+0x2e>
    5d76:	80 e0       	ldi	r24, 0x00	; 0
    5d78:	90 ff       	sbrs	r25, 0
    5d7a:	8f 5f       	subi	r24, 0xFF	; 255
    5d7c:	57 01       	movw	r10, r14
    5d7e:	90 e2       	ldi	r25, 0x20	; 32
    5d80:	a9 0e       	add	r10, r25
    5d82:	b1 1c       	adc	r11, r1
    5d84:	e8 e0       	ldi	r30, 0x08	; 8
    5d86:	8e 9f       	mul	r24, r30
    5d88:	a0 0c       	add	r10, r0
    5d8a:	b1 1c       	adc	r11, r1
    5d8c:	11 24       	eor	r1, r1
    5d8e:	df b6       	in	r13, 0x3f	; 63
    5d90:	f8 94       	cli
    5d92:	c7 01       	movw	r24, r14
    5d94:	69 83       	std	Y+1, r22	; 0x01
    5d96:	b2 de       	rcall	.-668    	; 0x5afc <adc_enable_clock>
    5d98:	f5 01       	movw	r30, r10
    5d9a:	80 81       	ld	r24, Z
    5d9c:	f8 01       	movw	r30, r16
    5d9e:	80 83       	st	Z, r24
    5da0:	f5 01       	movw	r30, r10
    5da2:	82 81       	ldd	r24, Z+2	; 0x02
    5da4:	f8 01       	movw	r30, r16
    5da6:	82 83       	std	Z+2, r24	; 0x02
    5da8:	f5 01       	movw	r30, r10
    5daa:	81 81       	ldd	r24, Z+1	; 0x01
    5dac:	f8 01       	movw	r30, r16
    5dae:	81 83       	std	Z+1, r24	; 0x01
    5db0:	69 81       	ldd	r22, Y+1	; 0x01
    5db2:	60 ff       	sbrs	r22, 0
    5db4:	04 c0       	rjmp	.+8      	; 0x5dbe <adcch_read_configuration+0x74>
    5db6:	f5 01       	movw	r30, r10
    5db8:	86 81       	ldd	r24, Z+6	; 0x06
    5dba:	f8 01       	movw	r30, r16
    5dbc:	83 83       	std	Z+3, r24	; 0x03
    5dbe:	c7 01       	movw	r24, r14
    5dc0:	bd de       	rcall	.-646    	; 0x5b3c <adc_disable_clock>
    5dc2:	df be       	out	0x3f, r13	; 63
    5dc4:	0f 90       	pop	r0
    5dc6:	df 91       	pop	r29
    5dc8:	cf 91       	pop	r28
    5dca:	1f 91       	pop	r17
    5dcc:	0f 91       	pop	r16
    5dce:	ff 90       	pop	r15
    5dd0:	ef 90       	pop	r14
    5dd2:	df 90       	pop	r13
    5dd4:	bf 90       	pop	r11
    5dd6:	af 90       	pop	r10
    5dd8:	08 95       	ret

00005dda <wdt_wait_while_busy>:
    5dda:	80 91 82 00 	lds	r24, 0x0082
    5dde:	80 fd       	sbrc	r24, 0
    5de0:	fc cf       	rjmp	.-8      	; 0x5dda <wdt_wait_while_busy>
    5de2:	08 95       	ret

00005de4 <wdt_set_timeout_period>:
    5de4:	60 91 80 00 	lds	r22, 0x0080
    5de8:	62 70       	andi	r22, 0x02	; 2
    5dea:	61 60       	ori	r22, 0x01	; 1
    5dec:	88 0f       	add	r24, r24
    5dee:	88 0f       	add	r24, r24
    5df0:	8c 73       	andi	r24, 0x3C	; 60
    5df2:	68 2b       	or	r22, r24
    5df4:	80 e8       	ldi	r24, 0x80	; 128
    5df6:	90 e0       	ldi	r25, 0x00	; 0
    5df8:	4c d5       	rcall	.+2712   	; 0x6892 <ccp_write_io>
    5dfa:	ef cf       	rjmp	.-34     	; 0x5dda <wdt_wait_while_busy>

00005dfc <wdt_enable>:
    5dfc:	60 91 80 00 	lds	r22, 0x0080
    5e00:	6c 73       	andi	r22, 0x3C	; 60
    5e02:	63 60       	ori	r22, 0x03	; 3
    5e04:	80 e8       	ldi	r24, 0x80	; 128
    5e06:	90 e0       	ldi	r25, 0x00	; 0
    5e08:	44 d5       	rcall	.+2696   	; 0x6892 <ccp_write_io>
    5e0a:	e7 cf       	rjmp	.-50     	; 0x5dda <wdt_wait_while_busy>

00005e0c <wdt_reset_mcu>:
    5e0c:	63 e0       	ldi	r22, 0x03	; 3
    5e0e:	80 e8       	ldi	r24, 0x80	; 128
    5e10:	90 e0       	ldi	r25, 0x00	; 0
    5e12:	3f d5       	rcall	.+2686   	; 0x6892 <ccp_write_io>
    5e14:	e2 df       	rcall	.-60     	; 0x5dda <wdt_wait_while_busy>
    5e16:	6b e2       	ldi	r22, 0x2B	; 43
    5e18:	81 e8       	ldi	r24, 0x81	; 129
    5e1a:	90 e0       	ldi	r25, 0x00	; 0
    5e1c:	3a d5       	rcall	.+2676   	; 0x6892 <ccp_write_io>
    5e1e:	dd df       	rcall	.-70     	; 0x5dda <wdt_wait_while_busy>
    5e20:	a8 95       	wdr
    5e22:	ff cf       	rjmp	.-2      	; 0x5e22 <wdt_reset_mcu+0x16>

00005e24 <debug_string>:
    5e24:	90 91 18 20 	lds	r25, 0x2018
    5e28:	98 17       	cp	r25, r24
    5e2a:	28 f1       	brcs	.+74     	; 0x5e76 <debug_string+0x52>
    5e2c:	41 11       	cpse	r20, r1
    5e2e:	02 c0       	rjmp	.+4      	; 0x5e34 <debug_string+0x10>
    5e30:	fb 01       	movw	r30, r22
    5e32:	1e c0       	rjmp	.+60     	; 0x5e70 <debug_string+0x4c>
    5e34:	80 91 cf 01 	lds	r24, 0x01CF
    5e38:	87 fd       	sbrc	r24, 7
    5e3a:	fc cf       	rjmp	.-8      	; 0x5e34 <debug_string+0x10>
    5e3c:	9b 01       	movw	r18, r22
    5e3e:	c9 01       	movw	r24, r18
    5e40:	aa 27       	eor	r26, r26
    5e42:	97 fd       	sbrc	r25, 7
    5e44:	a0 95       	com	r26
    5e46:	ba 2f       	mov	r27, r26
    5e48:	2f 5f       	subi	r18, 0xFF	; 255
    5e4a:	3f 4f       	sbci	r19, 0xFF	; 255
    5e4c:	ab bf       	out	0x3b, r26	; 59
    5e4e:	fc 01       	movw	r30, r24
    5e50:	87 91       	elpm	r24, Z+
    5e52:	88 23       	and	r24, r24
    5e54:	81 f0       	breq	.+32     	; 0x5e76 <debug_string+0x52>
    5e56:	90 91 a1 0b 	lds	r25, 0x0BA1
    5e5a:	95 ff       	sbrs	r25, 5
    5e5c:	fc cf       	rjmp	.-8      	; 0x5e56 <debug_string+0x32>
    5e5e:	80 93 a0 0b 	sts	0x0BA0, r24
    5e62:	ed cf       	rjmp	.-38     	; 0x5e3e <debug_string+0x1a>
    5e64:	90 91 a1 0b 	lds	r25, 0x0BA1
    5e68:	95 ff       	sbrs	r25, 5
    5e6a:	fc cf       	rjmp	.-8      	; 0x5e64 <debug_string+0x40>
    5e6c:	80 93 a0 0b 	sts	0x0BA0, r24
    5e70:	81 91       	ld	r24, Z+
    5e72:	81 11       	cpse	r24, r1
    5e74:	f7 cf       	rjmp	.-18     	; 0x5e64 <debug_string+0x40>
    5e76:	08 95       	ret

00005e78 <debug_string_P>:
    5e78:	41 e0       	ldi	r20, 0x01	; 1
    5e7a:	d4 cf       	rjmp	.-88     	; 0x5e24 <debug_string>

00005e7c <debug_function_out_name_print>:
    5e7c:	cf 93       	push	r28
    5e7e:	df 93       	push	r29
    5e80:	ec 01       	movw	r28, r24
    5e82:	41 e0       	ldi	r20, 0x01	; 1
    5e84:	62 ed       	ldi	r22, 0xD2	; 210
    5e86:	7e e1       	ldi	r23, 0x1E	; 30
    5e88:	82 e0       	ldi	r24, 0x02	; 2
    5e8a:	cc df       	rcall	.-104    	; 0x5e24 <debug_string>
    5e8c:	68 81       	ld	r22, Y
    5e8e:	79 81       	ldd	r23, Y+1	; 0x01
    5e90:	40 e0       	ldi	r20, 0x00	; 0
    5e92:	82 e0       	ldi	r24, 0x02	; 2
    5e94:	c7 df       	rcall	.-114    	; 0x5e24 <debug_string>
    5e96:	41 e0       	ldi	r20, 0x01	; 1
    5e98:	6e ed       	ldi	r22, 0xDE	; 222
    5e9a:	7e e1       	ldi	r23, 0x1E	; 30
    5e9c:	82 e0       	ldi	r24, 0x02	; 2
    5e9e:	df 91       	pop	r29
    5ea0:	cf 91       	pop	r28
    5ea2:	c0 cf       	rjmp	.-128    	; 0x5e24 <debug_string>

00005ea4 <debug_function_in_name_print>:
    5ea4:	1f 93       	push	r17
    5ea6:	cf 93       	push	r28
    5ea8:	df 93       	push	r29
    5eaa:	18 2f       	mov	r17, r24
    5eac:	eb 01       	movw	r28, r22
    5eae:	41 e0       	ldi	r20, 0x01	; 1
    5eb0:	61 ee       	ldi	r22, 0xE1	; 225
    5eb2:	7e e1       	ldi	r23, 0x1E	; 30
    5eb4:	b7 df       	rcall	.-146    	; 0x5e24 <debug_string>
    5eb6:	40 e0       	ldi	r20, 0x00	; 0
    5eb8:	be 01       	movw	r22, r28
    5eba:	81 2f       	mov	r24, r17
    5ebc:	b3 df       	rcall	.-154    	; 0x5e24 <debug_string>
    5ebe:	41 e0       	ldi	r20, 0x01	; 1
    5ec0:	6c ee       	ldi	r22, 0xEC	; 236
    5ec2:	7e e1       	ldi	r23, 0x1E	; 30
    5ec4:	81 2f       	mov	r24, r17
    5ec6:	df 91       	pop	r29
    5ec8:	cf 91       	pop	r28
    5eca:	1f 91       	pop	r17
    5ecc:	ab cf       	rjmp	.-170    	; 0x5e24 <debug_string>

00005ece <debug_function_in_name_print_P>:
    5ece:	cf 93       	push	r28
    5ed0:	df 93       	push	r29
    5ed2:	eb 01       	movw	r28, r22
    5ed4:	41 e0       	ldi	r20, 0x01	; 1
    5ed6:	6f ee       	ldi	r22, 0xEF	; 239
    5ed8:	7e e1       	ldi	r23, 0x1E	; 30
    5eda:	82 e0       	ldi	r24, 0x02	; 2
    5edc:	a3 df       	rcall	.-186    	; 0x5e24 <debug_string>
    5ede:	41 e0       	ldi	r20, 0x01	; 1
    5ee0:	be 01       	movw	r22, r28
    5ee2:	82 e0       	ldi	r24, 0x02	; 2
    5ee4:	9f df       	rcall	.-194    	; 0x5e24 <debug_string>
    5ee6:	41 e0       	ldi	r20, 0x01	; 1
    5ee8:	6a ef       	ldi	r22, 0xFA	; 250
    5eea:	7e e1       	ldi	r23, 0x1E	; 30
    5eec:	82 e0       	ldi	r24, 0x02	; 2
    5eee:	df 91       	pop	r29
    5ef0:	cf 91       	pop	r28
    5ef2:	98 cf       	rjmp	.-208    	; 0x5e24 <debug_string>

00005ef4 <debug_function_out_name_print_P>:
    5ef4:	cf 93       	push	r28
    5ef6:	df 93       	push	r29
    5ef8:	ec 01       	movw	r28, r24
    5efa:	41 e0       	ldi	r20, 0x01	; 1
    5efc:	6d ef       	ldi	r22, 0xFD	; 253
    5efe:	7e e1       	ldi	r23, 0x1E	; 30
    5f00:	82 e0       	ldi	r24, 0x02	; 2
    5f02:	90 df       	rcall	.-224    	; 0x5e24 <debug_string>
    5f04:	68 81       	ld	r22, Y
    5f06:	79 81       	ldd	r23, Y+1	; 0x01
    5f08:	41 e0       	ldi	r20, 0x01	; 1
    5f0a:	82 e0       	ldi	r24, 0x02	; 2
    5f0c:	8b df       	rcall	.-234    	; 0x5e24 <debug_string>
    5f0e:	41 e0       	ldi	r20, 0x01	; 1
    5f10:	69 e0       	ldi	r22, 0x09	; 9
    5f12:	7f e1       	ldi	r23, 0x1F	; 31
    5f14:	82 e0       	ldi	r24, 0x02	; 2
    5f16:	df 91       	pop	r29
    5f18:	cf 91       	pop	r28
    5f1a:	84 cf       	rjmp	.-248    	; 0x5e24 <debug_string>

00005f1c <dump_rainstats_to_log>:
    5f1c:	0f 93       	push	r16
    5f1e:	1f 93       	push	r17
    5f20:	cf 93       	push	r28
    5f22:	df 93       	push	r29
    5f24:	cd b7       	in	r28, 0x3d	; 61
    5f26:	de b7       	in	r29, 0x3e	; 62
    5f28:	ca 50       	subi	r28, 0x0A	; 10
    5f2a:	d1 40       	sbci	r29, 0x01	; 1
    5f2c:	cd bf       	out	0x3d, r28	; 61
    5f2e:	de bf       	out	0x3e, r29	; 62
    5f30:	be 01       	movw	r22, r28
    5f32:	6f 5f       	subi	r22, 0xFF	; 255
    5f34:	7e 4f       	sbci	r23, 0xFE	; 254
    5f36:	0e 94 27 22 	call	0x444e	; 0x444e <raingauge_get_stats>
    5f3a:	c8 5f       	subi	r28, 0xF8	; 248
    5f3c:	de 4f       	sbci	r29, 0xFE	; 254
    5f3e:	88 81       	ld	r24, Y
    5f40:	c8 50       	subi	r28, 0x08	; 8
    5f42:	d1 40       	sbci	r29, 0x01	; 1
    5f44:	8f 93       	push	r24
    5f46:	c9 5f       	subi	r28, 0xF9	; 249
    5f48:	de 4f       	sbci	r29, 0xFE	; 254
    5f4a:	88 81       	ld	r24, Y
    5f4c:	c7 50       	subi	r28, 0x07	; 7
    5f4e:	d1 40       	sbci	r29, 0x01	; 1
    5f50:	8f 93       	push	r24
    5f52:	c6 5f       	subi	r28, 0xF6	; 246
    5f54:	de 4f       	sbci	r29, 0xFE	; 254
    5f56:	88 81       	ld	r24, Y
    5f58:	ca 50       	subi	r28, 0x0A	; 10
    5f5a:	d1 40       	sbci	r29, 0x01	; 1
    5f5c:	8f 93       	push	r24
    5f5e:	c7 5f       	subi	r28, 0xF7	; 247
    5f60:	de 4f       	sbci	r29, 0xFE	; 254
    5f62:	88 81       	ld	r24, Y
    5f64:	c9 50       	subi	r28, 0x09	; 9
    5f66:	d1 40       	sbci	r29, 0x01	; 1
    5f68:	8f 93       	push	r24
    5f6a:	ca 5f       	subi	r28, 0xFA	; 250
    5f6c:	de 4f       	sbci	r29, 0xFE	; 254
    5f6e:	88 81       	ld	r24, Y
    5f70:	c6 50       	subi	r28, 0x06	; 6
    5f72:	d1 40       	sbci	r29, 0x01	; 1
    5f74:	8f 93       	push	r24
    5f76:	cb 5f       	subi	r28, 0xFB	; 251
    5f78:	de 4f       	sbci	r29, 0xFE	; 254
    5f7a:	88 81       	ld	r24, Y
    5f7c:	c5 50       	subi	r28, 0x05	; 5
    5f7e:	d1 40       	sbci	r29, 0x01	; 1
    5f80:	8f 93       	push	r24
    5f82:	cc 5f       	subi	r28, 0xFC	; 252
    5f84:	de 4f       	sbci	r29, 0xFE	; 254
    5f86:	88 81       	ld	r24, Y
    5f88:	c4 50       	subi	r28, 0x04	; 4
    5f8a:	d1 40       	sbci	r29, 0x01	; 1
    5f8c:	8f 93       	push	r24
    5f8e:	cd 5f       	subi	r28, 0xFD	; 253
    5f90:	de 4f       	sbci	r29, 0xFE	; 254
    5f92:	88 81       	ld	r24, Y
    5f94:	c3 50       	subi	r28, 0x03	; 3
    5f96:	d1 40       	sbci	r29, 0x01	; 1
    5f98:	8f 93       	push	r24
    5f9a:	ce 5f       	subi	r28, 0xFE	; 254
    5f9c:	de 4f       	sbci	r29, 0xFE	; 254
    5f9e:	88 81       	ld	r24, Y
    5fa0:	c2 50       	subi	r28, 0x02	; 2
    5fa2:	d1 40       	sbci	r29, 0x01	; 1
    5fa4:	8f 93       	push	r24
    5fa6:	cf 5f       	subi	r28, 0xFF	; 255
    5fa8:	de 4f       	sbci	r29, 0xFE	; 254
    5faa:	88 81       	ld	r24, Y
    5fac:	c1 50       	subi	r28, 0x01	; 1
    5fae:	d1 40       	sbci	r29, 0x01	; 1
    5fb0:	8f 93       	push	r24
    5fb2:	8c e0       	ldi	r24, 0x0C	; 12
    5fb4:	9f e1       	ldi	r25, 0x1F	; 31
    5fb6:	9f 93       	push	r25
    5fb8:	8f 93       	push	r24
    5fba:	8e 01       	movw	r16, r28
    5fbc:	0f 5f       	subi	r16, 0xFF	; 255
    5fbe:	1f 4f       	sbci	r17, 0xFF	; 255
    5fc0:	1f 93       	push	r17
    5fc2:	0f 93       	push	r16
    5fc4:	0e 94 93 49 	call	0x9326	; 0x9326 <sprintf_P>
    5fc8:	40 e0       	ldi	r20, 0x00	; 0
    5fca:	b8 01       	movw	r22, r16
    5fcc:	81 e0       	ldi	r24, 0x01	; 1
    5fce:	2a df       	rcall	.-428    	; 0x5e24 <debug_string>
    5fd0:	cd bf       	out	0x3d, r28	; 61
    5fd2:	de bf       	out	0x3e, r29	; 62
    5fd4:	c6 5f       	subi	r28, 0xF6	; 246
    5fd6:	de 4f       	sbci	r29, 0xFE	; 254
    5fd8:	cd bf       	out	0x3d, r28	; 61
    5fda:	de bf       	out	0x3e, r29	; 62
    5fdc:	df 91       	pop	r29
    5fde:	cf 91       	pop	r28
    5fe0:	1f 91       	pop	r17
    5fe2:	0f 91       	pop	r16
    5fe4:	08 95       	ret

00005fe6 <vbus_action>:
    5fe6:	81 11       	cpse	r24, r1
    5fe8:	0c 94 1a 42 	jmp	0x8434	; 0x8434 <udd_attach>
    5fec:	0c 94 b3 42 	jmp	0x8566	; 0x8566 <udd_detach>

00005ff0 <cdc_enable>:
    5ff0:	81 e0       	ldi	r24, 0x01	; 1
    5ff2:	80 93 d5 22 	sts	0x22D5, r24
    5ff6:	08 95       	ret

00005ff8 <cdc_disable>:
    5ff8:	10 92 d5 22 	sts	0x22D5, r1
    5ffc:	08 95       	ret

00005ffe <cdc_set_dtr>:
    5ffe:	88 23       	and	r24, r24
    6000:	21 f0       	breq	.+8      	; 0x600a <__stack+0xb>
    6002:	81 e0       	ldi	r24, 0x01	; 1
    6004:	80 93 d5 22 	sts	0x22D5, r24
    6008:	08 95       	ret
    600a:	10 92 d5 22 	sts	0x22D5, r1
    600e:	08 95       	ret

00006010 <osc_enable_internal>:
    6010:	9f b7       	in	r25, 0x3f	; 63
    6012:	f8 94       	cli
    6014:	e0 e5       	ldi	r30, 0x50	; 80
    6016:	f0 e0       	ldi	r31, 0x00	; 0
    6018:	20 81       	ld	r18, Z
    601a:	82 2b       	or	r24, r18
    601c:	80 83       	st	Z, r24
    601e:	9f bf       	out	0x3f, r25	; 63
    6020:	08 95       	ret

00006022 <osc_enable_autocalibration.constprop.4>:
    6022:	9f b7       	in	r25, 0x3f	; 63
    6024:	f8 94       	cli
    6026:	a0 e5       	ldi	r26, 0x50	; 80
    6028:	b0 e0       	ldi	r27, 0x00	; 0
    602a:	16 96       	adiw	r26, 0x06	; 6
    602c:	8c 91       	ld	r24, X
    602e:	16 97       	sbiw	r26, 0x06	; 6
    6030:	89 7f       	andi	r24, 0xF9	; 249
    6032:	16 96       	adiw	r26, 0x06	; 6
    6034:	8c 93       	st	X, r24
    6036:	16 97       	sbiw	r26, 0x06	; 6
    6038:	e0 e6       	ldi	r30, 0x60	; 96
    603a:	f0 e0       	ldi	r31, 0x00	; 0
    603c:	80 e8       	ldi	r24, 0x80	; 128
    603e:	85 83       	std	Z+5, r24	; 0x05
    6040:	8b eb       	ldi	r24, 0xBB	; 187
    6042:	86 83       	std	Z+6, r24	; 0x06
    6044:	16 96       	adiw	r26, 0x06	; 6
    6046:	8c 91       	ld	r24, X
    6048:	16 97       	sbiw	r26, 0x06	; 6
    604a:	84 60       	ori	r24, 0x04	; 4
    604c:	16 96       	adiw	r26, 0x06	; 6
    604e:	8c 93       	st	X, r24
    6050:	80 81       	ld	r24, Z
    6052:	81 60       	ori	r24, 0x01	; 1
    6054:	80 83       	st	Z, r24
    6056:	9f bf       	out	0x3f, r25	; 63
    6058:	08 95       	ret

0000605a <sysclk_init>:
    605a:	cf 93       	push	r28
    605c:	df 93       	push	r29
    605e:	00 d0       	rcall	.+0      	; 0x6060 <sysclk_init+0x6>
    6060:	1f 92       	push	r1
    6062:	cd b7       	in	r28, 0x3d	; 61
    6064:	de b7       	in	r29, 0x3e	; 62
    6066:	8f ef       	ldi	r24, 0xFF	; 255
    6068:	80 93 70 00 	sts	0x0070, r24
    606c:	80 93 71 00 	sts	0x0071, r24
    6070:	80 93 72 00 	sts	0x0072, r24
    6074:	80 93 73 00 	sts	0x0073, r24
    6078:	80 93 74 00 	sts	0x0074, r24
    607c:	80 93 75 00 	sts	0x0075, r24
    6080:	80 93 76 00 	sts	0x0076, r24
    6084:	64 e0       	ldi	r22, 0x04	; 4
    6086:	81 e4       	ldi	r24, 0x41	; 65
    6088:	90 e0       	ldi	r25, 0x00	; 0
    608a:	03 d4       	rcall	.+2054   	; 0x6892 <ccp_write_io>
    608c:	6c e1       	ldi	r22, 0x1C	; 28
    608e:	70 e0       	ldi	r23, 0x00	; 0
    6090:	82 e0       	ldi	r24, 0x02	; 2
    6092:	6e d4       	rcall	.+2268   	; 0x6970 <nvm_read_byte>
    6094:	8c 83       	std	Y+4, r24	; 0x04
    6096:	6d e1       	ldi	r22, 0x1D	; 29
    6098:	70 e0       	ldi	r23, 0x00	; 0
    609a:	82 e0       	ldi	r24, 0x02	; 2
    609c:	69 d4       	rcall	.+2258   	; 0x6970 <nvm_read_byte>
    609e:	8b 83       	std	Y+3, r24	; 0x03
    60a0:	8b 81       	ldd	r24, Y+3	; 0x03
    60a2:	9c 81       	ldd	r25, Y+4	; 0x04
    60a4:	01 96       	adiw	r24, 0x01	; 1
    60a6:	21 f4       	brne	.+8      	; 0x60b0 <sysclk_init+0x56>
    60a8:	80 e4       	ldi	r24, 0x40	; 64
    60aa:	93 e2       	ldi	r25, 0x23	; 35
    60ac:	8b 83       	std	Y+3, r24	; 0x03
    60ae:	9c 83       	std	Y+4, r25	; 0x04
    60b0:	8b 81       	ldd	r24, Y+3	; 0x03
    60b2:	9c 81       	ldd	r25, Y+4	; 0x04
    60b4:	89 83       	std	Y+1, r24	; 0x01
    60b6:	9a 83       	std	Y+2, r25	; 0x02
    60b8:	80 93 62 00 	sts	0x0062, r24
    60bc:	8a 81       	ldd	r24, Y+2	; 0x02
    60be:	80 93 63 00 	sts	0x0063, r24
    60c2:	82 e0       	ldi	r24, 0x02	; 2
    60c4:	a5 df       	rcall	.-182    	; 0x6010 <osc_enable_internal>
    60c6:	80 91 51 00 	lds	r24, 0x0051
    60ca:	81 ff       	sbrs	r24, 1
    60cc:	fc cf       	rjmp	.-8      	; 0x60c6 <sysclk_init+0x6c>
    60ce:	a9 df       	rcall	.-174    	; 0x6022 <osc_enable_autocalibration.constprop.4>
    60d0:	61 e0       	ldi	r22, 0x01	; 1
    60d2:	80 e4       	ldi	r24, 0x40	; 64
    60d4:	90 e0       	ldi	r25, 0x00	; 0
    60d6:	dd d3       	rcall	.+1978   	; 0x6892 <ccp_write_io>
    60d8:	9f b7       	in	r25, 0x3f	; 63
    60da:	f8 94       	cli
    60dc:	80 91 50 00 	lds	r24, 0x0050
    60e0:	8e 7f       	andi	r24, 0xFE	; 254
    60e2:	80 93 50 00 	sts	0x0050, r24
    60e6:	9f bf       	out	0x3f, r25	; 63
    60e8:	24 96       	adiw	r28, 0x04	; 4
    60ea:	cd bf       	out	0x3d, r28	; 61
    60ec:	de bf       	out	0x3e, r29	; 62
    60ee:	df 91       	pop	r29
    60f0:	cf 91       	pop	r28
    60f2:	08 95       	ret

000060f4 <sysclk_enable_module>:
    60f4:	2f b7       	in	r18, 0x3f	; 63
    60f6:	f8 94       	cli
    60f8:	fc 01       	movw	r30, r24
    60fa:	e0 59       	subi	r30, 0x90	; 144
    60fc:	ff 4f       	sbci	r31, 0xFF	; 255
    60fe:	60 95       	com	r22
    6100:	80 81       	ld	r24, Z
    6102:	86 23       	and	r24, r22
    6104:	80 83       	st	Z, r24
    6106:	2f bf       	out	0x3f, r18	; 63
    6108:	08 95       	ret

0000610a <sysclk_disable_module>:
    610a:	2f b7       	in	r18, 0x3f	; 63
    610c:	f8 94       	cli
    610e:	fc 01       	movw	r30, r24
    6110:	e0 59       	subi	r30, 0x90	; 144
    6112:	ff 4f       	sbci	r31, 0xFF	; 255
    6114:	80 81       	ld	r24, Z
    6116:	86 2b       	or	r24, r22
    6118:	80 83       	st	Z, r24
    611a:	2f bf       	out	0x3f, r18	; 63
    611c:	08 95       	ret

0000611e <sysclk_enable_usb>:
    611e:	cf 93       	push	r28
    6120:	86 30       	cpi	r24, 0x06	; 6
    6122:	11 f4       	brne	.+4      	; 0x6128 <sysclk_enable_usb+0xa>
    6124:	c8 e1       	ldi	r28, 0x18	; 24
    6126:	01 c0       	rjmp	.+2      	; 0x612a <sysclk_enable_usb+0xc>
    6128:	c0 e0       	ldi	r28, 0x00	; 0
    612a:	80 91 51 00 	lds	r24, 0x0051
    612e:	81 fd       	sbrc	r24, 1
    6130:	07 c0       	rjmp	.+14     	; 0x6140 <sysclk_enable_usb+0x22>
    6132:	82 e0       	ldi	r24, 0x02	; 2
    6134:	6d df       	rcall	.-294    	; 0x6010 <osc_enable_internal>
    6136:	80 91 51 00 	lds	r24, 0x0051
    613a:	81 ff       	sbrs	r24, 1
    613c:	fc cf       	rjmp	.-8      	; 0x6136 <sysclk_enable_usb+0x18>
    613e:	71 df       	rcall	.-286    	; 0x6022 <osc_enable_autocalibration.constprop.4>
    6140:	6c 2f       	mov	r22, r28
    6142:	63 60       	ori	r22, 0x03	; 3
    6144:	84 e4       	ldi	r24, 0x44	; 68
    6146:	90 e0       	ldi	r25, 0x00	; 0
    6148:	a4 d3       	rcall	.+1864   	; 0x6892 <ccp_write_io>
    614a:	60 e4       	ldi	r22, 0x40	; 64
    614c:	80 e0       	ldi	r24, 0x00	; 0
    614e:	90 e0       	ldi	r25, 0x00	; 0
    6150:	cf 91       	pop	r28
    6152:	d0 cf       	rjmp	.-96     	; 0x60f4 <sysclk_enable_module>

00006154 <sysclk_disable_usb>:
    6154:	60 e4       	ldi	r22, 0x40	; 64
    6156:	80 e0       	ldi	r24, 0x00	; 0
    6158:	90 e0       	ldi	r25, 0x00	; 0
    615a:	d7 df       	rcall	.-82     	; 0x610a <sysclk_disable_module>
    615c:	60 e0       	ldi	r22, 0x00	; 0
    615e:	84 e4       	ldi	r24, 0x44	; 68
    6160:	90 e0       	ldi	r25, 0x00	; 0
    6162:	97 c3       	rjmp	.+1838   	; 0x6892 <ccp_write_io>

00006164 <ioport_configure_port_pin>:
    6164:	fc 01       	movw	r30, r24
    6166:	80 e0       	ldi	r24, 0x00	; 0
    6168:	90 e0       	ldi	r25, 0x00	; 0
    616a:	26 2f       	mov	r18, r22
    616c:	30 e0       	ldi	r19, 0x00	; 0
    616e:	d9 01       	movw	r26, r18
    6170:	08 2e       	mov	r0, r24
    6172:	02 c0       	rjmp	.+4      	; 0x6178 <ioport_configure_port_pin+0x14>
    6174:	b5 95       	asr	r27
    6176:	a7 95       	ror	r26
    6178:	0a 94       	dec	r0
    617a:	e2 f7       	brpl	.-8      	; 0x6174 <ioport_configure_port_pin+0x10>
    617c:	a0 ff       	sbrs	r26, 0
    617e:	05 c0       	rjmp	.+10     	; 0x618a <ioport_configure_port_pin+0x26>
    6180:	df 01       	movw	r26, r30
    6182:	a8 0f       	add	r26, r24
    6184:	b9 1f       	adc	r27, r25
    6186:	50 96       	adiw	r26, 0x10	; 16
    6188:	5c 93       	st	X, r21
    618a:	01 96       	adiw	r24, 0x01	; 1
    618c:	88 30       	cpi	r24, 0x08	; 8
    618e:	91 05       	cpc	r25, r1
    6190:	71 f7       	brne	.-36     	; 0x616e <ioport_configure_port_pin+0xa>
    6192:	40 ff       	sbrs	r20, 0
    6194:	07 c0       	rjmp	.+14     	; 0x61a4 <ioport_configure_port_pin+0x40>
    6196:	41 ff       	sbrs	r20, 1
    6198:	02 c0       	rjmp	.+4      	; 0x619e <ioport_configure_port_pin+0x3a>
    619a:	65 83       	std	Z+5, r22	; 0x05
    619c:	01 c0       	rjmp	.+2      	; 0x61a0 <ioport_configure_port_pin+0x3c>
    619e:	66 83       	std	Z+6, r22	; 0x06
    61a0:	61 83       	std	Z+1, r22	; 0x01
    61a2:	08 95       	ret
    61a4:	62 83       	std	Z+2, r22	; 0x02
    61a6:	08 95       	ret

000061a8 <udc_valid_address>:
    61a8:	80 91 d2 25 	lds	r24, 0x25D2
    61ac:	8f 77       	andi	r24, 0x7F	; 127
    61ae:	0c 94 bb 42 	jmp	0x8576	; 0x8576 <udd_set_address>

000061b2 <udc_update_iface_desc>:
    61b2:	90 91 d8 22 	lds	r25, 0x22D8
    61b6:	99 23       	and	r25, r25
    61b8:	69 f1       	breq	.+90     	; 0x6214 <udc_update_iface_desc+0x62>
    61ba:	e0 91 d9 22 	lds	r30, 0x22D9
    61be:	f0 91 da 22 	lds	r31, 0x22DA
    61c2:	01 90       	ld	r0, Z+
    61c4:	f0 81       	ld	r31, Z
    61c6:	e0 2d       	mov	r30, r0
    61c8:	94 81       	ldd	r25, Z+4	; 0x04
    61ca:	89 17       	cp	r24, r25
    61cc:	08 f0       	brcs	.+2      	; 0x61d0 <udc_update_iface_desc+0x1e>
    61ce:	22 c0       	rjmp	.+68     	; 0x6214 <udc_update_iface_desc+0x62>
    61d0:	e0 93 d6 22 	sts	0x22D6, r30
    61d4:	f0 93 d7 22 	sts	0x22D7, r31
    61d8:	22 81       	ldd	r18, Z+2	; 0x02
    61da:	33 81       	ldd	r19, Z+3	; 0x03
    61dc:	2e 0f       	add	r18, r30
    61de:	3f 1f       	adc	r19, r31
    61e0:	12 c0       	rjmp	.+36     	; 0x6206 <udc_update_iface_desc+0x54>
    61e2:	91 81       	ldd	r25, Z+1	; 0x01
    61e4:	94 30       	cpi	r25, 0x04	; 4
    61e6:	61 f4       	brne	.+24     	; 0x6200 <udc_update_iface_desc+0x4e>
    61e8:	92 81       	ldd	r25, Z+2	; 0x02
    61ea:	89 13       	cpse	r24, r25
    61ec:	09 c0       	rjmp	.+18     	; 0x6200 <udc_update_iface_desc+0x4e>
    61ee:	93 81       	ldd	r25, Z+3	; 0x03
    61f0:	69 13       	cpse	r22, r25
    61f2:	06 c0       	rjmp	.+12     	; 0x6200 <udc_update_iface_desc+0x4e>
    61f4:	e0 93 d6 22 	sts	0x22D6, r30
    61f8:	f0 93 d7 22 	sts	0x22D7, r31
    61fc:	81 e0       	ldi	r24, 0x01	; 1
    61fe:	08 95       	ret
    6200:	90 81       	ld	r25, Z
    6202:	e9 0f       	add	r30, r25
    6204:	f1 1d       	adc	r31, r1
    6206:	e2 17       	cp	r30, r18
    6208:	f3 07       	cpc	r31, r19
    620a:	58 f3       	brcs	.-42     	; 0x61e2 <udc_update_iface_desc+0x30>
    620c:	e0 93 d6 22 	sts	0x22D6, r30
    6210:	f0 93 d7 22 	sts	0x22D7, r31
    6214:	80 e0       	ldi	r24, 0x00	; 0
    6216:	08 95       	ret

00006218 <udc_next_desc_in_iface.constprop.3>:
    6218:	e0 91 d9 22 	lds	r30, 0x22D9
    621c:	f0 91 da 22 	lds	r31, 0x22DA
    6220:	01 90       	ld	r0, Z+
    6222:	f0 81       	ld	r31, Z
    6224:	e0 2d       	mov	r30, r0
    6226:	22 81       	ldd	r18, Z+2	; 0x02
    6228:	33 81       	ldd	r19, Z+3	; 0x03
    622a:	2e 0f       	add	r18, r30
    622c:	3f 1f       	adc	r19, r31
    622e:	fc 01       	movw	r30, r24
    6230:	40 81       	ld	r20, Z
    6232:	e4 0f       	add	r30, r20
    6234:	f1 1d       	adc	r31, r1
    6236:	08 c0       	rjmp	.+16     	; 0x6248 <udc_next_desc_in_iface.constprop.3+0x30>
    6238:	81 81       	ldd	r24, Z+1	; 0x01
    623a:	84 30       	cpi	r24, 0x04	; 4
    623c:	41 f0       	breq	.+16     	; 0x624e <udc_next_desc_in_iface.constprop.3+0x36>
    623e:	85 30       	cpi	r24, 0x05	; 5
    6240:	41 f0       	breq	.+16     	; 0x6252 <udc_next_desc_in_iface.constprop.3+0x3a>
    6242:	80 81       	ld	r24, Z
    6244:	e8 0f       	add	r30, r24
    6246:	f1 1d       	adc	r31, r1
    6248:	e2 17       	cp	r30, r18
    624a:	f3 07       	cpc	r31, r19
    624c:	a8 f3       	brcs	.-22     	; 0x6238 <udc_next_desc_in_iface.constprop.3+0x20>
    624e:	e0 e0       	ldi	r30, 0x00	; 0
    6250:	f0 e0       	ldi	r31, 0x00	; 0
    6252:	cf 01       	movw	r24, r30
    6254:	08 95       	ret

00006256 <udc_iface_disable>:
    6256:	0f 93       	push	r16
    6258:	1f 93       	push	r17
    625a:	cf 93       	push	r28
    625c:	df 93       	push	r29
    625e:	c8 2f       	mov	r28, r24
    6260:	60 e0       	ldi	r22, 0x00	; 0
    6262:	a7 df       	rcall	.-178    	; 0x61b2 <udc_update_iface_desc>
    6264:	88 23       	and	r24, r24
    6266:	71 f1       	breq	.+92     	; 0x62c4 <udc_iface_disable+0x6e>
    6268:	e0 91 d9 22 	lds	r30, 0x22D9
    626c:	f0 91 da 22 	lds	r31, 0x22DA
    6270:	92 81       	ldd	r25, Z+2	; 0x02
    6272:	83 81       	ldd	r24, Z+3	; 0x03
    6274:	e9 2f       	mov	r30, r25
    6276:	f8 2f       	mov	r31, r24
    6278:	ec 0f       	add	r30, r28
    627a:	f1 1d       	adc	r31, r1
    627c:	ec 0f       	add	r30, r28
    627e:	f1 1d       	adc	r31, r1
    6280:	00 81       	ld	r16, Z
    6282:	11 81       	ldd	r17, Z+1	; 0x01
    6284:	d8 01       	movw	r26, r16
    6286:	16 96       	adiw	r26, 0x06	; 6
    6288:	ed 91       	ld	r30, X+
    628a:	fc 91       	ld	r31, X
    628c:	17 97       	sbiw	r26, 0x07	; 7
    628e:	19 95       	eicall
    6290:	68 2f       	mov	r22, r24
    6292:	8c 2f       	mov	r24, r28
    6294:	8e df       	rcall	.-228    	; 0x61b2 <udc_update_iface_desc>
    6296:	88 23       	and	r24, r24
    6298:	a9 f0       	breq	.+42     	; 0x62c4 <udc_iface_disable+0x6e>
    629a:	c0 91 d6 22 	lds	r28, 0x22D6
    629e:	d0 91 d7 22 	lds	r29, 0x22D7
    62a2:	ce 01       	movw	r24, r28
    62a4:	b9 df       	rcall	.-142    	; 0x6218 <udc_next_desc_in_iface.constprop.3>
    62a6:	ec 01       	movw	r28, r24
    62a8:	00 97       	sbiw	r24, 0x00	; 0
    62aa:	21 f0       	breq	.+8      	; 0x62b4 <udc_iface_disable+0x5e>
    62ac:	8a 81       	ldd	r24, Y+2	; 0x02
    62ae:	0e 94 18 44 	call	0x8830	; 0x8830 <udd_ep_free>
    62b2:	f7 cf       	rjmp	.-18     	; 0x62a2 <udc_iface_disable+0x4c>
    62b4:	d8 01       	movw	r26, r16
    62b6:	12 96       	adiw	r26, 0x02	; 2
    62b8:	ed 91       	ld	r30, X+
    62ba:	fc 91       	ld	r31, X
    62bc:	13 97       	sbiw	r26, 0x03	; 3
    62be:	19 95       	eicall
    62c0:	81 e0       	ldi	r24, 0x01	; 1
    62c2:	01 c0       	rjmp	.+2      	; 0x62c6 <udc_iface_disable+0x70>
    62c4:	80 e0       	ldi	r24, 0x00	; 0
    62c6:	df 91       	pop	r29
    62c8:	cf 91       	pop	r28
    62ca:	1f 91       	pop	r17
    62cc:	0f 91       	pop	r16
    62ce:	08 95       	ret

000062d0 <udc_iface_enable>:
    62d0:	1f 93       	push	r17
    62d2:	cf 93       	push	r28
    62d4:	df 93       	push	r29
    62d6:	18 2f       	mov	r17, r24
    62d8:	6c df       	rcall	.-296    	; 0x61b2 <udc_update_iface_desc>
    62da:	88 23       	and	r24, r24
    62dc:	41 f1       	breq	.+80     	; 0x632e <udc_iface_enable+0x5e>
    62de:	c0 91 d6 22 	lds	r28, 0x22D6
    62e2:	d0 91 d7 22 	lds	r29, 0x22D7
    62e6:	ce 01       	movw	r24, r28
    62e8:	97 df       	rcall	.-210    	; 0x6218 <udc_next_desc_in_iface.constprop.3>
    62ea:	ec 01       	movw	r28, r24
    62ec:	00 97       	sbiw	r24, 0x00	; 0
    62ee:	49 f0       	breq	.+18     	; 0x6302 <udc_iface_enable+0x32>
    62f0:	4c 81       	ldd	r20, Y+4	; 0x04
    62f2:	5d 81       	ldd	r21, Y+5	; 0x05
    62f4:	6b 81       	ldd	r22, Y+3	; 0x03
    62f6:	8a 81       	ldd	r24, Y+2	; 0x02
    62f8:	0e 94 d3 42 	call	0x85a6	; 0x85a6 <udd_ep_alloc>
    62fc:	81 11       	cpse	r24, r1
    62fe:	f3 cf       	rjmp	.-26     	; 0x62e6 <udc_iface_enable+0x16>
    6300:	16 c0       	rjmp	.+44     	; 0x632e <udc_iface_enable+0x5e>
    6302:	e0 91 d9 22 	lds	r30, 0x22D9
    6306:	f0 91 da 22 	lds	r31, 0x22DA
    630a:	92 81       	ldd	r25, Z+2	; 0x02
    630c:	83 81       	ldd	r24, Z+3	; 0x03
    630e:	e9 2f       	mov	r30, r25
    6310:	f8 2f       	mov	r31, r24
    6312:	e1 0f       	add	r30, r17
    6314:	f1 1d       	adc	r31, r1
    6316:	e1 0f       	add	r30, r17
    6318:	f1 1d       	adc	r31, r1
    631a:	01 90       	ld	r0, Z+
    631c:	f0 81       	ld	r31, Z
    631e:	e0 2d       	mov	r30, r0
    6320:	01 90       	ld	r0, Z+
    6322:	f0 81       	ld	r31, Z
    6324:	e0 2d       	mov	r30, r0
    6326:	df 91       	pop	r29
    6328:	cf 91       	pop	r28
    632a:	1f 91       	pop	r17
    632c:	19 94       	eijmp
    632e:	80 e0       	ldi	r24, 0x00	; 0
    6330:	df 91       	pop	r29
    6332:	cf 91       	pop	r28
    6334:	1f 91       	pop	r17
    6336:	08 95       	ret

00006338 <udc_start>:
    6338:	0c 94 3d 42 	jmp	0x847a	; 0x847a <udd_enable>

0000633c <udc_reset>:
    633c:	cf 93       	push	r28
    633e:	80 91 d8 22 	lds	r24, 0x22D8
    6342:	81 11       	cpse	r24, r1
    6344:	0d c0       	rjmp	.+26     	; 0x6360 <udc_reset+0x24>
    6346:	10 92 d8 22 	sts	0x22D8, r1
    634a:	81 e0       	ldi	r24, 0x01	; 1
    634c:	90 e0       	ldi	r25, 0x00	; 0
    634e:	80 93 db 22 	sts	0x22DB, r24
    6352:	90 93 dc 22 	sts	0x22DC, r25
    6356:	10 c0       	rjmp	.+32     	; 0x6378 <udc_reset+0x3c>
    6358:	8c 2f       	mov	r24, r28
    635a:	7d df       	rcall	.-262    	; 0x6256 <udc_iface_disable>
    635c:	cf 5f       	subi	r28, 0xFF	; 255
    635e:	01 c0       	rjmp	.+2      	; 0x6362 <udc_reset+0x26>
    6360:	c0 e0       	ldi	r28, 0x00	; 0
    6362:	e0 91 d9 22 	lds	r30, 0x22D9
    6366:	f0 91 da 22 	lds	r31, 0x22DA
    636a:	01 90       	ld	r0, Z+
    636c:	f0 81       	ld	r31, Z
    636e:	e0 2d       	mov	r30, r0
    6370:	84 81       	ldd	r24, Z+4	; 0x04
    6372:	c8 17       	cp	r28, r24
    6374:	88 f3       	brcs	.-30     	; 0x6358 <udc_reset+0x1c>
    6376:	e7 cf       	rjmp	.-50     	; 0x6346 <udc_reset+0xa>
    6378:	cf 91       	pop	r28
    637a:	08 95       	ret

0000637c <udc_stop>:
    637c:	0e 94 00 42 	call	0x8400	; 0x8400 <udd_disable>
    6380:	dd cf       	rjmp	.-70     	; 0x633c <udc_reset>

00006382 <udc_sof_notify>:
    6382:	cf 93       	push	r28
    6384:	80 91 d8 22 	lds	r24, 0x22D8
    6388:	81 11       	cpse	r24, r1
    638a:	14 c0       	rjmp	.+40     	; 0x63b4 <udc_sof_notify+0x32>
    638c:	1e c0       	rjmp	.+60     	; 0x63ca <udc_sof_notify+0x48>
    638e:	92 81       	ldd	r25, Z+2	; 0x02
    6390:	83 81       	ldd	r24, Z+3	; 0x03
    6392:	e9 2f       	mov	r30, r25
    6394:	f8 2f       	mov	r31, r24
    6396:	ec 0f       	add	r30, r28
    6398:	f1 1d       	adc	r31, r1
    639a:	ec 0f       	add	r30, r28
    639c:	f1 1d       	adc	r31, r1
    639e:	01 90       	ld	r0, Z+
    63a0:	f0 81       	ld	r31, Z
    63a2:	e0 2d       	mov	r30, r0
    63a4:	00 84       	ldd	r0, Z+8	; 0x08
    63a6:	f1 85       	ldd	r31, Z+9	; 0x09
    63a8:	e0 2d       	mov	r30, r0
    63aa:	30 97       	sbiw	r30, 0x00	; 0
    63ac:	09 f0       	breq	.+2      	; 0x63b0 <udc_sof_notify+0x2e>
    63ae:	19 95       	eicall
    63b0:	cf 5f       	subi	r28, 0xFF	; 255
    63b2:	01 c0       	rjmp	.+2      	; 0x63b6 <udc_sof_notify+0x34>
    63b4:	c0 e0       	ldi	r28, 0x00	; 0
    63b6:	e0 91 d9 22 	lds	r30, 0x22D9
    63ba:	f0 91 da 22 	lds	r31, 0x22DA
    63be:	a0 81       	ld	r26, Z
    63c0:	b1 81       	ldd	r27, Z+1	; 0x01
    63c2:	14 96       	adiw	r26, 0x04	; 4
    63c4:	8c 91       	ld	r24, X
    63c6:	c8 17       	cp	r28, r24
    63c8:	10 f3       	brcs	.-60     	; 0x638e <udc_sof_notify+0xc>
    63ca:	cf 91       	pop	r28
    63cc:	08 95       	ret

000063ce <udc_process_setup>:
    63ce:	ef 92       	push	r14
    63d0:	ff 92       	push	r15
    63d2:	0f 93       	push	r16
    63d4:	1f 93       	push	r17
    63d6:	cf 93       	push	r28
    63d8:	df 93       	push	r29
    63da:	1f 92       	push	r1
    63dc:	cd b7       	in	r28, 0x3d	; 61
    63de:	de b7       	in	r29, 0x3e	; 62
    63e0:	10 92 da 25 	sts	0x25DA, r1
    63e4:	10 92 db 25 	sts	0x25DB, r1
    63e8:	10 92 dc 25 	sts	0x25DC, r1
    63ec:	10 92 dd 25 	sts	0x25DD, r1
    63f0:	10 92 de 25 	sts	0x25DE, r1
    63f4:	10 92 df 25 	sts	0x25DF, r1
    63f8:	20 91 d0 25 	lds	r18, 0x25D0
    63fc:	27 ff       	sbrs	r18, 7
    63fe:	07 c0       	rjmp	.+14     	; 0x640e <udc_process_setup+0x40>
    6400:	80 91 d6 25 	lds	r24, 0x25D6
    6404:	90 91 d7 25 	lds	r25, 0x25D7
    6408:	89 2b       	or	r24, r25
    640a:	09 f4       	brne	.+2      	; 0x640e <udc_process_setup+0x40>
    640c:	39 c2       	rjmp	.+1138   	; 0x6880 <udc_process_setup+0x4b2>
    640e:	82 2f       	mov	r24, r18
    6410:	80 76       	andi	r24, 0x60	; 96
    6412:	09 f0       	breq	.+2      	; 0x6416 <udc_process_setup+0x48>
    6414:	bd c1       	rjmp	.+890    	; 0x6790 <udc_process_setup+0x3c2>
    6416:	27 ff       	sbrs	r18, 7
    6418:	e7 c0       	rjmp	.+462    	; 0x65e8 <udc_process_setup+0x21a>
    641a:	80 91 d6 25 	lds	r24, 0x25D6
    641e:	90 91 d7 25 	lds	r25, 0x25D7
    6422:	00 97       	sbiw	r24, 0x00	; 0
    6424:	09 f4       	brne	.+2      	; 0x6428 <udc_process_setup+0x5a>
    6426:	b4 c1       	rjmp	.+872    	; 0x6790 <udc_process_setup+0x3c2>
    6428:	2f 71       	andi	r18, 0x1F	; 31
    642a:	09 f0       	breq	.+2      	; 0x642e <udc_process_setup+0x60>
    642c:	88 c0       	rjmp	.+272    	; 0x653e <udc_process_setup+0x170>
    642e:	20 91 d1 25 	lds	r18, 0x25D1
    6432:	26 30       	cpi	r18, 0x06	; 6
    6434:	69 f0       	breq	.+26     	; 0x6450 <udc_process_setup+0x82>
    6436:	28 30       	cpi	r18, 0x08	; 8
    6438:	09 f4       	brne	.+2      	; 0x643c <udc_process_setup+0x6e>
    643a:	79 c0       	rjmp	.+242    	; 0x652e <udc_process_setup+0x160>
    643c:	21 11       	cpse	r18, r1
    643e:	a8 c1       	rjmp	.+848    	; 0x6790 <udc_process_setup+0x3c2>
    6440:	02 97       	sbiw	r24, 0x02	; 2
    6442:	09 f0       	breq	.+2      	; 0x6446 <udc_process_setup+0x78>
    6444:	a5 c1       	rjmp	.+842    	; 0x6790 <udc_process_setup+0x3c2>
    6446:	62 e0       	ldi	r22, 0x02	; 2
    6448:	70 e0       	ldi	r23, 0x00	; 0
    644a:	8b ed       	ldi	r24, 0xDB	; 219
    644c:	92 e2       	ldi	r25, 0x22	; 34
    644e:	c9 c0       	rjmp	.+402    	; 0x65e2 <udc_process_setup+0x214>
    6450:	80 91 d2 25 	lds	r24, 0x25D2
    6454:	90 91 d3 25 	lds	r25, 0x25D3
    6458:	29 2f       	mov	r18, r25
    645a:	33 27       	eor	r19, r19
    645c:	22 30       	cpi	r18, 0x02	; 2
    645e:	31 05       	cpc	r19, r1
    6460:	79 f0       	breq	.+30     	; 0x6480 <udc_process_setup+0xb2>
    6462:	23 30       	cpi	r18, 0x03	; 3
    6464:	31 05       	cpc	r19, r1
    6466:	69 f1       	breq	.+90     	; 0x64c2 <udc_process_setup+0xf4>
    6468:	21 30       	cpi	r18, 0x01	; 1
    646a:	31 05       	cpc	r19, r1
    646c:	09 f0       	breq	.+2      	; 0x6470 <udc_process_setup+0xa2>
    646e:	90 c1       	rjmp	.+800    	; 0x6790 <udc_process_setup+0x3c2>
    6470:	80 91 4c 20 	lds	r24, 0x204C
    6474:	90 91 4d 20 	lds	r25, 0x204D
    6478:	dc 01       	movw	r26, r24
    647a:	6c 91       	ld	r22, X
    647c:	70 e0       	ldi	r23, 0x00	; 0
    647e:	44 c0       	rjmp	.+136    	; 0x6508 <udc_process_setup+0x13a>
    6480:	e0 91 4c 20 	lds	r30, 0x204C
    6484:	f0 91 4d 20 	lds	r31, 0x204D
    6488:	21 89       	ldd	r18, Z+17	; 0x11
    648a:	82 17       	cp	r24, r18
    648c:	08 f0       	brcs	.+2      	; 0x6490 <udc_process_setup+0xc2>
    648e:	80 c1       	rjmp	.+768    	; 0x6790 <udc_process_setup+0x3c2>
    6490:	99 27       	eor	r25, r25
    6492:	88 0f       	add	r24, r24
    6494:	99 1f       	adc	r25, r25
    6496:	88 0f       	add	r24, r24
    6498:	99 1f       	adc	r25, r25
    649a:	e0 91 4e 20 	lds	r30, 0x204E
    649e:	f0 91 4f 20 	lds	r31, 0x204F
    64a2:	e8 0f       	add	r30, r24
    64a4:	f9 1f       	adc	r31, r25
    64a6:	80 81       	ld	r24, Z
    64a8:	91 81       	ldd	r25, Z+1	; 0x01
    64aa:	fc 01       	movw	r30, r24
    64ac:	62 81       	ldd	r22, Z+2	; 0x02
    64ae:	73 81       	ldd	r23, Z+3	; 0x03
    64b0:	0e 94 ca 42 	call	0x8594	; 0x8594 <udd_set_setup_payload>
    64b4:	e0 91 d8 25 	lds	r30, 0x25D8
    64b8:	f0 91 d9 25 	lds	r31, 0x25D9
    64bc:	82 e0       	ldi	r24, 0x02	; 2
    64be:	81 83       	std	Z+1, r24	; 0x01
    64c0:	25 c0       	rjmp	.+74     	; 0x650c <udc_process_setup+0x13e>
    64c2:	99 27       	eor	r25, r25
    64c4:	81 30       	cpi	r24, 0x01	; 1
    64c6:	91 05       	cpc	r25, r1
    64c8:	29 f0       	breq	.+10     	; 0x64d4 <udc_process_setup+0x106>
    64ca:	40 f0       	brcs	.+16     	; 0x64dc <udc_process_setup+0x10e>
    64cc:	02 97       	sbiw	r24, 0x02	; 2
    64ce:	09 f0       	breq	.+2      	; 0x64d2 <udc_process_setup+0x104>
    64d0:	5f c1       	rjmp	.+702    	; 0x6790 <udc_process_setup+0x3c2>
    64d2:	ce c1       	rjmp	.+924    	; 0x6870 <udc_process_setup+0x4a2>
    64d4:	69 e0       	ldi	r22, 0x09	; 9
    64d6:	8a e2       	ldi	r24, 0x2A	; 42
    64d8:	90 e2       	ldi	r25, 0x20	; 32
    64da:	cd c1       	rjmp	.+922    	; 0x6876 <udc_process_setup+0x4a8>
    64dc:	64 e0       	ldi	r22, 0x04	; 4
    64de:	70 e0       	ldi	r23, 0x00	; 0
    64e0:	86 e2       	ldi	r24, 0x26	; 38
    64e2:	90 e2       	ldi	r25, 0x20	; 32
    64e4:	11 c0       	rjmp	.+34     	; 0x6508 <udc_process_setup+0x13a>
    64e6:	81 91       	ld	r24, Z+
    64e8:	8c 93       	st	X, r24
    64ea:	11 96       	adiw	r26, 0x01	; 1
    64ec:	1c 92       	st	X, r1
    64ee:	11 97       	sbiw	r26, 0x01	; 1
    64f0:	12 96       	adiw	r26, 0x02	; 2
    64f2:	8e 2f       	mov	r24, r30
    64f4:	82 1b       	sub	r24, r18
    64f6:	86 17       	cp	r24, r22
    64f8:	b0 f3       	brcs	.-20     	; 0x64e6 <udc_process_setup+0x118>
    64fa:	66 0f       	add	r22, r22
    64fc:	6e 5f       	subi	r22, 0xFE	; 254
    64fe:	60 93 38 20 	sts	0x2038, r22
    6502:	70 e0       	ldi	r23, 0x00	; 0
    6504:	88 e3       	ldi	r24, 0x38	; 56
    6506:	90 e2       	ldi	r25, 0x20	; 32
    6508:	0e 94 ca 42 	call	0x8594	; 0x8594 <udd_set_setup_payload>
    650c:	80 91 d6 25 	lds	r24, 0x25D6
    6510:	90 91 d7 25 	lds	r25, 0x25D7
    6514:	20 91 da 25 	lds	r18, 0x25DA
    6518:	30 91 db 25 	lds	r19, 0x25DB
    651c:	82 17       	cp	r24, r18
    651e:	93 07       	cpc	r25, r19
    6520:	08 f0       	brcs	.+2      	; 0x6524 <udc_process_setup+0x156>
    6522:	34 c1       	rjmp	.+616    	; 0x678c <udc_process_setup+0x3be>
    6524:	80 93 da 25 	sts	0x25DA, r24
    6528:	90 93 db 25 	sts	0x25DB, r25
    652c:	2f c1       	rjmp	.+606    	; 0x678c <udc_process_setup+0x3be>
    652e:	01 97       	sbiw	r24, 0x01	; 1
    6530:	09 f0       	breq	.+2      	; 0x6534 <udc_process_setup+0x166>
    6532:	2e c1       	rjmp	.+604    	; 0x6790 <udc_process_setup+0x3c2>
    6534:	61 e0       	ldi	r22, 0x01	; 1
    6536:	70 e0       	ldi	r23, 0x00	; 0
    6538:	88 ed       	ldi	r24, 0xD8	; 216
    653a:	92 e2       	ldi	r25, 0x22	; 34
    653c:	52 c0       	rjmp	.+164    	; 0x65e2 <udc_process_setup+0x214>
    653e:	21 30       	cpi	r18, 0x01	; 1
    6540:	d1 f5       	brne	.+116    	; 0x65b6 <udc_process_setup+0x1e8>
    6542:	20 91 d1 25 	lds	r18, 0x25D1
    6546:	2a 30       	cpi	r18, 0x0A	; 10
    6548:	09 f0       	breq	.+2      	; 0x654c <udc_process_setup+0x17e>
    654a:	22 c1       	rjmp	.+580    	; 0x6790 <udc_process_setup+0x3c2>
    654c:	01 97       	sbiw	r24, 0x01	; 1
    654e:	09 f0       	breq	.+2      	; 0x6552 <udc_process_setup+0x184>
    6550:	1f c1       	rjmp	.+574    	; 0x6790 <udc_process_setup+0x3c2>
    6552:	80 91 d8 22 	lds	r24, 0x22D8
    6556:	88 23       	and	r24, r24
    6558:	09 f4       	brne	.+2      	; 0x655c <udc_process_setup+0x18e>
    655a:	1a c1       	rjmp	.+564    	; 0x6790 <udc_process_setup+0x3c2>
    655c:	e0 90 d4 25 	lds	r14, 0x25D4
    6560:	f0 90 d5 25 	lds	r15, 0x25D5
    6564:	00 91 d9 22 	lds	r16, 0x22D9
    6568:	10 91 da 22 	lds	r17, 0x22DA
    656c:	d8 01       	movw	r26, r16
    656e:	ed 91       	ld	r30, X+
    6570:	fc 91       	ld	r31, X
    6572:	84 81       	ldd	r24, Z+4	; 0x04
    6574:	e8 16       	cp	r14, r24
    6576:	08 f0       	brcs	.+2      	; 0x657a <udc_process_setup+0x1ac>
    6578:	0b c1       	rjmp	.+534    	; 0x6790 <udc_process_setup+0x3c2>
    657a:	60 e0       	ldi	r22, 0x00	; 0
    657c:	8e 2d       	mov	r24, r14
    657e:	19 de       	rcall	.-974    	; 0x61b2 <udc_update_iface_desc>
    6580:	88 23       	and	r24, r24
    6582:	09 f4       	brne	.+2      	; 0x6586 <udc_process_setup+0x1b8>
    6584:	05 c1       	rjmp	.+522    	; 0x6790 <udc_process_setup+0x3c2>
    6586:	ff 24       	eor	r15, r15
    6588:	ee 0c       	add	r14, r14
    658a:	ff 1c       	adc	r15, r15
    658c:	d8 01       	movw	r26, r16
    658e:	12 96       	adiw	r26, 0x02	; 2
    6590:	ed 91       	ld	r30, X+
    6592:	fc 91       	ld	r31, X
    6594:	13 97       	sbiw	r26, 0x03	; 3
    6596:	ee 0d       	add	r30, r14
    6598:	ff 1d       	adc	r31, r15
    659a:	01 90       	ld	r0, Z+
    659c:	f0 81       	ld	r31, Z
    659e:	e0 2d       	mov	r30, r0
    65a0:	06 80       	ldd	r0, Z+6	; 0x06
    65a2:	f7 81       	ldd	r31, Z+7	; 0x07
    65a4:	e0 2d       	mov	r30, r0
    65a6:	19 95       	eicall
    65a8:	80 93 dd 22 	sts	0x22DD, r24
    65ac:	61 e0       	ldi	r22, 0x01	; 1
    65ae:	70 e0       	ldi	r23, 0x00	; 0
    65b0:	8d ed       	ldi	r24, 0xDD	; 221
    65b2:	92 e2       	ldi	r25, 0x22	; 34
    65b4:	16 c0       	rjmp	.+44     	; 0x65e2 <udc_process_setup+0x214>
    65b6:	22 30       	cpi	r18, 0x02	; 2
    65b8:	09 f0       	breq	.+2      	; 0x65bc <udc_process_setup+0x1ee>
    65ba:	ea c0       	rjmp	.+468    	; 0x6790 <udc_process_setup+0x3c2>
    65bc:	20 91 d1 25 	lds	r18, 0x25D1
    65c0:	21 11       	cpse	r18, r1
    65c2:	e6 c0       	rjmp	.+460    	; 0x6790 <udc_process_setup+0x3c2>
    65c4:	02 97       	sbiw	r24, 0x02	; 2
    65c6:	09 f0       	breq	.+2      	; 0x65ca <udc_process_setup+0x1fc>
    65c8:	e3 c0       	rjmp	.+454    	; 0x6790 <udc_process_setup+0x3c2>
    65ca:	80 91 d4 25 	lds	r24, 0x25D4
    65ce:	0e 94 39 43 	call	0x8672	; 0x8672 <udd_ep_is_halted>
    65d2:	80 93 de 22 	sts	0x22DE, r24
    65d6:	10 92 df 22 	sts	0x22DF, r1
    65da:	62 e0       	ldi	r22, 0x02	; 2
    65dc:	70 e0       	ldi	r23, 0x00	; 0
    65de:	8e ed       	ldi	r24, 0xDE	; 222
    65e0:	92 e2       	ldi	r25, 0x22	; 34
    65e2:	0e 94 ca 42 	call	0x8594	; 0x8594 <udd_set_setup_payload>
    65e6:	d2 c0       	rjmp	.+420    	; 0x678c <udc_process_setup+0x3be>
    65e8:	2f 71       	andi	r18, 0x1F	; 31
    65ea:	09 f0       	breq	.+2      	; 0x65ee <udc_process_setup+0x220>
    65ec:	7f c0       	rjmp	.+254    	; 0x66ec <udc_process_setup+0x31e>
    65ee:	80 91 d1 25 	lds	r24, 0x25D1
    65f2:	83 30       	cpi	r24, 0x03	; 3
    65f4:	09 f4       	brne	.+2      	; 0x65f8 <udc_process_setup+0x22a>
    65f6:	cc c0       	rjmp	.+408    	; 0x6790 <udc_process_setup+0x3c2>
    65f8:	20 f4       	brcc	.+8      	; 0x6602 <udc_process_setup+0x234>
    65fa:	81 30       	cpi	r24, 0x01	; 1
    65fc:	09 f0       	breq	.+2      	; 0x6600 <udc_process_setup+0x232>
    65fe:	c8 c0       	rjmp	.+400    	; 0x6790 <udc_process_setup+0x3c2>
    6600:	14 c0       	rjmp	.+40     	; 0x662a <udc_process_setup+0x25c>
    6602:	85 30       	cpi	r24, 0x05	; 5
    6604:	21 f0       	breq	.+8      	; 0x660e <udc_process_setup+0x240>
    6606:	89 30       	cpi	r24, 0x09	; 9
    6608:	09 f0       	breq	.+2      	; 0x660c <udc_process_setup+0x23e>
    660a:	c2 c0       	rjmp	.+388    	; 0x6790 <udc_process_setup+0x3c2>
    660c:	26 c0       	rjmp	.+76     	; 0x665a <udc_process_setup+0x28c>
    660e:	80 91 d6 25 	lds	r24, 0x25D6
    6612:	90 91 d7 25 	lds	r25, 0x25D7
    6616:	89 2b       	or	r24, r25
    6618:	09 f0       	breq	.+2      	; 0x661c <udc_process_setup+0x24e>
    661a:	ba c0       	rjmp	.+372    	; 0x6790 <udc_process_setup+0x3c2>
    661c:	84 ed       	ldi	r24, 0xD4	; 212
    661e:	90 e3       	ldi	r25, 0x30	; 48
    6620:	80 93 dc 25 	sts	0x25DC, r24
    6624:	90 93 dd 25 	sts	0x25DD, r25
    6628:	b1 c0       	rjmp	.+354    	; 0x678c <udc_process_setup+0x3be>
    662a:	80 91 d6 25 	lds	r24, 0x25D6
    662e:	90 91 d7 25 	lds	r25, 0x25D7
    6632:	89 2b       	or	r24, r25
    6634:	09 f0       	breq	.+2      	; 0x6638 <udc_process_setup+0x26a>
    6636:	ac c0       	rjmp	.+344    	; 0x6790 <udc_process_setup+0x3c2>
    6638:	80 91 d2 25 	lds	r24, 0x25D2
    663c:	90 91 d3 25 	lds	r25, 0x25D3
    6640:	01 97       	sbiw	r24, 0x01	; 1
    6642:	09 f0       	breq	.+2      	; 0x6646 <udc_process_setup+0x278>
    6644:	a5 c0       	rjmp	.+330    	; 0x6790 <udc_process_setup+0x3c2>
    6646:	80 91 db 22 	lds	r24, 0x22DB
    664a:	90 91 dc 22 	lds	r25, 0x22DC
    664e:	8d 7f       	andi	r24, 0xFD	; 253
    6650:	80 93 db 22 	sts	0x22DB, r24
    6654:	90 93 dc 22 	sts	0x22DC, r25
    6658:	99 c0       	rjmp	.+306    	; 0x678c <udc_process_setup+0x3be>
    665a:	80 91 d6 25 	lds	r24, 0x25D6
    665e:	90 91 d7 25 	lds	r25, 0x25D7
    6662:	89 2b       	or	r24, r25
    6664:	09 f0       	breq	.+2      	; 0x6668 <udc_process_setup+0x29a>
    6666:	94 c0       	rjmp	.+296    	; 0x6790 <udc_process_setup+0x3c2>
    6668:	0e 94 be 42 	call	0x857c	; 0x857c <udd_getaddress>
    666c:	88 23       	and	r24, r24
    666e:	09 f4       	brne	.+2      	; 0x6672 <udc_process_setup+0x2a4>
    6670:	8f c0       	rjmp	.+286    	; 0x6790 <udc_process_setup+0x3c2>
    6672:	80 91 d2 25 	lds	r24, 0x25D2
    6676:	90 91 d3 25 	lds	r25, 0x25D3
    667a:	99 27       	eor	r25, r25
    667c:	e0 91 4c 20 	lds	r30, 0x204C
    6680:	f0 91 4d 20 	lds	r31, 0x204D
    6684:	21 89       	ldd	r18, Z+17	; 0x11
    6686:	30 e0       	ldi	r19, 0x00	; 0
    6688:	28 17       	cp	r18, r24
    668a:	39 07       	cpc	r19, r25
    668c:	08 f4       	brcc	.+2      	; 0x6690 <udc_process_setup+0x2c2>
    668e:	80 c0       	rjmp	.+256    	; 0x6790 <udc_process_setup+0x3c2>
    6690:	55 de       	rcall	.-854    	; 0x633c <udc_reset>
    6692:	80 91 d2 25 	lds	r24, 0x25D2
    6696:	90 91 d3 25 	lds	r25, 0x25D3
    669a:	80 93 d8 22 	sts	0x22D8, r24
    669e:	88 23       	and	r24, r24
    66a0:	09 f4       	brne	.+2      	; 0x66a4 <udc_process_setup+0x2d6>
    66a2:	74 c0       	rjmp	.+232    	; 0x678c <udc_process_setup+0x3be>
    66a4:	99 27       	eor	r25, r25
    66a6:	01 97       	sbiw	r24, 0x01	; 1
    66a8:	88 0f       	add	r24, r24
    66aa:	99 1f       	adc	r25, r25
    66ac:	88 0f       	add	r24, r24
    66ae:	99 1f       	adc	r25, r25
    66b0:	20 91 4e 20 	lds	r18, 0x204E
    66b4:	30 91 4f 20 	lds	r19, 0x204F
    66b8:	28 0f       	add	r18, r24
    66ba:	39 1f       	adc	r19, r25
    66bc:	20 93 d9 22 	sts	0x22D9, r18
    66c0:	30 93 da 22 	sts	0x22DA, r19
    66c4:	10 e0       	ldi	r17, 0x00	; 0
    66c6:	07 c0       	rjmp	.+14     	; 0x66d6 <udc_process_setup+0x308>
    66c8:	60 e0       	ldi	r22, 0x00	; 0
    66ca:	81 2f       	mov	r24, r17
    66cc:	01 de       	rcall	.-1022   	; 0x62d0 <udc_iface_enable>
    66ce:	88 23       	and	r24, r24
    66d0:	09 f4       	brne	.+2      	; 0x66d4 <udc_process_setup+0x306>
    66d2:	5e c0       	rjmp	.+188    	; 0x6790 <udc_process_setup+0x3c2>
    66d4:	1f 5f       	subi	r17, 0xFF	; 255
    66d6:	e0 91 d9 22 	lds	r30, 0x22D9
    66da:	f0 91 da 22 	lds	r31, 0x22DA
    66de:	01 90       	ld	r0, Z+
    66e0:	f0 81       	ld	r31, Z
    66e2:	e0 2d       	mov	r30, r0
    66e4:	84 81       	ldd	r24, Z+4	; 0x04
    66e6:	18 17       	cp	r17, r24
    66e8:	78 f3       	brcs	.-34     	; 0x66c8 <udc_process_setup+0x2fa>
    66ea:	50 c0       	rjmp	.+160    	; 0x678c <udc_process_setup+0x3be>
    66ec:	21 30       	cpi	r18, 0x01	; 1
    66ee:	f1 f4       	brne	.+60     	; 0x672c <udc_process_setup+0x35e>
    66f0:	80 91 d1 25 	lds	r24, 0x25D1
    66f4:	8b 30       	cpi	r24, 0x0B	; 11
    66f6:	09 f0       	breq	.+2      	; 0x66fa <udc_process_setup+0x32c>
    66f8:	4b c0       	rjmp	.+150    	; 0x6790 <udc_process_setup+0x3c2>
    66fa:	80 91 d6 25 	lds	r24, 0x25D6
    66fe:	90 91 d7 25 	lds	r25, 0x25D7
    6702:	89 2b       	or	r24, r25
    6704:	09 f0       	breq	.+2      	; 0x6708 <udc_process_setup+0x33a>
    6706:	44 c0       	rjmp	.+136    	; 0x6790 <udc_process_setup+0x3c2>
    6708:	80 91 d8 22 	lds	r24, 0x22D8
    670c:	88 23       	and	r24, r24
    670e:	09 f4       	brne	.+2      	; 0x6712 <udc_process_setup+0x344>
    6710:	3f c0       	rjmp	.+126    	; 0x6790 <udc_process_setup+0x3c2>
    6712:	10 91 d4 25 	lds	r17, 0x25D4
    6716:	60 91 d2 25 	lds	r22, 0x25D2
    671a:	81 2f       	mov	r24, r17
    671c:	69 83       	std	Y+1, r22	; 0x01
    671e:	9b dd       	rcall	.-1226   	; 0x6256 <udc_iface_disable>
    6720:	69 81       	ldd	r22, Y+1	; 0x01
    6722:	88 23       	and	r24, r24
    6724:	a9 f1       	breq	.+106    	; 0x6790 <udc_process_setup+0x3c2>
    6726:	81 2f       	mov	r24, r17
    6728:	d3 dd       	rcall	.-1114   	; 0x62d0 <udc_iface_enable>
    672a:	2e c0       	rjmp	.+92     	; 0x6788 <udc_process_setup+0x3ba>
    672c:	22 30       	cpi	r18, 0x02	; 2
    672e:	81 f5       	brne	.+96     	; 0x6790 <udc_process_setup+0x3c2>
    6730:	80 91 d1 25 	lds	r24, 0x25D1
    6734:	81 30       	cpi	r24, 0x01	; 1
    6736:	19 f0       	breq	.+6      	; 0x673e <udc_process_setup+0x370>
    6738:	83 30       	cpi	r24, 0x03	; 3
    673a:	51 f5       	brne	.+84     	; 0x6790 <udc_process_setup+0x3c2>
    673c:	11 c0       	rjmp	.+34     	; 0x6760 <udc_process_setup+0x392>
    673e:	80 91 d6 25 	lds	r24, 0x25D6
    6742:	90 91 d7 25 	lds	r25, 0x25D7
    6746:	89 2b       	or	r24, r25
    6748:	19 f5       	brne	.+70     	; 0x6790 <udc_process_setup+0x3c2>
    674a:	80 91 d2 25 	lds	r24, 0x25D2
    674e:	90 91 d3 25 	lds	r25, 0x25D3
    6752:	89 2b       	or	r24, r25
    6754:	e9 f4       	brne	.+58     	; 0x6790 <udc_process_setup+0x3c2>
    6756:	80 91 d4 25 	lds	r24, 0x25D4
    675a:	0e 94 40 43 	call	0x8680	; 0x8680 <udd_ep_clear_halt>
    675e:	14 c0       	rjmp	.+40     	; 0x6788 <udc_process_setup+0x3ba>
    6760:	80 91 d6 25 	lds	r24, 0x25D6
    6764:	90 91 d7 25 	lds	r25, 0x25D7
    6768:	89 2b       	or	r24, r25
    676a:	91 f4       	brne	.+36     	; 0x6790 <udc_process_setup+0x3c2>
    676c:	80 91 d2 25 	lds	r24, 0x25D2
    6770:	90 91 d3 25 	lds	r25, 0x25D3
    6774:	89 2b       	or	r24, r25
    6776:	61 f4       	brne	.+24     	; 0x6790 <udc_process_setup+0x3c2>
    6778:	80 91 d4 25 	lds	r24, 0x25D4
    677c:	0e 94 dc 43 	call	0x87b8	; 0x87b8 <udd_ep_abort>
    6780:	80 91 d4 25 	lds	r24, 0x25D4
    6784:	0e 94 08 44 	call	0x8810	; 0x8810 <udd_ep_set_halt>
    6788:	88 23       	and	r24, r24
    678a:	11 f0       	breq	.+4      	; 0x6790 <udc_process_setup+0x3c2>
    678c:	81 e0       	ldi	r24, 0x01	; 1
    678e:	79 c0       	rjmp	.+242    	; 0x6882 <udc_process_setup+0x4b4>
    6790:	80 91 d0 25 	lds	r24, 0x25D0
    6794:	8f 71       	andi	r24, 0x1F	; 31
    6796:	81 30       	cpi	r24, 0x01	; 1
    6798:	b9 f5       	brne	.+110    	; 0x6808 <udc_process_setup+0x43a>
    679a:	80 91 d8 22 	lds	r24, 0x22D8
    679e:	88 23       	and	r24, r24
    67a0:	99 f1       	breq	.+102    	; 0x6808 <udc_process_setup+0x43a>
    67a2:	e0 90 d4 25 	lds	r14, 0x25D4
    67a6:	f0 90 d5 25 	lds	r15, 0x25D5
    67aa:	00 91 d9 22 	lds	r16, 0x22D9
    67ae:	10 91 da 22 	lds	r17, 0x22DA
    67b2:	d8 01       	movw	r26, r16
    67b4:	ed 91       	ld	r30, X+
    67b6:	fc 91       	ld	r31, X
    67b8:	84 81       	ldd	r24, Z+4	; 0x04
    67ba:	e8 16       	cp	r14, r24
    67bc:	28 f5       	brcc	.+74     	; 0x6808 <udc_process_setup+0x43a>
    67be:	60 e0       	ldi	r22, 0x00	; 0
    67c0:	8e 2d       	mov	r24, r14
    67c2:	f7 dc       	rcall	.-1554   	; 0x61b2 <udc_update_iface_desc>
    67c4:	88 23       	and	r24, r24
    67c6:	01 f1       	breq	.+64     	; 0x6808 <udc_process_setup+0x43a>
    67c8:	c7 01       	movw	r24, r14
    67ca:	99 27       	eor	r25, r25
    67cc:	88 0f       	add	r24, r24
    67ce:	99 1f       	adc	r25, r25
    67d0:	d8 01       	movw	r26, r16
    67d2:	12 96       	adiw	r26, 0x02	; 2
    67d4:	ed 91       	ld	r30, X+
    67d6:	fc 91       	ld	r31, X
    67d8:	13 97       	sbiw	r26, 0x03	; 3
    67da:	e8 0f       	add	r30, r24
    67dc:	f9 1f       	adc	r31, r25
    67de:	00 81       	ld	r16, Z
    67e0:	11 81       	ldd	r17, Z+1	; 0x01
    67e2:	d8 01       	movw	r26, r16
    67e4:	16 96       	adiw	r26, 0x06	; 6
    67e6:	ed 91       	ld	r30, X+
    67e8:	fc 91       	ld	r31, X
    67ea:	17 97       	sbiw	r26, 0x07	; 7
    67ec:	19 95       	eicall
    67ee:	68 2f       	mov	r22, r24
    67f0:	8e 2d       	mov	r24, r14
    67f2:	df dc       	rcall	.-1602   	; 0x61b2 <udc_update_iface_desc>
    67f4:	88 23       	and	r24, r24
    67f6:	41 f0       	breq	.+16     	; 0x6808 <udc_process_setup+0x43a>
    67f8:	d8 01       	movw	r26, r16
    67fa:	14 96       	adiw	r26, 0x04	; 4
    67fc:	ed 91       	ld	r30, X+
    67fe:	fc 91       	ld	r31, X
    6800:	15 97       	sbiw	r26, 0x05	; 5
    6802:	19 95       	eicall
    6804:	81 11       	cpse	r24, r1
    6806:	c2 cf       	rjmp	.-124    	; 0x678c <udc_process_setup+0x3be>
    6808:	80 91 d0 25 	lds	r24, 0x25D0
    680c:	8f 71       	andi	r24, 0x1F	; 31
    680e:	82 30       	cpi	r24, 0x02	; 2
    6810:	b9 f5       	brne	.+110    	; 0x6880 <udc_process_setup+0x4b2>
    6812:	80 91 d8 22 	lds	r24, 0x22D8
    6816:	88 23       	and	r24, r24
    6818:	99 f1       	breq	.+102    	; 0x6880 <udc_process_setup+0x4b2>
    681a:	10 e0       	ldi	r17, 0x00	; 0
    681c:	1e c0       	rjmp	.+60     	; 0x685a <udc_process_setup+0x48c>
    681e:	92 81       	ldd	r25, Z+2	; 0x02
    6820:	83 81       	ldd	r24, Z+3	; 0x03
    6822:	e9 2f       	mov	r30, r25
    6824:	f8 2f       	mov	r31, r24
    6826:	e1 0f       	add	r30, r17
    6828:	f1 1d       	adc	r31, r1
    682a:	e1 0f       	add	r30, r17
    682c:	f1 1d       	adc	r31, r1
    682e:	e0 80       	ld	r14, Z
    6830:	f1 80       	ldd	r15, Z+1	; 0x01
    6832:	d7 01       	movw	r26, r14
    6834:	16 96       	adiw	r26, 0x06	; 6
    6836:	ed 91       	ld	r30, X+
    6838:	fc 91       	ld	r31, X
    683a:	17 97       	sbiw	r26, 0x07	; 7
    683c:	19 95       	eicall
    683e:	68 2f       	mov	r22, r24
    6840:	81 2f       	mov	r24, r17
    6842:	b7 dc       	rcall	.-1682   	; 0x61b2 <udc_update_iface_desc>
    6844:	88 23       	and	r24, r24
    6846:	e1 f0       	breq	.+56     	; 0x6880 <udc_process_setup+0x4b2>
    6848:	d7 01       	movw	r26, r14
    684a:	14 96       	adiw	r26, 0x04	; 4
    684c:	ed 91       	ld	r30, X+
    684e:	fc 91       	ld	r31, X
    6850:	15 97       	sbiw	r26, 0x05	; 5
    6852:	19 95       	eicall
    6854:	81 11       	cpse	r24, r1
    6856:	9a cf       	rjmp	.-204    	; 0x678c <udc_process_setup+0x3be>
    6858:	1f 5f       	subi	r17, 0xFF	; 255
    685a:	e0 91 d9 22 	lds	r30, 0x22D9
    685e:	f0 91 da 22 	lds	r31, 0x22DA
    6862:	a0 81       	ld	r26, Z
    6864:	b1 81       	ldd	r27, Z+1	; 0x01
    6866:	14 96       	adiw	r26, 0x04	; 4
    6868:	8c 91       	ld	r24, X
    686a:	18 17       	cp	r17, r24
    686c:	c0 f2       	brcs	.-80     	; 0x681e <udc_process_setup+0x450>
    686e:	08 c0       	rjmp	.+16     	; 0x6880 <udc_process_setup+0x4b2>
    6870:	63 e0       	ldi	r22, 0x03	; 3
    6872:	84 e3       	ldi	r24, 0x34	; 52
    6874:	90 e2       	ldi	r25, 0x20	; 32
    6876:	28 2f       	mov	r18, r24
    6878:	aa e3       	ldi	r26, 0x3A	; 58
    687a:	b0 e2       	ldi	r27, 0x20	; 32
    687c:	fc 01       	movw	r30, r24
    687e:	33 ce       	rjmp	.-922    	; 0x64e6 <udc_process_setup+0x118>
    6880:	80 e0       	ldi	r24, 0x00	; 0
    6882:	0f 90       	pop	r0
    6884:	df 91       	pop	r29
    6886:	cf 91       	pop	r28
    6888:	1f 91       	pop	r17
    688a:	0f 91       	pop	r16
    688c:	ff 90       	pop	r15
    688e:	ef 90       	pop	r14
    6890:	08 95       	ret

00006892 <ccp_write_io>:

	PUBLIC_FUNCTION(ccp_write_io)

#if defined(__GNUC__)

	out     RAMPZ, r1               // Reset bits 23:16 of Z
    6892:	1b be       	out	0x3b, r1	; 59
	movw    r30, r24                // Load addr into Z
    6894:	fc 01       	movw	r30, r24
	ldi     r18, CCP_IOREG          // Load magic CCP value
    6896:	28 ed       	ldi	r18, 0xD8	; 216
	out     CCP, r18                // Start CCP handshake
    6898:	24 bf       	out	0x34, r18	; 52
	st      Z, r22                  // Write value to I/O register
    689a:	60 83       	st	Z, r22
	ret                             // Return to caller
    689c:	08 95       	ret

0000689e <nvm_wait_until_ready>:
    689e:	80 91 cf 01 	lds	r24, 0x01CF
    68a2:	87 fd       	sbrc	r24, 7
    68a4:	fc cf       	rjmp	.-8      	; 0x689e <nvm_wait_until_ready>
    68a6:	08 95       	ret

000068a8 <nvm_eeprom_read_buffer>:
    68a8:	ef 92       	push	r14
    68aa:	ff 92       	push	r15
    68ac:	0f 93       	push	r16
    68ae:	1f 93       	push	r17
    68b0:	cf 93       	push	r28
    68b2:	df 93       	push	r29
    68b4:	00 d0       	rcall	.+0      	; 0x68b6 <nvm_eeprom_read_buffer+0xe>
    68b6:	1f 92       	push	r1
    68b8:	cd b7       	in	r28, 0x3d	; 61
    68ba:	de b7       	in	r29, 0x3e	; 62
    68bc:	8c 01       	movw	r16, r24
    68be:	cb 01       	movw	r24, r22
    68c0:	4b 83       	std	Y+3, r20	; 0x03
    68c2:	5c 83       	std	Y+4, r21	; 0x04
    68c4:	69 83       	std	Y+1, r22	; 0x01
    68c6:	9a 83       	std	Y+2, r25	; 0x02
    68c8:	ea df       	rcall	.-44     	; 0x689e <nvm_wait_until_ready>
    68ca:	8c ec       	ldi	r24, 0xCC	; 204
    68cc:	e8 2e       	mov	r14, r24
    68ce:	ff 24       	eor	r15, r15
    68d0:	f3 94       	inc	r15
    68d2:	f7 01       	movw	r30, r14
    68d4:	20 81       	ld	r18, Z
    68d6:	28 60       	ori	r18, 0x08	; 8
    68d8:	20 83       	st	Z, r18
    68da:	98 01       	movw	r18, r16
    68dc:	30 5f       	subi	r19, 0xF0	; 240
    68de:	4b 81       	ldd	r20, Y+3	; 0x03
    68e0:	5c 81       	ldd	r21, Y+4	; 0x04
    68e2:	b9 01       	movw	r22, r18
    68e4:	89 81       	ldd	r24, Y+1	; 0x01
    68e6:	9a 81       	ldd	r25, Y+2	; 0x02
    68e8:	0e 94 2a 49 	call	0x9254	; 0x9254 <memcpy>
    68ec:	f7 01       	movw	r30, r14
    68ee:	80 81       	ld	r24, Z
    68f0:	87 7f       	andi	r24, 0xF7	; 247
    68f2:	80 83       	st	Z, r24
    68f4:	24 96       	adiw	r28, 0x04	; 4
    68f6:	cd bf       	out	0x3d, r28	; 61
    68f8:	de bf       	out	0x3e, r29	; 62
    68fa:	df 91       	pop	r29
    68fc:	cf 91       	pop	r28
    68fe:	1f 91       	pop	r17
    6900:	0f 91       	pop	r16
    6902:	ff 90       	pop	r15
    6904:	ef 90       	pop	r14
    6906:	08 95       	ret

00006908 <nvm_flash_read_buffer>:
    6908:	ef 92       	push	r14
    690a:	ff 92       	push	r15
    690c:	0f 93       	push	r16
    690e:	1f 93       	push	r17
    6910:	cf 93       	push	r28
    6912:	df 93       	push	r29
    6914:	00 d0       	rcall	.+0      	; 0x6916 <nvm_flash_read_buffer+0xe>
    6916:	1f 92       	push	r1
    6918:	cd b7       	in	r28, 0x3d	; 61
    691a:	de b7       	in	r29, 0x3e	; 62
    691c:	7a 01       	movw	r14, r20
    691e:	89 01       	movw	r16, r18
    6920:	69 83       	std	Y+1, r22	; 0x01
    6922:	7a 83       	std	Y+2, r23	; 0x02
    6924:	8b 83       	std	Y+3, r24	; 0x03
    6926:	9c 83       	std	Y+4, r25	; 0x04
    6928:	ba df       	rcall	.-140    	; 0x689e <nvm_wait_until_ready>
    692a:	a7 01       	movw	r20, r14
    692c:	40 0f       	add	r20, r16
    692e:	51 1f       	adc	r21, r17
    6930:	69 81       	ldd	r22, Y+1	; 0x01
    6932:	06 2f       	mov	r16, r22
    6934:	7a 81       	ldd	r23, Y+2	; 0x02
    6936:	17 2f       	mov	r17, r23
    6938:	8b 81       	ldd	r24, Y+3	; 0x03
    693a:	28 2f       	mov	r18, r24
    693c:	9c 81       	ldd	r25, Y+4	; 0x04
    693e:	39 2f       	mov	r19, r25
    6940:	0a c0       	rjmp	.+20     	; 0x6956 <nvm_flash_read_buffer+0x4e>
    6942:	2b bf       	out	0x3b, r18	; 59
    6944:	f8 01       	movw	r30, r16
    6946:	87 91       	elpm	r24, Z+
    6948:	f7 01       	movw	r30, r14
    694a:	81 93       	st	Z+, r24
    694c:	7f 01       	movw	r14, r30
    694e:	0f 5f       	subi	r16, 0xFF	; 255
    6950:	1f 4f       	sbci	r17, 0xFF	; 255
    6952:	2f 4f       	sbci	r18, 0xFF	; 255
    6954:	3f 4f       	sbci	r19, 0xFF	; 255
    6956:	e4 16       	cp	r14, r20
    6958:	f5 06       	cpc	r15, r21
    695a:	99 f7       	brne	.-26     	; 0x6942 <nvm_flash_read_buffer+0x3a>
    695c:	24 96       	adiw	r28, 0x04	; 4
    695e:	cd bf       	out	0x3d, r28	; 61
    6960:	de bf       	out	0x3e, r29	; 62
    6962:	df 91       	pop	r29
    6964:	cf 91       	pop	r28
    6966:	1f 91       	pop	r17
    6968:	0f 91       	pop	r16
    696a:	ff 90       	pop	r15
    696c:	ef 90       	pop	r14
    696e:	08 95       	ret

00006970 <nvm_read_byte>:
#endif

#ifndef __DOXYGEN__
	PUBLIC_FUNCTION(nvm_read_byte)
#if defined(__GNUC__)
	lds r20, NVM_CMD          ; Store NVM command register
    6970:	40 91 ca 01 	lds	r20, 0x01CA
	mov ZL, r22               ; Load byte index into low byte of Z.
    6974:	e6 2f       	mov	r30, r22
	mov ZH, r23               ; Load high byte into Z.
    6976:	f7 2f       	mov	r31, r23
	sts NVM_CMD, r24          ; Load prepared command into NVM Command register.
    6978:	80 93 ca 01 	sts	0x01CA, r24
	lpm r24, Z                ; Perform an LPM to read out byte
    697c:	84 91       	lpm	r24, Z
	sts NVM_CMD, r20          ; Restore NVM command register
    697e:	40 93 ca 01 	sts	0x01CA, r20
	sts NVM_CMD, r16          ; Load prepared command into NVM Command register.
	lpm r16, Z                ; Perform an LPM to read out byte
	sts NVM_CMD, r20          ; Restore NVM command register
#endif

	ret
    6982:	08 95       	ret

00006984 <__portable_avr_delay_cycles.constprop.0>:
    6984:	80 e0       	ldi	r24, 0x00	; 0
    6986:	90 e0       	ldi	r25, 0x00	; 0
    6988:	01 96       	adiw	r24, 0x01	; 1
    698a:	80 32       	cpi	r24, 0x20	; 32
    698c:	23 e0       	ldi	r18, 0x03	; 3
    698e:	92 07       	cpc	r25, r18
    6990:	d9 f7       	brne	.-10     	; 0x6988 <__portable_avr_delay_cycles.constprop.0+0x4>
    6992:	08 95       	ret

00006994 <rtc_set_time>:
    6994:	10 92 20 04 	sts	0x0420, r1
    6998:	20 91 21 04 	lds	r18, 0x0421
    699c:	20 fd       	sbrc	r18, 0
    699e:	fc cf       	rjmp	.-8      	; 0x6998 <rtc_set_time+0x4>
    69a0:	60 93 24 04 	sts	0x0424, r22
    69a4:	70 93 25 04 	sts	0x0425, r23
    69a8:	80 93 26 04 	sts	0x0426, r24
    69ac:	90 93 27 04 	sts	0x0427, r25
    69b0:	81 e0       	ldi	r24, 0x01	; 1
    69b2:	80 93 20 04 	sts	0x0420, r24
    69b6:	08 95       	ret

000069b8 <rtc_get_time>:
    69b8:	0f 93       	push	r16
    69ba:	1f 93       	push	r17
    69bc:	80 e1       	ldi	r24, 0x10	; 16
    69be:	80 93 21 04 	sts	0x0421, r24
    69c2:	80 91 21 04 	lds	r24, 0x0421
    69c6:	84 fd       	sbrc	r24, 4
    69c8:	fc cf       	rjmp	.-8      	; 0x69c2 <rtc_get_time+0xa>
    69ca:	00 91 24 04 	lds	r16, 0x0424
    69ce:	10 91 25 04 	lds	r17, 0x0425
    69d2:	20 91 26 04 	lds	r18, 0x0426
    69d6:	30 91 27 04 	lds	r19, 0x0427
    69da:	b8 01       	movw	r22, r16
    69dc:	c9 01       	movw	r24, r18
    69de:	1f 91       	pop	r17
    69e0:	0f 91       	pop	r16
    69e2:	08 95       	ret

000069e4 <rtc_set_alarm>:
    69e4:	e0 e2       	ldi	r30, 0x20	; 32
    69e6:	f4 e0       	ldi	r31, 0x04	; 4
    69e8:	24 e0       	ldi	r18, 0x04	; 4
    69ea:	22 83       	std	Z+2, r18	; 0x02
    69ec:	64 87       	std	Z+12, r22	; 0x0c
    69ee:	75 87       	std	Z+13, r23	; 0x0d
    69f0:	86 87       	std	Z+14, r24	; 0x0e
    69f2:	97 87       	std	Z+15, r25	; 0x0f
    69f4:	82 e0       	ldi	r24, 0x02	; 2
    69f6:	83 83       	std	Z+3, r24	; 0x03
    69f8:	08 95       	ret

000069fa <rtc_set_callback>:
    69fa:	80 93 ce 25 	sts	0x25CE, r24
    69fe:	90 93 cf 25 	sts	0x25CF, r25
    6a02:	08 95       	ret

00006a04 <rtc_vbat_system_check>:
    6a04:	cf 93       	push	r28
    6a06:	df 93       	push	r29
    6a08:	d8 2f       	mov	r29, r24
    6a0a:	c0 91 f1 00 	lds	r28, 0x00F1
    6a0e:	64 e0       	ldi	r22, 0x04	; 4
    6a10:	80 e0       	ldi	r24, 0x00	; 0
    6a12:	90 e0       	ldi	r25, 0x00	; 0
    6a14:	6f db       	rcall	.-2338   	; 0x60f4 <sysclk_enable_module>
    6a16:	c7 fd       	sbrc	r28, 7
    6a18:	11 c0       	rjmp	.+34     	; 0x6a3c <rtc_vbat_system_check+0x38>
    6a1a:	c0 ff       	sbrs	r28, 0
    6a1c:	05 c0       	rjmp	.+10     	; 0x6a28 <rtc_vbat_system_check+0x24>
    6a1e:	dd 23       	and	r29, r29
    6a20:	81 f0       	breq	.+32     	; 0x6a42 <rtc_vbat_system_check+0x3e>
    6a22:	22 e0       	ldi	r18, 0x02	; 2
    6a24:	30 e0       	ldi	r19, 0x00	; 0
    6a26:	15 c0       	rjmp	.+42     	; 0x6a52 <rtc_vbat_system_check+0x4e>
    6a28:	c1 fd       	sbrc	r28, 1
    6a2a:	0e c0       	rjmp	.+28     	; 0x6a48 <rtc_vbat_system_check+0x44>
    6a2c:	82 e0       	ldi	r24, 0x02	; 2
    6a2e:	80 93 f0 00 	sts	0x00F0, r24
    6a32:	c2 ff       	sbrs	r28, 2
    6a34:	0c c0       	rjmp	.+24     	; 0x6a4e <rtc_vbat_system_check+0x4a>
    6a36:	25 e0       	ldi	r18, 0x05	; 5
    6a38:	30 e0       	ldi	r19, 0x00	; 0
    6a3a:	0b c0       	rjmp	.+22     	; 0x6a52 <rtc_vbat_system_check+0x4e>
    6a3c:	21 e0       	ldi	r18, 0x01	; 1
    6a3e:	30 e0       	ldi	r19, 0x00	; 0
    6a40:	08 c0       	rjmp	.+16     	; 0x6a52 <rtc_vbat_system_check+0x4e>
    6a42:	23 e0       	ldi	r18, 0x03	; 3
    6a44:	30 e0       	ldi	r19, 0x00	; 0
    6a46:	05 c0       	rjmp	.+10     	; 0x6a52 <rtc_vbat_system_check+0x4e>
    6a48:	24 e0       	ldi	r18, 0x04	; 4
    6a4a:	30 e0       	ldi	r19, 0x00	; 0
    6a4c:	02 c0       	rjmp	.+4      	; 0x6a52 <rtc_vbat_system_check+0x4e>
    6a4e:	20 e0       	ldi	r18, 0x00	; 0
    6a50:	30 e0       	ldi	r19, 0x00	; 0
    6a52:	c9 01       	movw	r24, r18
    6a54:	df 91       	pop	r29
    6a56:	cf 91       	pop	r28
    6a58:	08 95       	ret

00006a5a <rtc_init>:
    6a5a:	64 e0       	ldi	r22, 0x04	; 4
    6a5c:	80 e0       	ldi	r24, 0x00	; 0
    6a5e:	90 e0       	ldi	r25, 0x00	; 0
    6a60:	49 db       	rcall	.-2414   	; 0x60f4 <sysclk_enable_module>
    6a62:	80 91 f0 00 	lds	r24, 0x00F0
    6a66:	82 60       	ori	r24, 0x02	; 2
    6a68:	80 93 f0 00 	sts	0x00F0, r24
    6a6c:	61 e0       	ldi	r22, 0x01	; 1
    6a6e:	80 ef       	ldi	r24, 0xF0	; 240
    6a70:	90 e0       	ldi	r25, 0x00	; 0
    6a72:	0f df       	rcall	.-482    	; 0x6892 <ccp_write_io>
    6a74:	80 91 f0 00 	lds	r24, 0x00F0
    6a78:	84 60       	ori	r24, 0x04	; 4
    6a7a:	80 93 f0 00 	sts	0x00F0, r24
    6a7e:	82 df       	rcall	.-252    	; 0x6984 <__portable_avr_delay_cycles.constprop.0>
    6a80:	80 91 f0 00 	lds	r24, 0x00F0
    6a84:	88 60       	ori	r24, 0x08	; 8
    6a86:	80 93 f0 00 	sts	0x00F0, r24
    6a8a:	80 91 f1 00 	lds	r24, 0x00F1
    6a8e:	83 ff       	sbrs	r24, 3
    6a90:	fc cf       	rjmp	.-8      	; 0x6a8a <rtc_init+0x30>
    6a92:	10 92 20 04 	sts	0x0420, r1
    6a96:	80 91 21 04 	lds	r24, 0x0421
    6a9a:	80 fd       	sbrc	r24, 0
    6a9c:	fc cf       	rjmp	.-8      	; 0x6a96 <rtc_init+0x3c>
    6a9e:	8f ef       	ldi	r24, 0xFF	; 255
    6aa0:	9f ef       	ldi	r25, 0xFF	; 255
    6aa2:	dc 01       	movw	r26, r24
    6aa4:	80 93 28 04 	sts	0x0428, r24
    6aa8:	90 93 29 04 	sts	0x0429, r25
    6aac:	a0 93 2a 04 	sts	0x042A, r26
    6ab0:	b0 93 2b 04 	sts	0x042B, r27
    6ab4:	10 92 24 04 	sts	0x0424, r1
    6ab8:	10 92 25 04 	sts	0x0425, r1
    6abc:	10 92 26 04 	sts	0x0426, r1
    6ac0:	10 92 27 04 	sts	0x0427, r1
    6ac4:	80 91 21 04 	lds	r24, 0x0421
    6ac8:	80 fd       	sbrc	r24, 0
    6aca:	fc cf       	rjmp	.-8      	; 0x6ac4 <rtc_init+0x6a>
    6acc:	10 92 22 04 	sts	0x0422, r1
    6ad0:	81 e0       	ldi	r24, 0x01	; 1
    6ad2:	80 93 20 04 	sts	0x0420, r24
    6ad6:	80 91 21 04 	lds	r24, 0x0421
    6ada:	80 fd       	sbrc	r24, 0
    6adc:	fc cf       	rjmp	.-8      	; 0x6ad6 <rtc_init+0x7c>
    6ade:	08 95       	ret

00006ae0 <__vector_11>:
    6ae0:	1f 92       	push	r1
    6ae2:	0f 92       	push	r0
    6ae4:	0f b6       	in	r0, 0x3f	; 63
    6ae6:	0f 92       	push	r0
    6ae8:	11 24       	eor	r1, r1
    6aea:	0b b6       	in	r0, 0x3b	; 59
    6aec:	0f 92       	push	r0
    6aee:	2f 93       	push	r18
    6af0:	3f 93       	push	r19
    6af2:	4f 93       	push	r20
    6af4:	5f 93       	push	r21
    6af6:	6f 93       	push	r22
    6af8:	7f 93       	push	r23
    6afa:	8f 93       	push	r24
    6afc:	9f 93       	push	r25
    6afe:	af 93       	push	r26
    6b00:	bf 93       	push	r27
    6b02:	ef 93       	push	r30
    6b04:	ff 93       	push	r31
    6b06:	10 92 22 04 	sts	0x0422, r1
    6b0a:	e0 91 ce 25 	lds	r30, 0x25CE
    6b0e:	f0 91 cf 25 	lds	r31, 0x25CF
    6b12:	30 97       	sbiw	r30, 0x00	; 0
    6b14:	81 f0       	breq	.+32     	; 0x6b36 <__vector_11+0x56>
    6b16:	80 e1       	ldi	r24, 0x10	; 16
    6b18:	80 93 21 04 	sts	0x0421, r24
    6b1c:	80 91 21 04 	lds	r24, 0x0421
    6b20:	84 fd       	sbrc	r24, 4
    6b22:	fc cf       	rjmp	.-8      	; 0x6b1c <__vector_11+0x3c>
    6b24:	60 91 24 04 	lds	r22, 0x0424
    6b28:	70 91 25 04 	lds	r23, 0x0425
    6b2c:	80 91 26 04 	lds	r24, 0x0426
    6b30:	90 91 27 04 	lds	r25, 0x0427
    6b34:	19 95       	eicall
    6b36:	ff 91       	pop	r31
    6b38:	ef 91       	pop	r30
    6b3a:	bf 91       	pop	r27
    6b3c:	af 91       	pop	r26
    6b3e:	9f 91       	pop	r25
    6b40:	8f 91       	pop	r24
    6b42:	7f 91       	pop	r23
    6b44:	6f 91       	pop	r22
    6b46:	5f 91       	pop	r21
    6b48:	4f 91       	pop	r20
    6b4a:	3f 91       	pop	r19
    6b4c:	2f 91       	pop	r18
    6b4e:	0f 90       	pop	r0
    6b50:	0b be       	out	0x3b, r0	; 59
    6b52:	0f 90       	pop	r0
    6b54:	0f be       	out	0x3f, r0	; 63
    6b56:	0f 90       	pop	r0
    6b58:	1f 90       	pop	r1
    6b5a:	18 95       	reti

00006b5c <__vector_14>:
    6b5c:	1f 92       	push	r1
    6b5e:	0f 92       	push	r0
    6b60:	0f b6       	in	r0, 0x3f	; 63
    6b62:	0f 92       	push	r0
    6b64:	11 24       	eor	r1, r1
    6b66:	0b b6       	in	r0, 0x3b	; 59
    6b68:	0f 92       	push	r0
    6b6a:	2f 93       	push	r18
    6b6c:	3f 93       	push	r19
    6b6e:	4f 93       	push	r20
    6b70:	5f 93       	push	r21
    6b72:	6f 93       	push	r22
    6b74:	7f 93       	push	r23
    6b76:	8f 93       	push	r24
    6b78:	9f 93       	push	r25
    6b7a:	af 93       	push	r26
    6b7c:	bf 93       	push	r27
    6b7e:	ef 93       	push	r30
    6b80:	ff 93       	push	r31
    6b82:	e0 91 e0 22 	lds	r30, 0x22E0
    6b86:	f0 91 e1 22 	lds	r31, 0x22E1
    6b8a:	30 97       	sbiw	r30, 0x00	; 0
    6b8c:	09 f0       	breq	.+2      	; 0x6b90 <__vector_14+0x34>
    6b8e:	19 95       	eicall
    6b90:	ff 91       	pop	r31
    6b92:	ef 91       	pop	r30
    6b94:	bf 91       	pop	r27
    6b96:	af 91       	pop	r26
    6b98:	9f 91       	pop	r25
    6b9a:	8f 91       	pop	r24
    6b9c:	7f 91       	pop	r23
    6b9e:	6f 91       	pop	r22
    6ba0:	5f 91       	pop	r21
    6ba2:	4f 91       	pop	r20
    6ba4:	3f 91       	pop	r19
    6ba6:	2f 91       	pop	r18
    6ba8:	0f 90       	pop	r0
    6baa:	0b be       	out	0x3b, r0	; 59
    6bac:	0f 90       	pop	r0
    6bae:	0f be       	out	0x3f, r0	; 63
    6bb0:	0f 90       	pop	r0
    6bb2:	1f 90       	pop	r1
    6bb4:	18 95       	reti

00006bb6 <__vector_15>:
    6bb6:	1f 92       	push	r1
    6bb8:	0f 92       	push	r0
    6bba:	0f b6       	in	r0, 0x3f	; 63
    6bbc:	0f 92       	push	r0
    6bbe:	11 24       	eor	r1, r1
    6bc0:	0b b6       	in	r0, 0x3b	; 59
    6bc2:	0f 92       	push	r0
    6bc4:	2f 93       	push	r18
    6bc6:	3f 93       	push	r19
    6bc8:	4f 93       	push	r20
    6bca:	5f 93       	push	r21
    6bcc:	6f 93       	push	r22
    6bce:	7f 93       	push	r23
    6bd0:	8f 93       	push	r24
    6bd2:	9f 93       	push	r25
    6bd4:	af 93       	push	r26
    6bd6:	bf 93       	push	r27
    6bd8:	ef 93       	push	r30
    6bda:	ff 93       	push	r31
    6bdc:	e0 91 e2 22 	lds	r30, 0x22E2
    6be0:	f0 91 e3 22 	lds	r31, 0x22E3
    6be4:	30 97       	sbiw	r30, 0x00	; 0
    6be6:	09 f0       	breq	.+2      	; 0x6bea <__vector_15+0x34>
    6be8:	19 95       	eicall
    6bea:	ff 91       	pop	r31
    6bec:	ef 91       	pop	r30
    6bee:	bf 91       	pop	r27
    6bf0:	af 91       	pop	r26
    6bf2:	9f 91       	pop	r25
    6bf4:	8f 91       	pop	r24
    6bf6:	7f 91       	pop	r23
    6bf8:	6f 91       	pop	r22
    6bfa:	5f 91       	pop	r21
    6bfc:	4f 91       	pop	r20
    6bfe:	3f 91       	pop	r19
    6c00:	2f 91       	pop	r18
    6c02:	0f 90       	pop	r0
    6c04:	0b be       	out	0x3b, r0	; 59
    6c06:	0f 90       	pop	r0
    6c08:	0f be       	out	0x3f, r0	; 63
    6c0a:	0f 90       	pop	r0
    6c0c:	1f 90       	pop	r1
    6c0e:	18 95       	reti

00006c10 <__vector_16>:
    6c10:	1f 92       	push	r1
    6c12:	0f 92       	push	r0
    6c14:	0f b6       	in	r0, 0x3f	; 63
    6c16:	0f 92       	push	r0
    6c18:	11 24       	eor	r1, r1
    6c1a:	0b b6       	in	r0, 0x3b	; 59
    6c1c:	0f 92       	push	r0
    6c1e:	2f 93       	push	r18
    6c20:	3f 93       	push	r19
    6c22:	4f 93       	push	r20
    6c24:	5f 93       	push	r21
    6c26:	6f 93       	push	r22
    6c28:	7f 93       	push	r23
    6c2a:	8f 93       	push	r24
    6c2c:	9f 93       	push	r25
    6c2e:	af 93       	push	r26
    6c30:	bf 93       	push	r27
    6c32:	ef 93       	push	r30
    6c34:	ff 93       	push	r31
    6c36:	e0 91 e4 22 	lds	r30, 0x22E4
    6c3a:	f0 91 e5 22 	lds	r31, 0x22E5
    6c3e:	30 97       	sbiw	r30, 0x00	; 0
    6c40:	09 f0       	breq	.+2      	; 0x6c44 <__vector_16+0x34>
    6c42:	19 95       	eicall
    6c44:	ff 91       	pop	r31
    6c46:	ef 91       	pop	r30
    6c48:	bf 91       	pop	r27
    6c4a:	af 91       	pop	r26
    6c4c:	9f 91       	pop	r25
    6c4e:	8f 91       	pop	r24
    6c50:	7f 91       	pop	r23
    6c52:	6f 91       	pop	r22
    6c54:	5f 91       	pop	r21
    6c56:	4f 91       	pop	r20
    6c58:	3f 91       	pop	r19
    6c5a:	2f 91       	pop	r18
    6c5c:	0f 90       	pop	r0
    6c5e:	0b be       	out	0x3b, r0	; 59
    6c60:	0f 90       	pop	r0
    6c62:	0f be       	out	0x3f, r0	; 63
    6c64:	0f 90       	pop	r0
    6c66:	1f 90       	pop	r1
    6c68:	18 95       	reti

00006c6a <__vector_17>:
    6c6a:	1f 92       	push	r1
    6c6c:	0f 92       	push	r0
    6c6e:	0f b6       	in	r0, 0x3f	; 63
    6c70:	0f 92       	push	r0
    6c72:	11 24       	eor	r1, r1
    6c74:	0b b6       	in	r0, 0x3b	; 59
    6c76:	0f 92       	push	r0
    6c78:	2f 93       	push	r18
    6c7a:	3f 93       	push	r19
    6c7c:	4f 93       	push	r20
    6c7e:	5f 93       	push	r21
    6c80:	6f 93       	push	r22
    6c82:	7f 93       	push	r23
    6c84:	8f 93       	push	r24
    6c86:	9f 93       	push	r25
    6c88:	af 93       	push	r26
    6c8a:	bf 93       	push	r27
    6c8c:	ef 93       	push	r30
    6c8e:	ff 93       	push	r31
    6c90:	e0 91 e6 22 	lds	r30, 0x22E6
    6c94:	f0 91 e7 22 	lds	r31, 0x22E7
    6c98:	30 97       	sbiw	r30, 0x00	; 0
    6c9a:	09 f0       	breq	.+2      	; 0x6c9e <__vector_17+0x34>
    6c9c:	19 95       	eicall
    6c9e:	ff 91       	pop	r31
    6ca0:	ef 91       	pop	r30
    6ca2:	bf 91       	pop	r27
    6ca4:	af 91       	pop	r26
    6ca6:	9f 91       	pop	r25
    6ca8:	8f 91       	pop	r24
    6caa:	7f 91       	pop	r23
    6cac:	6f 91       	pop	r22
    6cae:	5f 91       	pop	r21
    6cb0:	4f 91       	pop	r20
    6cb2:	3f 91       	pop	r19
    6cb4:	2f 91       	pop	r18
    6cb6:	0f 90       	pop	r0
    6cb8:	0b be       	out	0x3b, r0	; 59
    6cba:	0f 90       	pop	r0
    6cbc:	0f be       	out	0x3f, r0	; 63
    6cbe:	0f 90       	pop	r0
    6cc0:	1f 90       	pop	r1
    6cc2:	18 95       	reti

00006cc4 <__vector_18>:
    6cc4:	1f 92       	push	r1
    6cc6:	0f 92       	push	r0
    6cc8:	0f b6       	in	r0, 0x3f	; 63
    6cca:	0f 92       	push	r0
    6ccc:	11 24       	eor	r1, r1
    6cce:	0b b6       	in	r0, 0x3b	; 59
    6cd0:	0f 92       	push	r0
    6cd2:	2f 93       	push	r18
    6cd4:	3f 93       	push	r19
    6cd6:	4f 93       	push	r20
    6cd8:	5f 93       	push	r21
    6cda:	6f 93       	push	r22
    6cdc:	7f 93       	push	r23
    6cde:	8f 93       	push	r24
    6ce0:	9f 93       	push	r25
    6ce2:	af 93       	push	r26
    6ce4:	bf 93       	push	r27
    6ce6:	ef 93       	push	r30
    6ce8:	ff 93       	push	r31
    6cea:	e0 91 e8 22 	lds	r30, 0x22E8
    6cee:	f0 91 e9 22 	lds	r31, 0x22E9
    6cf2:	30 97       	sbiw	r30, 0x00	; 0
    6cf4:	09 f0       	breq	.+2      	; 0x6cf8 <__vector_18+0x34>
    6cf6:	19 95       	eicall
    6cf8:	ff 91       	pop	r31
    6cfa:	ef 91       	pop	r30
    6cfc:	bf 91       	pop	r27
    6cfe:	af 91       	pop	r26
    6d00:	9f 91       	pop	r25
    6d02:	8f 91       	pop	r24
    6d04:	7f 91       	pop	r23
    6d06:	6f 91       	pop	r22
    6d08:	5f 91       	pop	r21
    6d0a:	4f 91       	pop	r20
    6d0c:	3f 91       	pop	r19
    6d0e:	2f 91       	pop	r18
    6d10:	0f 90       	pop	r0
    6d12:	0b be       	out	0x3b, r0	; 59
    6d14:	0f 90       	pop	r0
    6d16:	0f be       	out	0x3f, r0	; 63
    6d18:	0f 90       	pop	r0
    6d1a:	1f 90       	pop	r1
    6d1c:	18 95       	reti

00006d1e <__vector_19>:
    6d1e:	1f 92       	push	r1
    6d20:	0f 92       	push	r0
    6d22:	0f b6       	in	r0, 0x3f	; 63
    6d24:	0f 92       	push	r0
    6d26:	11 24       	eor	r1, r1
    6d28:	0b b6       	in	r0, 0x3b	; 59
    6d2a:	0f 92       	push	r0
    6d2c:	2f 93       	push	r18
    6d2e:	3f 93       	push	r19
    6d30:	4f 93       	push	r20
    6d32:	5f 93       	push	r21
    6d34:	6f 93       	push	r22
    6d36:	7f 93       	push	r23
    6d38:	8f 93       	push	r24
    6d3a:	9f 93       	push	r25
    6d3c:	af 93       	push	r26
    6d3e:	bf 93       	push	r27
    6d40:	ef 93       	push	r30
    6d42:	ff 93       	push	r31
    6d44:	e0 91 ea 22 	lds	r30, 0x22EA
    6d48:	f0 91 eb 22 	lds	r31, 0x22EB
    6d4c:	30 97       	sbiw	r30, 0x00	; 0
    6d4e:	09 f0       	breq	.+2      	; 0x6d52 <__vector_19+0x34>
    6d50:	19 95       	eicall
    6d52:	ff 91       	pop	r31
    6d54:	ef 91       	pop	r30
    6d56:	bf 91       	pop	r27
    6d58:	af 91       	pop	r26
    6d5a:	9f 91       	pop	r25
    6d5c:	8f 91       	pop	r24
    6d5e:	7f 91       	pop	r23
    6d60:	6f 91       	pop	r22
    6d62:	5f 91       	pop	r21
    6d64:	4f 91       	pop	r20
    6d66:	3f 91       	pop	r19
    6d68:	2f 91       	pop	r18
    6d6a:	0f 90       	pop	r0
    6d6c:	0b be       	out	0x3b, r0	; 59
    6d6e:	0f 90       	pop	r0
    6d70:	0f be       	out	0x3f, r0	; 63
    6d72:	0f 90       	pop	r0
    6d74:	1f 90       	pop	r1
    6d76:	18 95       	reti

00006d78 <__vector_20>:
    6d78:	1f 92       	push	r1
    6d7a:	0f 92       	push	r0
    6d7c:	0f b6       	in	r0, 0x3f	; 63
    6d7e:	0f 92       	push	r0
    6d80:	11 24       	eor	r1, r1
    6d82:	0b b6       	in	r0, 0x3b	; 59
    6d84:	0f 92       	push	r0
    6d86:	2f 93       	push	r18
    6d88:	3f 93       	push	r19
    6d8a:	4f 93       	push	r20
    6d8c:	5f 93       	push	r21
    6d8e:	6f 93       	push	r22
    6d90:	7f 93       	push	r23
    6d92:	8f 93       	push	r24
    6d94:	9f 93       	push	r25
    6d96:	af 93       	push	r26
    6d98:	bf 93       	push	r27
    6d9a:	ef 93       	push	r30
    6d9c:	ff 93       	push	r31
    6d9e:	e0 91 ec 22 	lds	r30, 0x22EC
    6da2:	f0 91 ed 22 	lds	r31, 0x22ED
    6da6:	30 97       	sbiw	r30, 0x00	; 0
    6da8:	09 f0       	breq	.+2      	; 0x6dac <__vector_20+0x34>
    6daa:	19 95       	eicall
    6dac:	ff 91       	pop	r31
    6dae:	ef 91       	pop	r30
    6db0:	bf 91       	pop	r27
    6db2:	af 91       	pop	r26
    6db4:	9f 91       	pop	r25
    6db6:	8f 91       	pop	r24
    6db8:	7f 91       	pop	r23
    6dba:	6f 91       	pop	r22
    6dbc:	5f 91       	pop	r21
    6dbe:	4f 91       	pop	r20
    6dc0:	3f 91       	pop	r19
    6dc2:	2f 91       	pop	r18
    6dc4:	0f 90       	pop	r0
    6dc6:	0b be       	out	0x3b, r0	; 59
    6dc8:	0f 90       	pop	r0
    6dca:	0f be       	out	0x3f, r0	; 63
    6dcc:	0f 90       	pop	r0
    6dce:	1f 90       	pop	r1
    6dd0:	18 95       	reti

00006dd2 <__vector_21>:
    6dd2:	1f 92       	push	r1
    6dd4:	0f 92       	push	r0
    6dd6:	0f b6       	in	r0, 0x3f	; 63
    6dd8:	0f 92       	push	r0
    6dda:	11 24       	eor	r1, r1
    6ddc:	0b b6       	in	r0, 0x3b	; 59
    6dde:	0f 92       	push	r0
    6de0:	2f 93       	push	r18
    6de2:	3f 93       	push	r19
    6de4:	4f 93       	push	r20
    6de6:	5f 93       	push	r21
    6de8:	6f 93       	push	r22
    6dea:	7f 93       	push	r23
    6dec:	8f 93       	push	r24
    6dee:	9f 93       	push	r25
    6df0:	af 93       	push	r26
    6df2:	bf 93       	push	r27
    6df4:	ef 93       	push	r30
    6df6:	ff 93       	push	r31
    6df8:	e0 91 ee 22 	lds	r30, 0x22EE
    6dfc:	f0 91 ef 22 	lds	r31, 0x22EF
    6e00:	30 97       	sbiw	r30, 0x00	; 0
    6e02:	09 f0       	breq	.+2      	; 0x6e06 <__vector_21+0x34>
    6e04:	19 95       	eicall
    6e06:	ff 91       	pop	r31
    6e08:	ef 91       	pop	r30
    6e0a:	bf 91       	pop	r27
    6e0c:	af 91       	pop	r26
    6e0e:	9f 91       	pop	r25
    6e10:	8f 91       	pop	r24
    6e12:	7f 91       	pop	r23
    6e14:	6f 91       	pop	r22
    6e16:	5f 91       	pop	r21
    6e18:	4f 91       	pop	r20
    6e1a:	3f 91       	pop	r19
    6e1c:	2f 91       	pop	r18
    6e1e:	0f 90       	pop	r0
    6e20:	0b be       	out	0x3b, r0	; 59
    6e22:	0f 90       	pop	r0
    6e24:	0f be       	out	0x3f, r0	; 63
    6e26:	0f 90       	pop	r0
    6e28:	1f 90       	pop	r1
    6e2a:	18 95       	reti

00006e2c <__vector_22>:
    6e2c:	1f 92       	push	r1
    6e2e:	0f 92       	push	r0
    6e30:	0f b6       	in	r0, 0x3f	; 63
    6e32:	0f 92       	push	r0
    6e34:	11 24       	eor	r1, r1
    6e36:	0b b6       	in	r0, 0x3b	; 59
    6e38:	0f 92       	push	r0
    6e3a:	2f 93       	push	r18
    6e3c:	3f 93       	push	r19
    6e3e:	4f 93       	push	r20
    6e40:	5f 93       	push	r21
    6e42:	6f 93       	push	r22
    6e44:	7f 93       	push	r23
    6e46:	8f 93       	push	r24
    6e48:	9f 93       	push	r25
    6e4a:	af 93       	push	r26
    6e4c:	bf 93       	push	r27
    6e4e:	ef 93       	push	r30
    6e50:	ff 93       	push	r31
    6e52:	e0 91 f0 22 	lds	r30, 0x22F0
    6e56:	f0 91 f1 22 	lds	r31, 0x22F1
    6e5a:	30 97       	sbiw	r30, 0x00	; 0
    6e5c:	09 f0       	breq	.+2      	; 0x6e60 <__vector_22+0x34>
    6e5e:	19 95       	eicall
    6e60:	ff 91       	pop	r31
    6e62:	ef 91       	pop	r30
    6e64:	bf 91       	pop	r27
    6e66:	af 91       	pop	r26
    6e68:	9f 91       	pop	r25
    6e6a:	8f 91       	pop	r24
    6e6c:	7f 91       	pop	r23
    6e6e:	6f 91       	pop	r22
    6e70:	5f 91       	pop	r21
    6e72:	4f 91       	pop	r20
    6e74:	3f 91       	pop	r19
    6e76:	2f 91       	pop	r18
    6e78:	0f 90       	pop	r0
    6e7a:	0b be       	out	0x3b, r0	; 59
    6e7c:	0f 90       	pop	r0
    6e7e:	0f be       	out	0x3f, r0	; 63
    6e80:	0f 90       	pop	r0
    6e82:	1f 90       	pop	r1
    6e84:	18 95       	reti

00006e86 <__vector_23>:
    6e86:	1f 92       	push	r1
    6e88:	0f 92       	push	r0
    6e8a:	0f b6       	in	r0, 0x3f	; 63
    6e8c:	0f 92       	push	r0
    6e8e:	11 24       	eor	r1, r1
    6e90:	0b b6       	in	r0, 0x3b	; 59
    6e92:	0f 92       	push	r0
    6e94:	2f 93       	push	r18
    6e96:	3f 93       	push	r19
    6e98:	4f 93       	push	r20
    6e9a:	5f 93       	push	r21
    6e9c:	6f 93       	push	r22
    6e9e:	7f 93       	push	r23
    6ea0:	8f 93       	push	r24
    6ea2:	9f 93       	push	r25
    6ea4:	af 93       	push	r26
    6ea6:	bf 93       	push	r27
    6ea8:	ef 93       	push	r30
    6eaa:	ff 93       	push	r31
    6eac:	e0 91 f2 22 	lds	r30, 0x22F2
    6eb0:	f0 91 f3 22 	lds	r31, 0x22F3
    6eb4:	30 97       	sbiw	r30, 0x00	; 0
    6eb6:	09 f0       	breq	.+2      	; 0x6eba <__vector_23+0x34>
    6eb8:	19 95       	eicall
    6eba:	ff 91       	pop	r31
    6ebc:	ef 91       	pop	r30
    6ebe:	bf 91       	pop	r27
    6ec0:	af 91       	pop	r26
    6ec2:	9f 91       	pop	r25
    6ec4:	8f 91       	pop	r24
    6ec6:	7f 91       	pop	r23
    6ec8:	6f 91       	pop	r22
    6eca:	5f 91       	pop	r21
    6ecc:	4f 91       	pop	r20
    6ece:	3f 91       	pop	r19
    6ed0:	2f 91       	pop	r18
    6ed2:	0f 90       	pop	r0
    6ed4:	0b be       	out	0x3b, r0	; 59
    6ed6:	0f 90       	pop	r0
    6ed8:	0f be       	out	0x3f, r0	; 63
    6eda:	0f 90       	pop	r0
    6edc:	1f 90       	pop	r1
    6ede:	18 95       	reti

00006ee0 <__vector_77>:
    6ee0:	1f 92       	push	r1
    6ee2:	0f 92       	push	r0
    6ee4:	0f b6       	in	r0, 0x3f	; 63
    6ee6:	0f 92       	push	r0
    6ee8:	11 24       	eor	r1, r1
    6eea:	0b b6       	in	r0, 0x3b	; 59
    6eec:	0f 92       	push	r0
    6eee:	2f 93       	push	r18
    6ef0:	3f 93       	push	r19
    6ef2:	4f 93       	push	r20
    6ef4:	5f 93       	push	r21
    6ef6:	6f 93       	push	r22
    6ef8:	7f 93       	push	r23
    6efa:	8f 93       	push	r24
    6efc:	9f 93       	push	r25
    6efe:	af 93       	push	r26
    6f00:	bf 93       	push	r27
    6f02:	ef 93       	push	r30
    6f04:	ff 93       	push	r31
    6f06:	e0 91 f4 22 	lds	r30, 0x22F4
    6f0a:	f0 91 f5 22 	lds	r31, 0x22F5
    6f0e:	30 97       	sbiw	r30, 0x00	; 0
    6f10:	09 f0       	breq	.+2      	; 0x6f14 <__vector_77+0x34>
    6f12:	19 95       	eicall
    6f14:	ff 91       	pop	r31
    6f16:	ef 91       	pop	r30
    6f18:	bf 91       	pop	r27
    6f1a:	af 91       	pop	r26
    6f1c:	9f 91       	pop	r25
    6f1e:	8f 91       	pop	r24
    6f20:	7f 91       	pop	r23
    6f22:	6f 91       	pop	r22
    6f24:	5f 91       	pop	r21
    6f26:	4f 91       	pop	r20
    6f28:	3f 91       	pop	r19
    6f2a:	2f 91       	pop	r18
    6f2c:	0f 90       	pop	r0
    6f2e:	0b be       	out	0x3b, r0	; 59
    6f30:	0f 90       	pop	r0
    6f32:	0f be       	out	0x3f, r0	; 63
    6f34:	0f 90       	pop	r0
    6f36:	1f 90       	pop	r1
    6f38:	18 95       	reti

00006f3a <__vector_78>:
    6f3a:	1f 92       	push	r1
    6f3c:	0f 92       	push	r0
    6f3e:	0f b6       	in	r0, 0x3f	; 63
    6f40:	0f 92       	push	r0
    6f42:	11 24       	eor	r1, r1
    6f44:	0b b6       	in	r0, 0x3b	; 59
    6f46:	0f 92       	push	r0
    6f48:	2f 93       	push	r18
    6f4a:	3f 93       	push	r19
    6f4c:	4f 93       	push	r20
    6f4e:	5f 93       	push	r21
    6f50:	6f 93       	push	r22
    6f52:	7f 93       	push	r23
    6f54:	8f 93       	push	r24
    6f56:	9f 93       	push	r25
    6f58:	af 93       	push	r26
    6f5a:	bf 93       	push	r27
    6f5c:	ef 93       	push	r30
    6f5e:	ff 93       	push	r31
    6f60:	e0 91 f6 22 	lds	r30, 0x22F6
    6f64:	f0 91 f7 22 	lds	r31, 0x22F7
    6f68:	30 97       	sbiw	r30, 0x00	; 0
    6f6a:	09 f0       	breq	.+2      	; 0x6f6e <__vector_78+0x34>
    6f6c:	19 95       	eicall
    6f6e:	ff 91       	pop	r31
    6f70:	ef 91       	pop	r30
    6f72:	bf 91       	pop	r27
    6f74:	af 91       	pop	r26
    6f76:	9f 91       	pop	r25
    6f78:	8f 91       	pop	r24
    6f7a:	7f 91       	pop	r23
    6f7c:	6f 91       	pop	r22
    6f7e:	5f 91       	pop	r21
    6f80:	4f 91       	pop	r20
    6f82:	3f 91       	pop	r19
    6f84:	2f 91       	pop	r18
    6f86:	0f 90       	pop	r0
    6f88:	0b be       	out	0x3b, r0	; 59
    6f8a:	0f 90       	pop	r0
    6f8c:	0f be       	out	0x3f, r0	; 63
    6f8e:	0f 90       	pop	r0
    6f90:	1f 90       	pop	r1
    6f92:	18 95       	reti

00006f94 <__vector_79>:
    6f94:	1f 92       	push	r1
    6f96:	0f 92       	push	r0
    6f98:	0f b6       	in	r0, 0x3f	; 63
    6f9a:	0f 92       	push	r0
    6f9c:	11 24       	eor	r1, r1
    6f9e:	0b b6       	in	r0, 0x3b	; 59
    6fa0:	0f 92       	push	r0
    6fa2:	2f 93       	push	r18
    6fa4:	3f 93       	push	r19
    6fa6:	4f 93       	push	r20
    6fa8:	5f 93       	push	r21
    6faa:	6f 93       	push	r22
    6fac:	7f 93       	push	r23
    6fae:	8f 93       	push	r24
    6fb0:	9f 93       	push	r25
    6fb2:	af 93       	push	r26
    6fb4:	bf 93       	push	r27
    6fb6:	ef 93       	push	r30
    6fb8:	ff 93       	push	r31
    6fba:	e0 91 f8 22 	lds	r30, 0x22F8
    6fbe:	f0 91 f9 22 	lds	r31, 0x22F9
    6fc2:	30 97       	sbiw	r30, 0x00	; 0
    6fc4:	09 f0       	breq	.+2      	; 0x6fc8 <__vector_79+0x34>
    6fc6:	19 95       	eicall
    6fc8:	ff 91       	pop	r31
    6fca:	ef 91       	pop	r30
    6fcc:	bf 91       	pop	r27
    6fce:	af 91       	pop	r26
    6fd0:	9f 91       	pop	r25
    6fd2:	8f 91       	pop	r24
    6fd4:	7f 91       	pop	r23
    6fd6:	6f 91       	pop	r22
    6fd8:	5f 91       	pop	r21
    6fda:	4f 91       	pop	r20
    6fdc:	3f 91       	pop	r19
    6fde:	2f 91       	pop	r18
    6fe0:	0f 90       	pop	r0
    6fe2:	0b be       	out	0x3b, r0	; 59
    6fe4:	0f 90       	pop	r0
    6fe6:	0f be       	out	0x3f, r0	; 63
    6fe8:	0f 90       	pop	r0
    6fea:	1f 90       	pop	r1
    6fec:	18 95       	reti

00006fee <__vector_80>:
    6fee:	1f 92       	push	r1
    6ff0:	0f 92       	push	r0
    6ff2:	0f b6       	in	r0, 0x3f	; 63
    6ff4:	0f 92       	push	r0
    6ff6:	11 24       	eor	r1, r1
    6ff8:	0b b6       	in	r0, 0x3b	; 59
    6ffa:	0f 92       	push	r0
    6ffc:	2f 93       	push	r18
    6ffe:	3f 93       	push	r19
    7000:	4f 93       	push	r20
    7002:	5f 93       	push	r21
    7004:	6f 93       	push	r22
    7006:	7f 93       	push	r23
    7008:	8f 93       	push	r24
    700a:	9f 93       	push	r25
    700c:	af 93       	push	r26
    700e:	bf 93       	push	r27
    7010:	ef 93       	push	r30
    7012:	ff 93       	push	r31
    7014:	e0 91 fa 22 	lds	r30, 0x22FA
    7018:	f0 91 fb 22 	lds	r31, 0x22FB
    701c:	30 97       	sbiw	r30, 0x00	; 0
    701e:	09 f0       	breq	.+2      	; 0x7022 <__vector_80+0x34>
    7020:	19 95       	eicall
    7022:	ff 91       	pop	r31
    7024:	ef 91       	pop	r30
    7026:	bf 91       	pop	r27
    7028:	af 91       	pop	r26
    702a:	9f 91       	pop	r25
    702c:	8f 91       	pop	r24
    702e:	7f 91       	pop	r23
    7030:	6f 91       	pop	r22
    7032:	5f 91       	pop	r21
    7034:	4f 91       	pop	r20
    7036:	3f 91       	pop	r19
    7038:	2f 91       	pop	r18
    703a:	0f 90       	pop	r0
    703c:	0b be       	out	0x3b, r0	; 59
    703e:	0f 90       	pop	r0
    7040:	0f be       	out	0x3f, r0	; 63
    7042:	0f 90       	pop	r0
    7044:	1f 90       	pop	r1
    7046:	18 95       	reti

00007048 <__vector_81>:
    7048:	1f 92       	push	r1
    704a:	0f 92       	push	r0
    704c:	0f b6       	in	r0, 0x3f	; 63
    704e:	0f 92       	push	r0
    7050:	11 24       	eor	r1, r1
    7052:	0b b6       	in	r0, 0x3b	; 59
    7054:	0f 92       	push	r0
    7056:	2f 93       	push	r18
    7058:	3f 93       	push	r19
    705a:	4f 93       	push	r20
    705c:	5f 93       	push	r21
    705e:	6f 93       	push	r22
    7060:	7f 93       	push	r23
    7062:	8f 93       	push	r24
    7064:	9f 93       	push	r25
    7066:	af 93       	push	r26
    7068:	bf 93       	push	r27
    706a:	ef 93       	push	r30
    706c:	ff 93       	push	r31
    706e:	e0 91 fc 22 	lds	r30, 0x22FC
    7072:	f0 91 fd 22 	lds	r31, 0x22FD
    7076:	30 97       	sbiw	r30, 0x00	; 0
    7078:	09 f0       	breq	.+2      	; 0x707c <__vector_81+0x34>
    707a:	19 95       	eicall
    707c:	ff 91       	pop	r31
    707e:	ef 91       	pop	r30
    7080:	bf 91       	pop	r27
    7082:	af 91       	pop	r26
    7084:	9f 91       	pop	r25
    7086:	8f 91       	pop	r24
    7088:	7f 91       	pop	r23
    708a:	6f 91       	pop	r22
    708c:	5f 91       	pop	r21
    708e:	4f 91       	pop	r20
    7090:	3f 91       	pop	r19
    7092:	2f 91       	pop	r18
    7094:	0f 90       	pop	r0
    7096:	0b be       	out	0x3b, r0	; 59
    7098:	0f 90       	pop	r0
    709a:	0f be       	out	0x3f, r0	; 63
    709c:	0f 90       	pop	r0
    709e:	1f 90       	pop	r1
    70a0:	18 95       	reti

000070a2 <__vector_82>:
    70a2:	1f 92       	push	r1
    70a4:	0f 92       	push	r0
    70a6:	0f b6       	in	r0, 0x3f	; 63
    70a8:	0f 92       	push	r0
    70aa:	11 24       	eor	r1, r1
    70ac:	0b b6       	in	r0, 0x3b	; 59
    70ae:	0f 92       	push	r0
    70b0:	2f 93       	push	r18
    70b2:	3f 93       	push	r19
    70b4:	4f 93       	push	r20
    70b6:	5f 93       	push	r21
    70b8:	6f 93       	push	r22
    70ba:	7f 93       	push	r23
    70bc:	8f 93       	push	r24
    70be:	9f 93       	push	r25
    70c0:	af 93       	push	r26
    70c2:	bf 93       	push	r27
    70c4:	ef 93       	push	r30
    70c6:	ff 93       	push	r31
    70c8:	e0 91 fe 22 	lds	r30, 0x22FE
    70cc:	f0 91 ff 22 	lds	r31, 0x22FF
    70d0:	30 97       	sbiw	r30, 0x00	; 0
    70d2:	09 f0       	breq	.+2      	; 0x70d6 <__vector_82+0x34>
    70d4:	19 95       	eicall
    70d6:	ff 91       	pop	r31
    70d8:	ef 91       	pop	r30
    70da:	bf 91       	pop	r27
    70dc:	af 91       	pop	r26
    70de:	9f 91       	pop	r25
    70e0:	8f 91       	pop	r24
    70e2:	7f 91       	pop	r23
    70e4:	6f 91       	pop	r22
    70e6:	5f 91       	pop	r21
    70e8:	4f 91       	pop	r20
    70ea:	3f 91       	pop	r19
    70ec:	2f 91       	pop	r18
    70ee:	0f 90       	pop	r0
    70f0:	0b be       	out	0x3b, r0	; 59
    70f2:	0f 90       	pop	r0
    70f4:	0f be       	out	0x3f, r0	; 63
    70f6:	0f 90       	pop	r0
    70f8:	1f 90       	pop	r1
    70fa:	18 95       	reti

000070fc <__vector_83>:
    70fc:	1f 92       	push	r1
    70fe:	0f 92       	push	r0
    7100:	0f b6       	in	r0, 0x3f	; 63
    7102:	0f 92       	push	r0
    7104:	11 24       	eor	r1, r1
    7106:	0b b6       	in	r0, 0x3b	; 59
    7108:	0f 92       	push	r0
    710a:	2f 93       	push	r18
    710c:	3f 93       	push	r19
    710e:	4f 93       	push	r20
    7110:	5f 93       	push	r21
    7112:	6f 93       	push	r22
    7114:	7f 93       	push	r23
    7116:	8f 93       	push	r24
    7118:	9f 93       	push	r25
    711a:	af 93       	push	r26
    711c:	bf 93       	push	r27
    711e:	ef 93       	push	r30
    7120:	ff 93       	push	r31
    7122:	e0 91 00 23 	lds	r30, 0x2300
    7126:	f0 91 01 23 	lds	r31, 0x2301
    712a:	30 97       	sbiw	r30, 0x00	; 0
    712c:	09 f0       	breq	.+2      	; 0x7130 <__vector_83+0x34>
    712e:	19 95       	eicall
    7130:	ff 91       	pop	r31
    7132:	ef 91       	pop	r30
    7134:	bf 91       	pop	r27
    7136:	af 91       	pop	r26
    7138:	9f 91       	pop	r25
    713a:	8f 91       	pop	r24
    713c:	7f 91       	pop	r23
    713e:	6f 91       	pop	r22
    7140:	5f 91       	pop	r21
    7142:	4f 91       	pop	r20
    7144:	3f 91       	pop	r19
    7146:	2f 91       	pop	r18
    7148:	0f 90       	pop	r0
    714a:	0b be       	out	0x3b, r0	; 59
    714c:	0f 90       	pop	r0
    714e:	0f be       	out	0x3f, r0	; 63
    7150:	0f 90       	pop	r0
    7152:	1f 90       	pop	r1
    7154:	18 95       	reti

00007156 <__vector_84>:
    7156:	1f 92       	push	r1
    7158:	0f 92       	push	r0
    715a:	0f b6       	in	r0, 0x3f	; 63
    715c:	0f 92       	push	r0
    715e:	11 24       	eor	r1, r1
    7160:	0b b6       	in	r0, 0x3b	; 59
    7162:	0f 92       	push	r0
    7164:	2f 93       	push	r18
    7166:	3f 93       	push	r19
    7168:	4f 93       	push	r20
    716a:	5f 93       	push	r21
    716c:	6f 93       	push	r22
    716e:	7f 93       	push	r23
    7170:	8f 93       	push	r24
    7172:	9f 93       	push	r25
    7174:	af 93       	push	r26
    7176:	bf 93       	push	r27
    7178:	ef 93       	push	r30
    717a:	ff 93       	push	r31
    717c:	e0 91 02 23 	lds	r30, 0x2302
    7180:	f0 91 03 23 	lds	r31, 0x2303
    7184:	30 97       	sbiw	r30, 0x00	; 0
    7186:	09 f0       	breq	.+2      	; 0x718a <__vector_84+0x34>
    7188:	19 95       	eicall
    718a:	ff 91       	pop	r31
    718c:	ef 91       	pop	r30
    718e:	bf 91       	pop	r27
    7190:	af 91       	pop	r26
    7192:	9f 91       	pop	r25
    7194:	8f 91       	pop	r24
    7196:	7f 91       	pop	r23
    7198:	6f 91       	pop	r22
    719a:	5f 91       	pop	r21
    719c:	4f 91       	pop	r20
    719e:	3f 91       	pop	r19
    71a0:	2f 91       	pop	r18
    71a2:	0f 90       	pop	r0
    71a4:	0b be       	out	0x3b, r0	; 59
    71a6:	0f 90       	pop	r0
    71a8:	0f be       	out	0x3f, r0	; 63
    71aa:	0f 90       	pop	r0
    71ac:	1f 90       	pop	r1
    71ae:	18 95       	reti

000071b0 <__vector_85>:
    71b0:	1f 92       	push	r1
    71b2:	0f 92       	push	r0
    71b4:	0f b6       	in	r0, 0x3f	; 63
    71b6:	0f 92       	push	r0
    71b8:	11 24       	eor	r1, r1
    71ba:	0b b6       	in	r0, 0x3b	; 59
    71bc:	0f 92       	push	r0
    71be:	2f 93       	push	r18
    71c0:	3f 93       	push	r19
    71c2:	4f 93       	push	r20
    71c4:	5f 93       	push	r21
    71c6:	6f 93       	push	r22
    71c8:	7f 93       	push	r23
    71ca:	8f 93       	push	r24
    71cc:	9f 93       	push	r25
    71ce:	af 93       	push	r26
    71d0:	bf 93       	push	r27
    71d2:	ef 93       	push	r30
    71d4:	ff 93       	push	r31
    71d6:	e0 91 04 23 	lds	r30, 0x2304
    71da:	f0 91 05 23 	lds	r31, 0x2305
    71de:	30 97       	sbiw	r30, 0x00	; 0
    71e0:	09 f0       	breq	.+2      	; 0x71e4 <__vector_85+0x34>
    71e2:	19 95       	eicall
    71e4:	ff 91       	pop	r31
    71e6:	ef 91       	pop	r30
    71e8:	bf 91       	pop	r27
    71ea:	af 91       	pop	r26
    71ec:	9f 91       	pop	r25
    71ee:	8f 91       	pop	r24
    71f0:	7f 91       	pop	r23
    71f2:	6f 91       	pop	r22
    71f4:	5f 91       	pop	r21
    71f6:	4f 91       	pop	r20
    71f8:	3f 91       	pop	r19
    71fa:	2f 91       	pop	r18
    71fc:	0f 90       	pop	r0
    71fe:	0b be       	out	0x3b, r0	; 59
    7200:	0f 90       	pop	r0
    7202:	0f be       	out	0x3f, r0	; 63
    7204:	0f 90       	pop	r0
    7206:	1f 90       	pop	r1
    7208:	18 95       	reti

0000720a <__vector_86>:
    720a:	1f 92       	push	r1
    720c:	0f 92       	push	r0
    720e:	0f b6       	in	r0, 0x3f	; 63
    7210:	0f 92       	push	r0
    7212:	11 24       	eor	r1, r1
    7214:	0b b6       	in	r0, 0x3b	; 59
    7216:	0f 92       	push	r0
    7218:	2f 93       	push	r18
    721a:	3f 93       	push	r19
    721c:	4f 93       	push	r20
    721e:	5f 93       	push	r21
    7220:	6f 93       	push	r22
    7222:	7f 93       	push	r23
    7224:	8f 93       	push	r24
    7226:	9f 93       	push	r25
    7228:	af 93       	push	r26
    722a:	bf 93       	push	r27
    722c:	ef 93       	push	r30
    722e:	ff 93       	push	r31
    7230:	e0 91 06 23 	lds	r30, 0x2306
    7234:	f0 91 07 23 	lds	r31, 0x2307
    7238:	30 97       	sbiw	r30, 0x00	; 0
    723a:	09 f0       	breq	.+2      	; 0x723e <__vector_86+0x34>
    723c:	19 95       	eicall
    723e:	ff 91       	pop	r31
    7240:	ef 91       	pop	r30
    7242:	bf 91       	pop	r27
    7244:	af 91       	pop	r26
    7246:	9f 91       	pop	r25
    7248:	8f 91       	pop	r24
    724a:	7f 91       	pop	r23
    724c:	6f 91       	pop	r22
    724e:	5f 91       	pop	r21
    7250:	4f 91       	pop	r20
    7252:	3f 91       	pop	r19
    7254:	2f 91       	pop	r18
    7256:	0f 90       	pop	r0
    7258:	0b be       	out	0x3b, r0	; 59
    725a:	0f 90       	pop	r0
    725c:	0f be       	out	0x3f, r0	; 63
    725e:	0f 90       	pop	r0
    7260:	1f 90       	pop	r1
    7262:	18 95       	reti

00007264 <__vector_47>:
    7264:	1f 92       	push	r1
    7266:	0f 92       	push	r0
    7268:	0f b6       	in	r0, 0x3f	; 63
    726a:	0f 92       	push	r0
    726c:	11 24       	eor	r1, r1
    726e:	0b b6       	in	r0, 0x3b	; 59
    7270:	0f 92       	push	r0
    7272:	2f 93       	push	r18
    7274:	3f 93       	push	r19
    7276:	4f 93       	push	r20
    7278:	5f 93       	push	r21
    727a:	6f 93       	push	r22
    727c:	7f 93       	push	r23
    727e:	8f 93       	push	r24
    7280:	9f 93       	push	r25
    7282:	af 93       	push	r26
    7284:	bf 93       	push	r27
    7286:	ef 93       	push	r30
    7288:	ff 93       	push	r31
    728a:	e0 91 08 23 	lds	r30, 0x2308
    728e:	f0 91 09 23 	lds	r31, 0x2309
    7292:	30 97       	sbiw	r30, 0x00	; 0
    7294:	09 f0       	breq	.+2      	; 0x7298 <__vector_47+0x34>
    7296:	19 95       	eicall
    7298:	ff 91       	pop	r31
    729a:	ef 91       	pop	r30
    729c:	bf 91       	pop	r27
    729e:	af 91       	pop	r26
    72a0:	9f 91       	pop	r25
    72a2:	8f 91       	pop	r24
    72a4:	7f 91       	pop	r23
    72a6:	6f 91       	pop	r22
    72a8:	5f 91       	pop	r21
    72aa:	4f 91       	pop	r20
    72ac:	3f 91       	pop	r19
    72ae:	2f 91       	pop	r18
    72b0:	0f 90       	pop	r0
    72b2:	0b be       	out	0x3b, r0	; 59
    72b4:	0f 90       	pop	r0
    72b6:	0f be       	out	0x3f, r0	; 63
    72b8:	0f 90       	pop	r0
    72ba:	1f 90       	pop	r1
    72bc:	18 95       	reti

000072be <__vector_48>:
    72be:	1f 92       	push	r1
    72c0:	0f 92       	push	r0
    72c2:	0f b6       	in	r0, 0x3f	; 63
    72c4:	0f 92       	push	r0
    72c6:	11 24       	eor	r1, r1
    72c8:	0b b6       	in	r0, 0x3b	; 59
    72ca:	0f 92       	push	r0
    72cc:	2f 93       	push	r18
    72ce:	3f 93       	push	r19
    72d0:	4f 93       	push	r20
    72d2:	5f 93       	push	r21
    72d4:	6f 93       	push	r22
    72d6:	7f 93       	push	r23
    72d8:	8f 93       	push	r24
    72da:	9f 93       	push	r25
    72dc:	af 93       	push	r26
    72de:	bf 93       	push	r27
    72e0:	ef 93       	push	r30
    72e2:	ff 93       	push	r31
    72e4:	e0 91 0a 23 	lds	r30, 0x230A
    72e8:	f0 91 0b 23 	lds	r31, 0x230B
    72ec:	30 97       	sbiw	r30, 0x00	; 0
    72ee:	09 f0       	breq	.+2      	; 0x72f2 <__vector_48+0x34>
    72f0:	19 95       	eicall
    72f2:	ff 91       	pop	r31
    72f4:	ef 91       	pop	r30
    72f6:	bf 91       	pop	r27
    72f8:	af 91       	pop	r26
    72fa:	9f 91       	pop	r25
    72fc:	8f 91       	pop	r24
    72fe:	7f 91       	pop	r23
    7300:	6f 91       	pop	r22
    7302:	5f 91       	pop	r21
    7304:	4f 91       	pop	r20
    7306:	3f 91       	pop	r19
    7308:	2f 91       	pop	r18
    730a:	0f 90       	pop	r0
    730c:	0b be       	out	0x3b, r0	; 59
    730e:	0f 90       	pop	r0
    7310:	0f be       	out	0x3f, r0	; 63
    7312:	0f 90       	pop	r0
    7314:	1f 90       	pop	r1
    7316:	18 95       	reti

00007318 <__vector_49>:
    7318:	1f 92       	push	r1
    731a:	0f 92       	push	r0
    731c:	0f b6       	in	r0, 0x3f	; 63
    731e:	0f 92       	push	r0
    7320:	11 24       	eor	r1, r1
    7322:	0b b6       	in	r0, 0x3b	; 59
    7324:	0f 92       	push	r0
    7326:	2f 93       	push	r18
    7328:	3f 93       	push	r19
    732a:	4f 93       	push	r20
    732c:	5f 93       	push	r21
    732e:	6f 93       	push	r22
    7330:	7f 93       	push	r23
    7332:	8f 93       	push	r24
    7334:	9f 93       	push	r25
    7336:	af 93       	push	r26
    7338:	bf 93       	push	r27
    733a:	ef 93       	push	r30
    733c:	ff 93       	push	r31
    733e:	e0 91 0c 23 	lds	r30, 0x230C
    7342:	f0 91 0d 23 	lds	r31, 0x230D
    7346:	30 97       	sbiw	r30, 0x00	; 0
    7348:	09 f0       	breq	.+2      	; 0x734c <__vector_49+0x34>
    734a:	19 95       	eicall
    734c:	ff 91       	pop	r31
    734e:	ef 91       	pop	r30
    7350:	bf 91       	pop	r27
    7352:	af 91       	pop	r26
    7354:	9f 91       	pop	r25
    7356:	8f 91       	pop	r24
    7358:	7f 91       	pop	r23
    735a:	6f 91       	pop	r22
    735c:	5f 91       	pop	r21
    735e:	4f 91       	pop	r20
    7360:	3f 91       	pop	r19
    7362:	2f 91       	pop	r18
    7364:	0f 90       	pop	r0
    7366:	0b be       	out	0x3b, r0	; 59
    7368:	0f 90       	pop	r0
    736a:	0f be       	out	0x3f, r0	; 63
    736c:	0f 90       	pop	r0
    736e:	1f 90       	pop	r1
    7370:	18 95       	reti

00007372 <__vector_50>:
    7372:	1f 92       	push	r1
    7374:	0f 92       	push	r0
    7376:	0f b6       	in	r0, 0x3f	; 63
    7378:	0f 92       	push	r0
    737a:	11 24       	eor	r1, r1
    737c:	0b b6       	in	r0, 0x3b	; 59
    737e:	0f 92       	push	r0
    7380:	2f 93       	push	r18
    7382:	3f 93       	push	r19
    7384:	4f 93       	push	r20
    7386:	5f 93       	push	r21
    7388:	6f 93       	push	r22
    738a:	7f 93       	push	r23
    738c:	8f 93       	push	r24
    738e:	9f 93       	push	r25
    7390:	af 93       	push	r26
    7392:	bf 93       	push	r27
    7394:	ef 93       	push	r30
    7396:	ff 93       	push	r31
    7398:	e0 91 0e 23 	lds	r30, 0x230E
    739c:	f0 91 0f 23 	lds	r31, 0x230F
    73a0:	30 97       	sbiw	r30, 0x00	; 0
    73a2:	09 f0       	breq	.+2      	; 0x73a6 <__vector_50+0x34>
    73a4:	19 95       	eicall
    73a6:	ff 91       	pop	r31
    73a8:	ef 91       	pop	r30
    73aa:	bf 91       	pop	r27
    73ac:	af 91       	pop	r26
    73ae:	9f 91       	pop	r25
    73b0:	8f 91       	pop	r24
    73b2:	7f 91       	pop	r23
    73b4:	6f 91       	pop	r22
    73b6:	5f 91       	pop	r21
    73b8:	4f 91       	pop	r20
    73ba:	3f 91       	pop	r19
    73bc:	2f 91       	pop	r18
    73be:	0f 90       	pop	r0
    73c0:	0b be       	out	0x3b, r0	; 59
    73c2:	0f 90       	pop	r0
    73c4:	0f be       	out	0x3f, r0	; 63
    73c6:	0f 90       	pop	r0
    73c8:	1f 90       	pop	r1
    73ca:	18 95       	reti

000073cc <__vector_51>:
    73cc:	1f 92       	push	r1
    73ce:	0f 92       	push	r0
    73d0:	0f b6       	in	r0, 0x3f	; 63
    73d2:	0f 92       	push	r0
    73d4:	11 24       	eor	r1, r1
    73d6:	0b b6       	in	r0, 0x3b	; 59
    73d8:	0f 92       	push	r0
    73da:	2f 93       	push	r18
    73dc:	3f 93       	push	r19
    73de:	4f 93       	push	r20
    73e0:	5f 93       	push	r21
    73e2:	6f 93       	push	r22
    73e4:	7f 93       	push	r23
    73e6:	8f 93       	push	r24
    73e8:	9f 93       	push	r25
    73ea:	af 93       	push	r26
    73ec:	bf 93       	push	r27
    73ee:	ef 93       	push	r30
    73f0:	ff 93       	push	r31
    73f2:	e0 91 10 23 	lds	r30, 0x2310
    73f6:	f0 91 11 23 	lds	r31, 0x2311
    73fa:	30 97       	sbiw	r30, 0x00	; 0
    73fc:	09 f0       	breq	.+2      	; 0x7400 <__vector_51+0x34>
    73fe:	19 95       	eicall
    7400:	ff 91       	pop	r31
    7402:	ef 91       	pop	r30
    7404:	bf 91       	pop	r27
    7406:	af 91       	pop	r26
    7408:	9f 91       	pop	r25
    740a:	8f 91       	pop	r24
    740c:	7f 91       	pop	r23
    740e:	6f 91       	pop	r22
    7410:	5f 91       	pop	r21
    7412:	4f 91       	pop	r20
    7414:	3f 91       	pop	r19
    7416:	2f 91       	pop	r18
    7418:	0f 90       	pop	r0
    741a:	0b be       	out	0x3b, r0	; 59
    741c:	0f 90       	pop	r0
    741e:	0f be       	out	0x3f, r0	; 63
    7420:	0f 90       	pop	r0
    7422:	1f 90       	pop	r1
    7424:	18 95       	reti

00007426 <__vector_52>:
    7426:	1f 92       	push	r1
    7428:	0f 92       	push	r0
    742a:	0f b6       	in	r0, 0x3f	; 63
    742c:	0f 92       	push	r0
    742e:	11 24       	eor	r1, r1
    7430:	0b b6       	in	r0, 0x3b	; 59
    7432:	0f 92       	push	r0
    7434:	2f 93       	push	r18
    7436:	3f 93       	push	r19
    7438:	4f 93       	push	r20
    743a:	5f 93       	push	r21
    743c:	6f 93       	push	r22
    743e:	7f 93       	push	r23
    7440:	8f 93       	push	r24
    7442:	9f 93       	push	r25
    7444:	af 93       	push	r26
    7446:	bf 93       	push	r27
    7448:	ef 93       	push	r30
    744a:	ff 93       	push	r31
    744c:	e0 91 12 23 	lds	r30, 0x2312
    7450:	f0 91 13 23 	lds	r31, 0x2313
    7454:	30 97       	sbiw	r30, 0x00	; 0
    7456:	09 f0       	breq	.+2      	; 0x745a <__vector_52+0x34>
    7458:	19 95       	eicall
    745a:	ff 91       	pop	r31
    745c:	ef 91       	pop	r30
    745e:	bf 91       	pop	r27
    7460:	af 91       	pop	r26
    7462:	9f 91       	pop	r25
    7464:	8f 91       	pop	r24
    7466:	7f 91       	pop	r23
    7468:	6f 91       	pop	r22
    746a:	5f 91       	pop	r21
    746c:	4f 91       	pop	r20
    746e:	3f 91       	pop	r19
    7470:	2f 91       	pop	r18
    7472:	0f 90       	pop	r0
    7474:	0b be       	out	0x3b, r0	; 59
    7476:	0f 90       	pop	r0
    7478:	0f be       	out	0x3f, r0	; 63
    747a:	0f 90       	pop	r0
    747c:	1f 90       	pop	r1
    747e:	18 95       	reti

00007480 <__vector_53>:
    7480:	1f 92       	push	r1
    7482:	0f 92       	push	r0
    7484:	0f b6       	in	r0, 0x3f	; 63
    7486:	0f 92       	push	r0
    7488:	11 24       	eor	r1, r1
    748a:	0b b6       	in	r0, 0x3b	; 59
    748c:	0f 92       	push	r0
    748e:	2f 93       	push	r18
    7490:	3f 93       	push	r19
    7492:	4f 93       	push	r20
    7494:	5f 93       	push	r21
    7496:	6f 93       	push	r22
    7498:	7f 93       	push	r23
    749a:	8f 93       	push	r24
    749c:	9f 93       	push	r25
    749e:	af 93       	push	r26
    74a0:	bf 93       	push	r27
    74a2:	ef 93       	push	r30
    74a4:	ff 93       	push	r31
    74a6:	e0 91 14 23 	lds	r30, 0x2314
    74aa:	f0 91 15 23 	lds	r31, 0x2315
    74ae:	30 97       	sbiw	r30, 0x00	; 0
    74b0:	09 f0       	breq	.+2      	; 0x74b4 <__vector_53+0x34>
    74b2:	19 95       	eicall
    74b4:	ff 91       	pop	r31
    74b6:	ef 91       	pop	r30
    74b8:	bf 91       	pop	r27
    74ba:	af 91       	pop	r26
    74bc:	9f 91       	pop	r25
    74be:	8f 91       	pop	r24
    74c0:	7f 91       	pop	r23
    74c2:	6f 91       	pop	r22
    74c4:	5f 91       	pop	r21
    74c6:	4f 91       	pop	r20
    74c8:	3f 91       	pop	r19
    74ca:	2f 91       	pop	r18
    74cc:	0f 90       	pop	r0
    74ce:	0b be       	out	0x3b, r0	; 59
    74d0:	0f 90       	pop	r0
    74d2:	0f be       	out	0x3f, r0	; 63
    74d4:	0f 90       	pop	r0
    74d6:	1f 90       	pop	r1
    74d8:	18 95       	reti

000074da <__vector_54>:
    74da:	1f 92       	push	r1
    74dc:	0f 92       	push	r0
    74de:	0f b6       	in	r0, 0x3f	; 63
    74e0:	0f 92       	push	r0
    74e2:	11 24       	eor	r1, r1
    74e4:	0b b6       	in	r0, 0x3b	; 59
    74e6:	0f 92       	push	r0
    74e8:	2f 93       	push	r18
    74ea:	3f 93       	push	r19
    74ec:	4f 93       	push	r20
    74ee:	5f 93       	push	r21
    74f0:	6f 93       	push	r22
    74f2:	7f 93       	push	r23
    74f4:	8f 93       	push	r24
    74f6:	9f 93       	push	r25
    74f8:	af 93       	push	r26
    74fa:	bf 93       	push	r27
    74fc:	ef 93       	push	r30
    74fe:	ff 93       	push	r31
    7500:	e0 91 16 23 	lds	r30, 0x2316
    7504:	f0 91 17 23 	lds	r31, 0x2317
    7508:	30 97       	sbiw	r30, 0x00	; 0
    750a:	09 f0       	breq	.+2      	; 0x750e <__vector_54+0x34>
    750c:	19 95       	eicall
    750e:	ff 91       	pop	r31
    7510:	ef 91       	pop	r30
    7512:	bf 91       	pop	r27
    7514:	af 91       	pop	r26
    7516:	9f 91       	pop	r25
    7518:	8f 91       	pop	r24
    751a:	7f 91       	pop	r23
    751c:	6f 91       	pop	r22
    751e:	5f 91       	pop	r21
    7520:	4f 91       	pop	r20
    7522:	3f 91       	pop	r19
    7524:	2f 91       	pop	r18
    7526:	0f 90       	pop	r0
    7528:	0b be       	out	0x3b, r0	; 59
    752a:	0f 90       	pop	r0
    752c:	0f be       	out	0x3f, r0	; 63
    752e:	0f 90       	pop	r0
    7530:	1f 90       	pop	r1
    7532:	18 95       	reti

00007534 <__vector_55>:
    7534:	1f 92       	push	r1
    7536:	0f 92       	push	r0
    7538:	0f b6       	in	r0, 0x3f	; 63
    753a:	0f 92       	push	r0
    753c:	11 24       	eor	r1, r1
    753e:	0b b6       	in	r0, 0x3b	; 59
    7540:	0f 92       	push	r0
    7542:	2f 93       	push	r18
    7544:	3f 93       	push	r19
    7546:	4f 93       	push	r20
    7548:	5f 93       	push	r21
    754a:	6f 93       	push	r22
    754c:	7f 93       	push	r23
    754e:	8f 93       	push	r24
    7550:	9f 93       	push	r25
    7552:	af 93       	push	r26
    7554:	bf 93       	push	r27
    7556:	ef 93       	push	r30
    7558:	ff 93       	push	r31
    755a:	e0 91 18 23 	lds	r30, 0x2318
    755e:	f0 91 19 23 	lds	r31, 0x2319
    7562:	30 97       	sbiw	r30, 0x00	; 0
    7564:	09 f0       	breq	.+2      	; 0x7568 <__vector_55+0x34>
    7566:	19 95       	eicall
    7568:	ff 91       	pop	r31
    756a:	ef 91       	pop	r30
    756c:	bf 91       	pop	r27
    756e:	af 91       	pop	r26
    7570:	9f 91       	pop	r25
    7572:	8f 91       	pop	r24
    7574:	7f 91       	pop	r23
    7576:	6f 91       	pop	r22
    7578:	5f 91       	pop	r21
    757a:	4f 91       	pop	r20
    757c:	3f 91       	pop	r19
    757e:	2f 91       	pop	r18
    7580:	0f 90       	pop	r0
    7582:	0b be       	out	0x3b, r0	; 59
    7584:	0f 90       	pop	r0
    7586:	0f be       	out	0x3f, r0	; 63
    7588:	0f 90       	pop	r0
    758a:	1f 90       	pop	r1
    758c:	18 95       	reti

0000758e <__vector_56>:
    758e:	1f 92       	push	r1
    7590:	0f 92       	push	r0
    7592:	0f b6       	in	r0, 0x3f	; 63
    7594:	0f 92       	push	r0
    7596:	11 24       	eor	r1, r1
    7598:	0b b6       	in	r0, 0x3b	; 59
    759a:	0f 92       	push	r0
    759c:	2f 93       	push	r18
    759e:	3f 93       	push	r19
    75a0:	4f 93       	push	r20
    75a2:	5f 93       	push	r21
    75a4:	6f 93       	push	r22
    75a6:	7f 93       	push	r23
    75a8:	8f 93       	push	r24
    75aa:	9f 93       	push	r25
    75ac:	af 93       	push	r26
    75ae:	bf 93       	push	r27
    75b0:	ef 93       	push	r30
    75b2:	ff 93       	push	r31
    75b4:	e0 91 1a 23 	lds	r30, 0x231A
    75b8:	f0 91 1b 23 	lds	r31, 0x231B
    75bc:	30 97       	sbiw	r30, 0x00	; 0
    75be:	09 f0       	breq	.+2      	; 0x75c2 <__vector_56+0x34>
    75c0:	19 95       	eicall
    75c2:	ff 91       	pop	r31
    75c4:	ef 91       	pop	r30
    75c6:	bf 91       	pop	r27
    75c8:	af 91       	pop	r26
    75ca:	9f 91       	pop	r25
    75cc:	8f 91       	pop	r24
    75ce:	7f 91       	pop	r23
    75d0:	6f 91       	pop	r22
    75d2:	5f 91       	pop	r21
    75d4:	4f 91       	pop	r20
    75d6:	3f 91       	pop	r19
    75d8:	2f 91       	pop	r18
    75da:	0f 90       	pop	r0
    75dc:	0b be       	out	0x3b, r0	; 59
    75de:	0f 90       	pop	r0
    75e0:	0f be       	out	0x3f, r0	; 63
    75e2:	0f 90       	pop	r0
    75e4:	1f 90       	pop	r1
    75e6:	18 95       	reti

000075e8 <__vector_108>:
    75e8:	1f 92       	push	r1
    75ea:	0f 92       	push	r0
    75ec:	0f b6       	in	r0, 0x3f	; 63
    75ee:	0f 92       	push	r0
    75f0:	11 24       	eor	r1, r1
    75f2:	0b b6       	in	r0, 0x3b	; 59
    75f4:	0f 92       	push	r0
    75f6:	2f 93       	push	r18
    75f8:	3f 93       	push	r19
    75fa:	4f 93       	push	r20
    75fc:	5f 93       	push	r21
    75fe:	6f 93       	push	r22
    7600:	7f 93       	push	r23
    7602:	8f 93       	push	r24
    7604:	9f 93       	push	r25
    7606:	af 93       	push	r26
    7608:	bf 93       	push	r27
    760a:	ef 93       	push	r30
    760c:	ff 93       	push	r31
    760e:	e0 91 1c 23 	lds	r30, 0x231C
    7612:	f0 91 1d 23 	lds	r31, 0x231D
    7616:	30 97       	sbiw	r30, 0x00	; 0
    7618:	09 f0       	breq	.+2      	; 0x761c <__vector_108+0x34>
    761a:	19 95       	eicall
    761c:	ff 91       	pop	r31
    761e:	ef 91       	pop	r30
    7620:	bf 91       	pop	r27
    7622:	af 91       	pop	r26
    7624:	9f 91       	pop	r25
    7626:	8f 91       	pop	r24
    7628:	7f 91       	pop	r23
    762a:	6f 91       	pop	r22
    762c:	5f 91       	pop	r21
    762e:	4f 91       	pop	r20
    7630:	3f 91       	pop	r19
    7632:	2f 91       	pop	r18
    7634:	0f 90       	pop	r0
    7636:	0b be       	out	0x3b, r0	; 59
    7638:	0f 90       	pop	r0
    763a:	0f be       	out	0x3f, r0	; 63
    763c:	0f 90       	pop	r0
    763e:	1f 90       	pop	r1
    7640:	18 95       	reti

00007642 <__vector_109>:
    7642:	1f 92       	push	r1
    7644:	0f 92       	push	r0
    7646:	0f b6       	in	r0, 0x3f	; 63
    7648:	0f 92       	push	r0
    764a:	11 24       	eor	r1, r1
    764c:	0b b6       	in	r0, 0x3b	; 59
    764e:	0f 92       	push	r0
    7650:	2f 93       	push	r18
    7652:	3f 93       	push	r19
    7654:	4f 93       	push	r20
    7656:	5f 93       	push	r21
    7658:	6f 93       	push	r22
    765a:	7f 93       	push	r23
    765c:	8f 93       	push	r24
    765e:	9f 93       	push	r25
    7660:	af 93       	push	r26
    7662:	bf 93       	push	r27
    7664:	ef 93       	push	r30
    7666:	ff 93       	push	r31
    7668:	e0 91 1e 23 	lds	r30, 0x231E
    766c:	f0 91 1f 23 	lds	r31, 0x231F
    7670:	30 97       	sbiw	r30, 0x00	; 0
    7672:	09 f0       	breq	.+2      	; 0x7676 <__vector_109+0x34>
    7674:	19 95       	eicall
    7676:	ff 91       	pop	r31
    7678:	ef 91       	pop	r30
    767a:	bf 91       	pop	r27
    767c:	af 91       	pop	r26
    767e:	9f 91       	pop	r25
    7680:	8f 91       	pop	r24
    7682:	7f 91       	pop	r23
    7684:	6f 91       	pop	r22
    7686:	5f 91       	pop	r21
    7688:	4f 91       	pop	r20
    768a:	3f 91       	pop	r19
    768c:	2f 91       	pop	r18
    768e:	0f 90       	pop	r0
    7690:	0b be       	out	0x3b, r0	; 59
    7692:	0f 90       	pop	r0
    7694:	0f be       	out	0x3f, r0	; 63
    7696:	0f 90       	pop	r0
    7698:	1f 90       	pop	r1
    769a:	18 95       	reti

0000769c <__vector_110>:
    769c:	1f 92       	push	r1
    769e:	0f 92       	push	r0
    76a0:	0f b6       	in	r0, 0x3f	; 63
    76a2:	0f 92       	push	r0
    76a4:	11 24       	eor	r1, r1
    76a6:	0b b6       	in	r0, 0x3b	; 59
    76a8:	0f 92       	push	r0
    76aa:	2f 93       	push	r18
    76ac:	3f 93       	push	r19
    76ae:	4f 93       	push	r20
    76b0:	5f 93       	push	r21
    76b2:	6f 93       	push	r22
    76b4:	7f 93       	push	r23
    76b6:	8f 93       	push	r24
    76b8:	9f 93       	push	r25
    76ba:	af 93       	push	r26
    76bc:	bf 93       	push	r27
    76be:	ef 93       	push	r30
    76c0:	ff 93       	push	r31
    76c2:	e0 91 20 23 	lds	r30, 0x2320
    76c6:	f0 91 21 23 	lds	r31, 0x2321
    76ca:	30 97       	sbiw	r30, 0x00	; 0
    76cc:	09 f0       	breq	.+2      	; 0x76d0 <__vector_110+0x34>
    76ce:	19 95       	eicall
    76d0:	ff 91       	pop	r31
    76d2:	ef 91       	pop	r30
    76d4:	bf 91       	pop	r27
    76d6:	af 91       	pop	r26
    76d8:	9f 91       	pop	r25
    76da:	8f 91       	pop	r24
    76dc:	7f 91       	pop	r23
    76de:	6f 91       	pop	r22
    76e0:	5f 91       	pop	r21
    76e2:	4f 91       	pop	r20
    76e4:	3f 91       	pop	r19
    76e6:	2f 91       	pop	r18
    76e8:	0f 90       	pop	r0
    76ea:	0b be       	out	0x3b, r0	; 59
    76ec:	0f 90       	pop	r0
    76ee:	0f be       	out	0x3f, r0	; 63
    76f0:	0f 90       	pop	r0
    76f2:	1f 90       	pop	r1
    76f4:	18 95       	reti

000076f6 <__vector_111>:
    76f6:	1f 92       	push	r1
    76f8:	0f 92       	push	r0
    76fa:	0f b6       	in	r0, 0x3f	; 63
    76fc:	0f 92       	push	r0
    76fe:	11 24       	eor	r1, r1
    7700:	0b b6       	in	r0, 0x3b	; 59
    7702:	0f 92       	push	r0
    7704:	2f 93       	push	r18
    7706:	3f 93       	push	r19
    7708:	4f 93       	push	r20
    770a:	5f 93       	push	r21
    770c:	6f 93       	push	r22
    770e:	7f 93       	push	r23
    7710:	8f 93       	push	r24
    7712:	9f 93       	push	r25
    7714:	af 93       	push	r26
    7716:	bf 93       	push	r27
    7718:	ef 93       	push	r30
    771a:	ff 93       	push	r31
    771c:	e0 91 22 23 	lds	r30, 0x2322
    7720:	f0 91 23 23 	lds	r31, 0x2323
    7724:	30 97       	sbiw	r30, 0x00	; 0
    7726:	09 f0       	breq	.+2      	; 0x772a <__vector_111+0x34>
    7728:	19 95       	eicall
    772a:	ff 91       	pop	r31
    772c:	ef 91       	pop	r30
    772e:	bf 91       	pop	r27
    7730:	af 91       	pop	r26
    7732:	9f 91       	pop	r25
    7734:	8f 91       	pop	r24
    7736:	7f 91       	pop	r23
    7738:	6f 91       	pop	r22
    773a:	5f 91       	pop	r21
    773c:	4f 91       	pop	r20
    773e:	3f 91       	pop	r19
    7740:	2f 91       	pop	r18
    7742:	0f 90       	pop	r0
    7744:	0b be       	out	0x3b, r0	; 59
    7746:	0f 90       	pop	r0
    7748:	0f be       	out	0x3f, r0	; 63
    774a:	0f 90       	pop	r0
    774c:	1f 90       	pop	r1
    774e:	18 95       	reti

00007750 <__vector_112>:
    7750:	1f 92       	push	r1
    7752:	0f 92       	push	r0
    7754:	0f b6       	in	r0, 0x3f	; 63
    7756:	0f 92       	push	r0
    7758:	11 24       	eor	r1, r1
    775a:	0b b6       	in	r0, 0x3b	; 59
    775c:	0f 92       	push	r0
    775e:	2f 93       	push	r18
    7760:	3f 93       	push	r19
    7762:	4f 93       	push	r20
    7764:	5f 93       	push	r21
    7766:	6f 93       	push	r22
    7768:	7f 93       	push	r23
    776a:	8f 93       	push	r24
    776c:	9f 93       	push	r25
    776e:	af 93       	push	r26
    7770:	bf 93       	push	r27
    7772:	ef 93       	push	r30
    7774:	ff 93       	push	r31
    7776:	e0 91 24 23 	lds	r30, 0x2324
    777a:	f0 91 25 23 	lds	r31, 0x2325
    777e:	30 97       	sbiw	r30, 0x00	; 0
    7780:	09 f0       	breq	.+2      	; 0x7784 <__vector_112+0x34>
    7782:	19 95       	eicall
    7784:	ff 91       	pop	r31
    7786:	ef 91       	pop	r30
    7788:	bf 91       	pop	r27
    778a:	af 91       	pop	r26
    778c:	9f 91       	pop	r25
    778e:	8f 91       	pop	r24
    7790:	7f 91       	pop	r23
    7792:	6f 91       	pop	r22
    7794:	5f 91       	pop	r21
    7796:	4f 91       	pop	r20
    7798:	3f 91       	pop	r19
    779a:	2f 91       	pop	r18
    779c:	0f 90       	pop	r0
    779e:	0b be       	out	0x3b, r0	; 59
    77a0:	0f 90       	pop	r0
    77a2:	0f be       	out	0x3f, r0	; 63
    77a4:	0f 90       	pop	r0
    77a6:	1f 90       	pop	r1
    77a8:	18 95       	reti

000077aa <__vector_113>:
    77aa:	1f 92       	push	r1
    77ac:	0f 92       	push	r0
    77ae:	0f b6       	in	r0, 0x3f	; 63
    77b0:	0f 92       	push	r0
    77b2:	11 24       	eor	r1, r1
    77b4:	0b b6       	in	r0, 0x3b	; 59
    77b6:	0f 92       	push	r0
    77b8:	2f 93       	push	r18
    77ba:	3f 93       	push	r19
    77bc:	4f 93       	push	r20
    77be:	5f 93       	push	r21
    77c0:	6f 93       	push	r22
    77c2:	7f 93       	push	r23
    77c4:	8f 93       	push	r24
    77c6:	9f 93       	push	r25
    77c8:	af 93       	push	r26
    77ca:	bf 93       	push	r27
    77cc:	ef 93       	push	r30
    77ce:	ff 93       	push	r31
    77d0:	e0 91 26 23 	lds	r30, 0x2326
    77d4:	f0 91 27 23 	lds	r31, 0x2327
    77d8:	30 97       	sbiw	r30, 0x00	; 0
    77da:	09 f0       	breq	.+2      	; 0x77de <__vector_113+0x34>
    77dc:	19 95       	eicall
    77de:	ff 91       	pop	r31
    77e0:	ef 91       	pop	r30
    77e2:	bf 91       	pop	r27
    77e4:	af 91       	pop	r26
    77e6:	9f 91       	pop	r25
    77e8:	8f 91       	pop	r24
    77ea:	7f 91       	pop	r23
    77ec:	6f 91       	pop	r22
    77ee:	5f 91       	pop	r21
    77f0:	4f 91       	pop	r20
    77f2:	3f 91       	pop	r19
    77f4:	2f 91       	pop	r18
    77f6:	0f 90       	pop	r0
    77f8:	0b be       	out	0x3b, r0	; 59
    77fa:	0f 90       	pop	r0
    77fc:	0f be       	out	0x3f, r0	; 63
    77fe:	0f 90       	pop	r0
    7800:	1f 90       	pop	r1
    7802:	18 95       	reti

00007804 <tc_enable>:
    7804:	cf 93       	push	r28
    7806:	cf b7       	in	r28, 0x3f	; 63
    7808:	f8 94       	cli
    780a:	81 15       	cp	r24, r1
    780c:	28 e0       	ldi	r18, 0x08	; 8
    780e:	92 07       	cpc	r25, r18
    7810:	11 f4       	brne	.+4      	; 0x7816 <tc_enable+0x12>
    7812:	61 e0       	ldi	r22, 0x01	; 1
    7814:	05 c0       	rjmp	.+10     	; 0x7820 <tc_enable+0x1c>
    7816:	80 34       	cpi	r24, 0x40	; 64
    7818:	28 e0       	ldi	r18, 0x08	; 8
    781a:	92 07       	cpc	r25, r18
    781c:	49 f4       	brne	.+18     	; 0x7830 <tc_enable+0x2c>
    781e:	62 e0       	ldi	r22, 0x02	; 2
    7820:	83 e0       	ldi	r24, 0x03	; 3
    7822:	90 e0       	ldi	r25, 0x00	; 0
    7824:	0e 94 7a 30 	call	0x60f4	; 0x60f4 <sysclk_enable_module>
    7828:	64 e0       	ldi	r22, 0x04	; 4
    782a:	83 e0       	ldi	r24, 0x03	; 3
    782c:	90 e0       	ldi	r25, 0x00	; 0
    782e:	31 c0       	rjmp	.+98     	; 0x7892 <tc_enable+0x8e>
    7830:	81 15       	cp	r24, r1
    7832:	29 e0       	ldi	r18, 0x09	; 9
    7834:	92 07       	cpc	r25, r18
    7836:	11 f4       	brne	.+4      	; 0x783c <tc_enable+0x38>
    7838:	61 e0       	ldi	r22, 0x01	; 1
    783a:	05 c0       	rjmp	.+10     	; 0x7846 <tc_enable+0x42>
    783c:	80 34       	cpi	r24, 0x40	; 64
    783e:	29 e0       	ldi	r18, 0x09	; 9
    7840:	92 07       	cpc	r25, r18
    7842:	49 f4       	brne	.+18     	; 0x7856 <tc_enable+0x52>
    7844:	62 e0       	ldi	r22, 0x02	; 2
    7846:	84 e0       	ldi	r24, 0x04	; 4
    7848:	90 e0       	ldi	r25, 0x00	; 0
    784a:	0e 94 7a 30 	call	0x60f4	; 0x60f4 <sysclk_enable_module>
    784e:	64 e0       	ldi	r22, 0x04	; 4
    7850:	84 e0       	ldi	r24, 0x04	; 4
    7852:	90 e0       	ldi	r25, 0x00	; 0
    7854:	1e c0       	rjmp	.+60     	; 0x7892 <tc_enable+0x8e>
    7856:	81 15       	cp	r24, r1
    7858:	2a e0       	ldi	r18, 0x0A	; 10
    785a:	92 07       	cpc	r25, r18
    785c:	11 f4       	brne	.+4      	; 0x7862 <tc_enable+0x5e>
    785e:	61 e0       	ldi	r22, 0x01	; 1
    7860:	05 c0       	rjmp	.+10     	; 0x786c <tc_enable+0x68>
    7862:	80 34       	cpi	r24, 0x40	; 64
    7864:	2a e0       	ldi	r18, 0x0A	; 10
    7866:	92 07       	cpc	r25, r18
    7868:	49 f4       	brne	.+18     	; 0x787c <tc_enable+0x78>
    786a:	62 e0       	ldi	r22, 0x02	; 2
    786c:	85 e0       	ldi	r24, 0x05	; 5
    786e:	90 e0       	ldi	r25, 0x00	; 0
    7870:	0e 94 7a 30 	call	0x60f4	; 0x60f4 <sysclk_enable_module>
    7874:	64 e0       	ldi	r22, 0x04	; 4
    7876:	85 e0       	ldi	r24, 0x05	; 5
    7878:	90 e0       	ldi	r25, 0x00	; 0
    787a:	0b c0       	rjmp	.+22     	; 0x7892 <tc_enable+0x8e>
    787c:	81 15       	cp	r24, r1
    787e:	9b 40       	sbci	r25, 0x0B	; 11
    7880:	91 f4       	brne	.+36     	; 0x78a6 <tc_enable+0xa2>
    7882:	61 e0       	ldi	r22, 0x01	; 1
    7884:	86 e0       	ldi	r24, 0x06	; 6
    7886:	90 e0       	ldi	r25, 0x00	; 0
    7888:	0e 94 7a 30 	call	0x60f4	; 0x60f4 <sysclk_enable_module>
    788c:	64 e0       	ldi	r22, 0x04	; 4
    788e:	86 e0       	ldi	r24, 0x06	; 6
    7890:	90 e0       	ldi	r25, 0x00	; 0
    7892:	0e 94 7a 30 	call	0x60f4	; 0x60f4 <sysclk_enable_module>
    7896:	9f b7       	in	r25, 0x3f	; 63
    7898:	f8 94       	cli
    789a:	80 91 c9 25 	lds	r24, 0x25C9
    789e:	8f 5f       	subi	r24, 0xFF	; 255
    78a0:	80 93 c9 25 	sts	0x25C9, r24
    78a4:	9f bf       	out	0x3f, r25	; 63
    78a6:	cf bf       	out	0x3f, r28	; 63
    78a8:	cf 91       	pop	r28
    78aa:	08 95       	ret

000078ac <twim_interrupt_handler>:
    78ac:	cf 93       	push	r28
    78ae:	df 93       	push	r29
    78b0:	e0 91 28 23 	lds	r30, 0x2328
    78b4:	f0 91 29 23 	lds	r31, 0x2329
    78b8:	84 81       	ldd	r24, Z+4	; 0x04
    78ba:	83 ff       	sbrs	r24, 3
    78bc:	07 c0       	rjmp	.+14     	; 0x78cc <twim_interrupt_handler+0x20>
    78be:	88 60       	ori	r24, 0x08	; 8
    78c0:	84 83       	std	Z+4, r24	; 0x04
    78c2:	83 e0       	ldi	r24, 0x03	; 3
    78c4:	83 83       	std	Z+3, r24	; 0x03
    78c6:	86 ef       	ldi	r24, 0xF6	; 246
    78c8:	9f ef       	ldi	r25, 0xFF	; 255
    78ca:	7d c0       	rjmp	.+250    	; 0x79c6 <twim_interrupt_handler+0x11a>
    78cc:	98 2f       	mov	r25, r24
    78ce:	94 71       	andi	r25, 0x14	; 20
    78d0:	29 f0       	breq	.+10     	; 0x78dc <twim_interrupt_handler+0x30>
    78d2:	83 e0       	ldi	r24, 0x03	; 3
    78d4:	83 83       	std	Z+3, r24	; 0x03
    78d6:	8f ef       	ldi	r24, 0xFF	; 255
    78d8:	9f ef       	ldi	r25, 0xFF	; 255
    78da:	75 c0       	rjmp	.+234    	; 0x79c6 <twim_interrupt_handler+0x11a>
    78dc:	86 ff       	sbrs	r24, 6
    78de:	3d c0       	rjmp	.+122    	; 0x795a <twim_interrupt_handler+0xae>
    78e0:	a0 91 2a 23 	lds	r26, 0x232A
    78e4:	b0 91 2b 23 	lds	r27, 0x232B
    78e8:	80 91 2c 23 	lds	r24, 0x232C
    78ec:	90 91 2d 23 	lds	r25, 0x232D
    78f0:	14 96       	adiw	r26, 0x04	; 4
    78f2:	2d 91       	ld	r18, X+
    78f4:	3c 91       	ld	r19, X
    78f6:	15 97       	sbiw	r26, 0x05	; 5
    78f8:	82 17       	cp	r24, r18
    78fa:	93 07       	cpc	r25, r19
    78fc:	5c f4       	brge	.+22     	; 0x7914 <twim_interrupt_handler+0x68>
    78fe:	a8 0f       	add	r26, r24
    7900:	b9 1f       	adc	r27, r25
    7902:	11 96       	adiw	r26, 0x01	; 1
    7904:	2c 91       	ld	r18, X
    7906:	27 83       	std	Z+7, r18	; 0x07
    7908:	01 96       	adiw	r24, 0x01	; 1
    790a:	80 93 2c 23 	sts	0x232C, r24
    790e:	90 93 2d 23 	sts	0x232D, r25
    7912:	5d c0       	rjmp	.+186    	; 0x79ce <twim_interrupt_handler+0x122>
    7914:	80 91 2e 23 	lds	r24, 0x232E
    7918:	90 91 2f 23 	lds	r25, 0x232F
    791c:	18 96       	adiw	r26, 0x08	; 8
    791e:	2d 91       	ld	r18, X+
    7920:	3c 91       	ld	r19, X
    7922:	19 97       	sbiw	r26, 0x09	; 9
    7924:	82 17       	cp	r24, r18
    7926:	93 07       	cpc	r25, r19
    7928:	b0 f4       	brcc	.+44     	; 0x7956 <twim_interrupt_handler+0xaa>
    792a:	20 91 30 23 	lds	r18, 0x2330
    792e:	22 23       	and	r18, r18
    7930:	21 f0       	breq	.+8      	; 0x793a <twim_interrupt_handler+0x8e>
    7932:	86 81       	ldd	r24, Z+6	; 0x06
    7934:	81 60       	ori	r24, 0x01	; 1
    7936:	86 83       	std	Z+6, r24	; 0x06
    7938:	4a c0       	rjmp	.+148    	; 0x79ce <twim_interrupt_handler+0x122>
    793a:	16 96       	adiw	r26, 0x06	; 6
    793c:	0d 90       	ld	r0, X+
    793e:	bc 91       	ld	r27, X
    7940:	a0 2d       	mov	r26, r0
    7942:	a8 0f       	add	r26, r24
    7944:	b9 1f       	adc	r27, r25
    7946:	2c 91       	ld	r18, X
    7948:	27 83       	std	Z+7, r18	; 0x07
    794a:	01 96       	adiw	r24, 0x01	; 1
    794c:	80 93 2e 23 	sts	0x232E, r24
    7950:	90 93 2f 23 	sts	0x232F, r25
    7954:	3c c0       	rjmp	.+120    	; 0x79ce <twim_interrupt_handler+0x122>
    7956:	83 e0       	ldi	r24, 0x03	; 3
    7958:	29 c0       	rjmp	.+82     	; 0x79ac <twim_interrupt_handler+0x100>
    795a:	87 ff       	sbrs	r24, 7
    795c:	32 c0       	rjmp	.+100    	; 0x79c2 <twim_interrupt_handler+0x116>
    795e:	a0 91 2a 23 	lds	r26, 0x232A
    7962:	b0 91 2b 23 	lds	r27, 0x232B
    7966:	80 91 2e 23 	lds	r24, 0x232E
    796a:	90 91 2f 23 	lds	r25, 0x232F
    796e:	18 96       	adiw	r26, 0x08	; 8
    7970:	2d 91       	ld	r18, X+
    7972:	3c 91       	ld	r19, X
    7974:	19 97       	sbiw	r26, 0x09	; 9
    7976:	82 17       	cp	r24, r18
    7978:	93 07       	cpc	r25, r19
    797a:	f0 f4       	brcc	.+60     	; 0x79b8 <twim_interrupt_handler+0x10c>
    797c:	27 81       	ldd	r18, Z+7	; 0x07
    797e:	16 96       	adiw	r26, 0x06	; 6
    7980:	cd 91       	ld	r28, X+
    7982:	dc 91       	ld	r29, X
    7984:	17 97       	sbiw	r26, 0x07	; 7
    7986:	c8 0f       	add	r28, r24
    7988:	d9 1f       	adc	r29, r25
    798a:	28 83       	st	Y, r18
    798c:	01 96       	adiw	r24, 0x01	; 1
    798e:	80 93 2e 23 	sts	0x232E, r24
    7992:	90 93 2f 23 	sts	0x232F, r25
    7996:	18 96       	adiw	r26, 0x08	; 8
    7998:	2d 91       	ld	r18, X+
    799a:	3c 91       	ld	r19, X
    799c:	19 97       	sbiw	r26, 0x09	; 9
    799e:	82 17       	cp	r24, r18
    79a0:	93 07       	cpc	r25, r19
    79a2:	18 f4       	brcc	.+6      	; 0x79aa <twim_interrupt_handler+0xfe>
    79a4:	82 e0       	ldi	r24, 0x02	; 2
    79a6:	83 83       	std	Z+3, r24	; 0x03
    79a8:	12 c0       	rjmp	.+36     	; 0x79ce <twim_interrupt_handler+0x122>
    79aa:	87 e0       	ldi	r24, 0x07	; 7
    79ac:	83 83       	std	Z+3, r24	; 0x03
    79ae:	10 92 32 23 	sts	0x2332, r1
    79b2:	10 92 33 23 	sts	0x2333, r1
    79b6:	0b c0       	rjmp	.+22     	; 0x79ce <twim_interrupt_handler+0x122>
    79b8:	83 e0       	ldi	r24, 0x03	; 3
    79ba:	83 83       	std	Z+3, r24	; 0x03
    79bc:	89 ef       	ldi	r24, 0xF9	; 249
    79be:	9f ef       	ldi	r25, 0xFF	; 255
    79c0:	02 c0       	rjmp	.+4      	; 0x79c6 <twim_interrupt_handler+0x11a>
    79c2:	8b ef       	ldi	r24, 0xFB	; 251
    79c4:	9f ef       	ldi	r25, 0xFF	; 255
    79c6:	80 93 32 23 	sts	0x2332, r24
    79ca:	90 93 33 23 	sts	0x2333, r25
    79ce:	df 91       	pop	r29
    79d0:	cf 91       	pop	r28
    79d2:	08 95       	ret

000079d4 <__vector_13>:
    79d4:	1f 92       	push	r1
    79d6:	0f 92       	push	r0
    79d8:	0f b6       	in	r0, 0x3f	; 63
    79da:	0f 92       	push	r0
    79dc:	11 24       	eor	r1, r1
    79de:	0b b6       	in	r0, 0x3b	; 59
    79e0:	0f 92       	push	r0
    79e2:	2f 93       	push	r18
    79e4:	3f 93       	push	r19
    79e6:	4f 93       	push	r20
    79e8:	5f 93       	push	r21
    79ea:	6f 93       	push	r22
    79ec:	7f 93       	push	r23
    79ee:	8f 93       	push	r24
    79f0:	9f 93       	push	r25
    79f2:	af 93       	push	r26
    79f4:	bf 93       	push	r27
    79f6:	ef 93       	push	r30
    79f8:	ff 93       	push	r31
    79fa:	58 df       	rcall	.-336    	; 0x78ac <twim_interrupt_handler>
    79fc:	ff 91       	pop	r31
    79fe:	ef 91       	pop	r30
    7a00:	bf 91       	pop	r27
    7a02:	af 91       	pop	r26
    7a04:	9f 91       	pop	r25
    7a06:	8f 91       	pop	r24
    7a08:	7f 91       	pop	r23
    7a0a:	6f 91       	pop	r22
    7a0c:	5f 91       	pop	r21
    7a0e:	4f 91       	pop	r20
    7a10:	3f 91       	pop	r19
    7a12:	2f 91       	pop	r18
    7a14:	0f 90       	pop	r0
    7a16:	0b be       	out	0x3b, r0	; 59
    7a18:	0f 90       	pop	r0
    7a1a:	0f be       	out	0x3f, r0	; 63
    7a1c:	0f 90       	pop	r0
    7a1e:	1f 90       	pop	r1
    7a20:	18 95       	reti

00007a22 <__vector_46>:
    7a22:	1f 92       	push	r1
    7a24:	0f 92       	push	r0
    7a26:	0f b6       	in	r0, 0x3f	; 63
    7a28:	0f 92       	push	r0
    7a2a:	11 24       	eor	r1, r1
    7a2c:	0b b6       	in	r0, 0x3b	; 59
    7a2e:	0f 92       	push	r0
    7a30:	2f 93       	push	r18
    7a32:	3f 93       	push	r19
    7a34:	4f 93       	push	r20
    7a36:	5f 93       	push	r21
    7a38:	6f 93       	push	r22
    7a3a:	7f 93       	push	r23
    7a3c:	8f 93       	push	r24
    7a3e:	9f 93       	push	r25
    7a40:	af 93       	push	r26
    7a42:	bf 93       	push	r27
    7a44:	ef 93       	push	r30
    7a46:	ff 93       	push	r31
    7a48:	31 df       	rcall	.-414    	; 0x78ac <twim_interrupt_handler>
    7a4a:	ff 91       	pop	r31
    7a4c:	ef 91       	pop	r30
    7a4e:	bf 91       	pop	r27
    7a50:	af 91       	pop	r26
    7a52:	9f 91       	pop	r25
    7a54:	8f 91       	pop	r24
    7a56:	7f 91       	pop	r23
    7a58:	6f 91       	pop	r22
    7a5a:	5f 91       	pop	r21
    7a5c:	4f 91       	pop	r20
    7a5e:	3f 91       	pop	r19
    7a60:	2f 91       	pop	r18
    7a62:	0f 90       	pop	r0
    7a64:	0b be       	out	0x3b, r0	; 59
    7a66:	0f 90       	pop	r0
    7a68:	0f be       	out	0x3f, r0	; 63
    7a6a:	0f 90       	pop	r0
    7a6c:	1f 90       	pop	r1
    7a6e:	18 95       	reti

00007a70 <twi_master_init>:
    7a70:	fc 01       	movw	r30, r24
    7a72:	db 01       	movw	r26, r22
    7a74:	14 96       	adiw	r26, 0x04	; 4
    7a76:	8c 91       	ld	r24, X
    7a78:	85 83       	std	Z+5, r24	; 0x05
    7a7a:	88 eb       	ldi	r24, 0xB8	; 184
    7a7c:	81 83       	std	Z+1, r24	; 0x01
    7a7e:	81 e0       	ldi	r24, 0x01	; 1
    7a80:	84 83       	std	Z+4, r24	; 0x04
    7a82:	10 92 31 23 	sts	0x2331, r1
    7a86:	10 92 32 23 	sts	0x2332, r1
    7a8a:	10 92 33 23 	sts	0x2333, r1
    7a8e:	e0 ea       	ldi	r30, 0xA0	; 160
    7a90:	f0 e0       	ldi	r31, 0x00	; 0
    7a92:	82 81       	ldd	r24, Z+2	; 0x02
    7a94:	82 60       	ori	r24, 0x02	; 2
    7a96:	82 83       	std	Z+2, r24	; 0x02
    7a98:	78 94       	sei
    7a9a:	80 e0       	ldi	r24, 0x00	; 0
    7a9c:	90 e0       	ldi	r25, 0x00	; 0
    7a9e:	08 95       	ret

00007aa0 <twi_master_transfer>:
    7aa0:	fb 01       	movw	r30, r22
    7aa2:	00 97       	sbiw	r24, 0x00	; 0
    7aa4:	09 f4       	brne	.+2      	; 0x7aa8 <twi_master_transfer+0x8>
    7aa6:	4c c0       	rjmp	.+152    	; 0x7b40 <twi_master_transfer+0xa0>
    7aa8:	30 97       	sbiw	r30, 0x00	; 0
    7aaa:	09 f4       	brne	.+2      	; 0x7aae <twi_master_transfer+0xe>
    7aac:	49 c0       	rjmp	.+146    	; 0x7b40 <twi_master_transfer+0xa0>
    7aae:	32 85       	ldd	r19, Z+10	; 0x0a
    7ab0:	20 91 31 23 	lds	r18, 0x2331
    7ab4:	02 c0       	rjmp	.+4      	; 0x7aba <twi_master_transfer+0x1a>
    7ab6:	31 11       	cpse	r19, r1
    7ab8:	46 c0       	rjmp	.+140    	; 0x7b46 <twi_master_transfer+0xa6>
    7aba:	21 11       	cpse	r18, r1
    7abc:	fc cf       	rjmp	.-8      	; 0x7ab6 <twi_master_transfer+0x16>
    7abe:	5f b7       	in	r21, 0x3f	; 63
    7ac0:	f8 94       	cli
    7ac2:	21 e0       	ldi	r18, 0x01	; 1
    7ac4:	20 93 31 23 	sts	0x2331, r18
    7ac8:	20 e8       	ldi	r18, 0x80	; 128
    7aca:	3f ef       	ldi	r19, 0xFF	; 255
    7acc:	20 93 32 23 	sts	0x2332, r18
    7ad0:	30 93 33 23 	sts	0x2333, r19
    7ad4:	5f bf       	out	0x3f, r21	; 63
    7ad6:	80 93 28 23 	sts	0x2328, r24
    7ada:	90 93 29 23 	sts	0x2329, r25
    7ade:	e0 93 2a 23 	sts	0x232A, r30
    7ae2:	f0 93 2b 23 	sts	0x232B, r31
    7ae6:	10 92 2c 23 	sts	0x232C, r1
    7aea:	10 92 2d 23 	sts	0x232D, r1
    7aee:	10 92 2e 23 	sts	0x232E, r1
    7af2:	10 92 2f 23 	sts	0x232F, r1
    7af6:	40 93 30 23 	sts	0x2330, r20
    7afa:	50 81       	ld	r21, Z
    7afc:	55 0f       	add	r21, r21
    7afe:	24 81       	ldd	r18, Z+4	; 0x04
    7b00:	35 81       	ldd	r19, Z+5	; 0x05
    7b02:	23 2b       	or	r18, r19
    7b04:	21 f4       	brne	.+8      	; 0x7b0e <twi_master_transfer+0x6e>
    7b06:	41 11       	cpse	r20, r1
    7b08:	01 c0       	rjmp	.+2      	; 0x7b0c <twi_master_transfer+0x6c>
    7b0a:	01 c0       	rjmp	.+2      	; 0x7b0e <twi_master_transfer+0x6e>
    7b0c:	51 60       	ori	r21, 0x01	; 1
    7b0e:	fc 01       	movw	r30, r24
    7b10:	56 83       	std	Z+6, r21	; 0x06
    7b12:	80 91 32 23 	lds	r24, 0x2332
    7b16:	90 91 33 23 	lds	r25, 0x2333
    7b1a:	80 38       	cpi	r24, 0x80	; 128
    7b1c:	9f 4f       	sbci	r25, 0xFF	; 255
    7b1e:	c9 f3       	breq	.-14     	; 0x7b12 <twi_master_transfer+0x72>
    7b20:	00 c0       	rjmp	.+0      	; 0x7b22 <twi_master_transfer+0x82>
    7b22:	e0 91 28 23 	lds	r30, 0x2328
    7b26:	f0 91 29 23 	lds	r31, 0x2329
    7b2a:	84 81       	ldd	r24, Z+4	; 0x04
    7b2c:	83 70       	andi	r24, 0x03	; 3
    7b2e:	81 30       	cpi	r24, 0x01	; 1
    7b30:	c1 f7       	brne	.-16     	; 0x7b22 <twi_master_transfer+0x82>
    7b32:	20 91 32 23 	lds	r18, 0x2332
    7b36:	30 91 33 23 	lds	r19, 0x2333
    7b3a:	10 92 31 23 	sts	0x2331, r1
    7b3e:	05 c0       	rjmp	.+10     	; 0x7b4a <twi_master_transfer+0xaa>
    7b40:	28 ef       	ldi	r18, 0xF8	; 248
    7b42:	3f ef       	ldi	r19, 0xFF	; 255
    7b44:	02 c0       	rjmp	.+4      	; 0x7b4a <twi_master_transfer+0xaa>
    7b46:	26 ef       	ldi	r18, 0xF6	; 246
    7b48:	3f ef       	ldi	r19, 0xFF	; 255
    7b4a:	c9 01       	movw	r24, r18
    7b4c:	08 95       	ret

00007b4e <sysclk_enable_peripheral_clock>:
    7b4e:	00 97       	sbiw	r24, 0x00	; 0
    7b50:	09 f4       	brne	.+2      	; 0x7b54 <sysclk_enable_peripheral_clock+0x6>
    7b52:	bb c0       	rjmp	.+374    	; 0x7cca <sysclk_enable_peripheral_clock+0x17c>
    7b54:	80 3c       	cpi	r24, 0xC0	; 192
    7b56:	91 05       	cpc	r25, r1
    7b58:	11 f4       	brne	.+4      	; 0x7b5e <sysclk_enable_peripheral_clock+0x10>
    7b5a:	60 e1       	ldi	r22, 0x10	; 16
    7b5c:	05 c0       	rjmp	.+10     	; 0x7b68 <sysclk_enable_peripheral_clock+0x1a>
    7b5e:	80 38       	cpi	r24, 0x80	; 128
    7b60:	21 e0       	ldi	r18, 0x01	; 1
    7b62:	92 07       	cpc	r25, r18
    7b64:	21 f4       	brne	.+8      	; 0x7b6e <sysclk_enable_peripheral_clock+0x20>
    7b66:	62 e0       	ldi	r22, 0x02	; 2
    7b68:	80 e0       	ldi	r24, 0x00	; 0
    7b6a:	90 e0       	ldi	r25, 0x00	; 0
    7b6c:	ac c0       	rjmp	.+344    	; 0x7cc6 <sysclk_enable_peripheral_clock+0x178>
    7b6e:	81 15       	cp	r24, r1
    7b70:	21 e0       	ldi	r18, 0x01	; 1
    7b72:	92 07       	cpc	r25, r18
    7b74:	11 f4       	brne	.+4      	; 0x7b7a <sysclk_enable_peripheral_clock+0x2c>
    7b76:	61 e0       	ldi	r22, 0x01	; 1
    7b78:	f7 cf       	rjmp	.-18     	; 0x7b68 <sysclk_enable_peripheral_clock+0x1a>
    7b7a:	80 38       	cpi	r24, 0x80	; 128
    7b7c:	23 e0       	ldi	r18, 0x03	; 3
    7b7e:	92 07       	cpc	r25, r18
    7b80:	11 f4       	brne	.+4      	; 0x7b86 <sysclk_enable_peripheral_clock+0x38>
    7b82:	61 e0       	ldi	r22, 0x01	; 1
    7b84:	0b c0       	rjmp	.+22     	; 0x7b9c <sysclk_enable_peripheral_clock+0x4e>
    7b86:	80 39       	cpi	r24, 0x90	; 144
    7b88:	23 e0       	ldi	r18, 0x03	; 3
    7b8a:	92 07       	cpc	r25, r18
    7b8c:	11 f4       	brne	.+4      	; 0x7b92 <sysclk_enable_peripheral_clock+0x44>
    7b8e:	61 e0       	ldi	r22, 0x01	; 1
    7b90:	13 c0       	rjmp	.+38     	; 0x7bb8 <sysclk_enable_peripheral_clock+0x6a>
    7b92:	81 15       	cp	r24, r1
    7b94:	22 e0       	ldi	r18, 0x02	; 2
    7b96:	92 07       	cpc	r25, r18
    7b98:	21 f4       	brne	.+8      	; 0x7ba2 <sysclk_enable_peripheral_clock+0x54>
    7b9a:	62 e0       	ldi	r22, 0x02	; 2
    7b9c:	81 e0       	ldi	r24, 0x01	; 1
    7b9e:	90 e0       	ldi	r25, 0x00	; 0
    7ba0:	92 c0       	rjmp	.+292    	; 0x7cc6 <sysclk_enable_peripheral_clock+0x178>
    7ba2:	80 34       	cpi	r24, 0x40	; 64
    7ba4:	22 e0       	ldi	r18, 0x02	; 2
    7ba6:	92 07       	cpc	r25, r18
    7ba8:	11 f4       	brne	.+4      	; 0x7bae <sysclk_enable_peripheral_clock+0x60>
    7baa:	62 e0       	ldi	r22, 0x02	; 2
    7bac:	05 c0       	rjmp	.+10     	; 0x7bb8 <sysclk_enable_peripheral_clock+0x6a>
    7bae:	80 32       	cpi	r24, 0x20	; 32
    7bb0:	23 e0       	ldi	r18, 0x03	; 3
    7bb2:	92 07       	cpc	r25, r18
    7bb4:	21 f4       	brne	.+8      	; 0x7bbe <sysclk_enable_peripheral_clock+0x70>
    7bb6:	64 e0       	ldi	r22, 0x04	; 4
    7bb8:	82 e0       	ldi	r24, 0x02	; 2
    7bba:	90 e0       	ldi	r25, 0x00	; 0
    7bbc:	84 c0       	rjmp	.+264    	; 0x7cc6 <sysclk_enable_peripheral_clock+0x178>
    7bbe:	81 15       	cp	r24, r1
    7bc0:	28 e0       	ldi	r18, 0x08	; 8
    7bc2:	92 07       	cpc	r25, r18
    7bc4:	11 f4       	brne	.+4      	; 0x7bca <sysclk_enable_peripheral_clock+0x7c>
    7bc6:	61 e0       	ldi	r22, 0x01	; 1
    7bc8:	75 c0       	rjmp	.+234    	; 0x7cb4 <sysclk_enable_peripheral_clock+0x166>
    7bca:	81 15       	cp	r24, r1
    7bcc:	29 e0       	ldi	r18, 0x09	; 9
    7bce:	92 07       	cpc	r25, r18
    7bd0:	11 f4       	brne	.+4      	; 0x7bd6 <sysclk_enable_peripheral_clock+0x88>
    7bd2:	61 e0       	ldi	r22, 0x01	; 1
    7bd4:	67 c0       	rjmp	.+206    	; 0x7ca4 <sysclk_enable_peripheral_clock+0x156>
    7bd6:	81 15       	cp	r24, r1
    7bd8:	2a e0       	ldi	r18, 0x0A	; 10
    7bda:	92 07       	cpc	r25, r18
    7bdc:	11 f4       	brne	.+4      	; 0x7be2 <sysclk_enable_peripheral_clock+0x94>
    7bde:	61 e0       	ldi	r22, 0x01	; 1
    7be0:	70 c0       	rjmp	.+224    	; 0x7cc2 <sysclk_enable_peripheral_clock+0x174>
    7be2:	81 15       	cp	r24, r1
    7be4:	2b e0       	ldi	r18, 0x0B	; 11
    7be6:	92 07       	cpc	r25, r18
    7be8:	11 f4       	brne	.+4      	; 0x7bee <sysclk_enable_peripheral_clock+0xa0>
    7bea:	61 e0       	ldi	r22, 0x01	; 1
    7bec:	4d c0       	rjmp	.+154    	; 0x7c88 <sysclk_enable_peripheral_clock+0x13a>
    7bee:	80 34       	cpi	r24, 0x40	; 64
    7bf0:	28 e0       	ldi	r18, 0x08	; 8
    7bf2:	92 07       	cpc	r25, r18
    7bf4:	11 f4       	brne	.+4      	; 0x7bfa <sysclk_enable_peripheral_clock+0xac>
    7bf6:	62 e0       	ldi	r22, 0x02	; 2
    7bf8:	5d c0       	rjmp	.+186    	; 0x7cb4 <sysclk_enable_peripheral_clock+0x166>
    7bfa:	80 34       	cpi	r24, 0x40	; 64
    7bfc:	29 e0       	ldi	r18, 0x09	; 9
    7bfe:	92 07       	cpc	r25, r18
    7c00:	11 f4       	brne	.+4      	; 0x7c06 <sysclk_enable_peripheral_clock+0xb8>
    7c02:	62 e0       	ldi	r22, 0x02	; 2
    7c04:	4f c0       	rjmp	.+158    	; 0x7ca4 <sysclk_enable_peripheral_clock+0x156>
    7c06:	80 34       	cpi	r24, 0x40	; 64
    7c08:	2a e0       	ldi	r18, 0x0A	; 10
    7c0a:	92 07       	cpc	r25, r18
    7c0c:	11 f4       	brne	.+4      	; 0x7c12 <sysclk_enable_peripheral_clock+0xc4>
    7c0e:	62 e0       	ldi	r22, 0x02	; 2
    7c10:	58 c0       	rjmp	.+176    	; 0x7cc2 <sysclk_enable_peripheral_clock+0x174>
    7c12:	80 39       	cpi	r24, 0x90	; 144
    7c14:	28 e0       	ldi	r18, 0x08	; 8
    7c16:	92 07       	cpc	r25, r18
    7c18:	11 f4       	brne	.+4      	; 0x7c1e <sysclk_enable_peripheral_clock+0xd0>
    7c1a:	64 e0       	ldi	r22, 0x04	; 4
    7c1c:	4b c0       	rjmp	.+150    	; 0x7cb4 <sysclk_enable_peripheral_clock+0x166>
    7c1e:	80 39       	cpi	r24, 0x90	; 144
    7c20:	29 e0       	ldi	r18, 0x09	; 9
    7c22:	92 07       	cpc	r25, r18
    7c24:	11 f4       	brne	.+4      	; 0x7c2a <sysclk_enable_peripheral_clock+0xdc>
    7c26:	64 e0       	ldi	r22, 0x04	; 4
    7c28:	3d c0       	rjmp	.+122    	; 0x7ca4 <sysclk_enable_peripheral_clock+0x156>
    7c2a:	80 39       	cpi	r24, 0x90	; 144
    7c2c:	2a e0       	ldi	r18, 0x0A	; 10
    7c2e:	92 07       	cpc	r25, r18
    7c30:	11 f4       	brne	.+4      	; 0x7c36 <sysclk_enable_peripheral_clock+0xe8>
    7c32:	64 e0       	ldi	r22, 0x04	; 4
    7c34:	46 c0       	rjmp	.+140    	; 0x7cc2 <sysclk_enable_peripheral_clock+0x174>
    7c36:	80 39       	cpi	r24, 0x90	; 144
    7c38:	2b e0       	ldi	r18, 0x0B	; 11
    7c3a:	92 07       	cpc	r25, r18
    7c3c:	11 f4       	brne	.+4      	; 0x7c42 <sysclk_enable_peripheral_clock+0xf4>
    7c3e:	64 e0       	ldi	r22, 0x04	; 4
    7c40:	23 c0       	rjmp	.+70     	; 0x7c88 <sysclk_enable_peripheral_clock+0x13a>
    7c42:	80 3c       	cpi	r24, 0xC0	; 192
    7c44:	28 e0       	ldi	r18, 0x08	; 8
    7c46:	92 07       	cpc	r25, r18
    7c48:	11 f4       	brne	.+4      	; 0x7c4e <sysclk_enable_peripheral_clock+0x100>
    7c4a:	68 e0       	ldi	r22, 0x08	; 8
    7c4c:	33 c0       	rjmp	.+102    	; 0x7cb4 <sysclk_enable_peripheral_clock+0x166>
    7c4e:	80 3c       	cpi	r24, 0xC0	; 192
    7c50:	29 e0       	ldi	r18, 0x09	; 9
    7c52:	92 07       	cpc	r25, r18
    7c54:	11 f4       	brne	.+4      	; 0x7c5a <sysclk_enable_peripheral_clock+0x10c>
    7c56:	68 e0       	ldi	r22, 0x08	; 8
    7c58:	25 c0       	rjmp	.+74     	; 0x7ca4 <sysclk_enable_peripheral_clock+0x156>
    7c5a:	80 3a       	cpi	r24, 0xA0	; 160
    7c5c:	28 e0       	ldi	r18, 0x08	; 8
    7c5e:	92 07       	cpc	r25, r18
    7c60:	11 f4       	brne	.+4      	; 0x7c66 <sysclk_enable_peripheral_clock+0x118>
    7c62:	60 e1       	ldi	r22, 0x10	; 16
    7c64:	27 c0       	rjmp	.+78     	; 0x7cb4 <sysclk_enable_peripheral_clock+0x166>
    7c66:	80 3a       	cpi	r24, 0xA0	; 160
    7c68:	29 e0       	ldi	r18, 0x09	; 9
    7c6a:	92 07       	cpc	r25, r18
    7c6c:	11 f4       	brne	.+4      	; 0x7c72 <sysclk_enable_peripheral_clock+0x124>
    7c6e:	60 e1       	ldi	r22, 0x10	; 16
    7c70:	19 c0       	rjmp	.+50     	; 0x7ca4 <sysclk_enable_peripheral_clock+0x156>
    7c72:	80 3a       	cpi	r24, 0xA0	; 160
    7c74:	2a e0       	ldi	r18, 0x0A	; 10
    7c76:	92 07       	cpc	r25, r18
    7c78:	11 f4       	brne	.+4      	; 0x7c7e <sysclk_enable_peripheral_clock+0x130>
    7c7a:	60 e1       	ldi	r22, 0x10	; 16
    7c7c:	22 c0       	rjmp	.+68     	; 0x7cc2 <sysclk_enable_peripheral_clock+0x174>
    7c7e:	80 3a       	cpi	r24, 0xA0	; 160
    7c80:	2b e0       	ldi	r18, 0x0B	; 11
    7c82:	92 07       	cpc	r25, r18
    7c84:	21 f4       	brne	.+8      	; 0x7c8e <sysclk_enable_peripheral_clock+0x140>
    7c86:	60 e1       	ldi	r22, 0x10	; 16
    7c88:	86 e0       	ldi	r24, 0x06	; 6
    7c8a:	90 e0       	ldi	r25, 0x00	; 0
    7c8c:	1c c0       	rjmp	.+56     	; 0x7cc6 <sysclk_enable_peripheral_clock+0x178>
    7c8e:	80 3b       	cpi	r24, 0xB0	; 176
    7c90:	28 e0       	ldi	r18, 0x08	; 8
    7c92:	92 07       	cpc	r25, r18
    7c94:	11 f4       	brne	.+4      	; 0x7c9a <sysclk_enable_peripheral_clock+0x14c>
    7c96:	60 e2       	ldi	r22, 0x20	; 32
    7c98:	0d c0       	rjmp	.+26     	; 0x7cb4 <sysclk_enable_peripheral_clock+0x166>
    7c9a:	80 3b       	cpi	r24, 0xB0	; 176
    7c9c:	29 e0       	ldi	r18, 0x09	; 9
    7c9e:	92 07       	cpc	r25, r18
    7ca0:	21 f4       	brne	.+8      	; 0x7caa <sysclk_enable_peripheral_clock+0x15c>
    7ca2:	60 e2       	ldi	r22, 0x20	; 32
    7ca4:	84 e0       	ldi	r24, 0x04	; 4
    7ca6:	90 e0       	ldi	r25, 0x00	; 0
    7ca8:	0e c0       	rjmp	.+28     	; 0x7cc6 <sysclk_enable_peripheral_clock+0x178>
    7caa:	80 38       	cpi	r24, 0x80	; 128
    7cac:	24 e0       	ldi	r18, 0x04	; 4
    7cae:	92 07       	cpc	r25, r18
    7cb0:	21 f4       	brne	.+8      	; 0x7cba <sysclk_enable_peripheral_clock+0x16c>
    7cb2:	60 e4       	ldi	r22, 0x40	; 64
    7cb4:	83 e0       	ldi	r24, 0x03	; 3
    7cb6:	90 e0       	ldi	r25, 0x00	; 0
    7cb8:	06 c0       	rjmp	.+12     	; 0x7cc6 <sysclk_enable_peripheral_clock+0x178>
    7cba:	80 3a       	cpi	r24, 0xA0	; 160
    7cbc:	94 40       	sbci	r25, 0x04	; 4
    7cbe:	29 f4       	brne	.+10     	; 0x7cca <sysclk_enable_peripheral_clock+0x17c>
    7cc0:	60 e4       	ldi	r22, 0x40	; 64
    7cc2:	85 e0       	ldi	r24, 0x05	; 5
    7cc4:	90 e0       	ldi	r25, 0x00	; 0
    7cc6:	0c 94 7a 30 	jmp	0x60f4	; 0x60f4 <sysclk_enable_module>
    7cca:	08 95       	ret

00007ccc <usart_putchar>:
    7ccc:	fc 01       	movw	r30, r24
    7cce:	21 81       	ldd	r18, Z+1	; 0x01
    7cd0:	25 ff       	sbrs	r18, 5
    7cd2:	fc cf       	rjmp	.-8      	; 0x7ccc <usart_putchar>
    7cd4:	60 83       	st	Z, r22
    7cd6:	80 e0       	ldi	r24, 0x00	; 0
    7cd8:	90 e0       	ldi	r25, 0x00	; 0
    7cda:	08 95       	ret

00007cdc <usart_set_baudrate>:
    7cdc:	8f 92       	push	r8
    7cde:	9f 92       	push	r9
    7ce0:	af 92       	push	r10
    7ce2:	bf 92       	push	r11
    7ce4:	cf 92       	push	r12
    7ce6:	df 92       	push	r13
    7ce8:	ef 92       	push	r14
    7cea:	ff 92       	push	r15
    7cec:	0f 93       	push	r16
    7cee:	1f 93       	push	r17
    7cf0:	cf 93       	push	r28
    7cf2:	df 93       	push	r29
    7cf4:	ec 01       	movw	r28, r24
    7cf6:	6a 01       	movw	r12, r20
    7cf8:	7b 01       	movw	r14, r22
    7cfa:	48 01       	movw	r8, r16
    7cfc:	59 01       	movw	r10, r18
    7cfe:	b9 01       	movw	r22, r18
    7d00:	a8 01       	movw	r20, r16
    7d02:	a3 e0       	ldi	r26, 0x03	; 3
    7d04:	76 95       	lsr	r23
    7d06:	67 95       	ror	r22
    7d08:	57 95       	ror	r21
    7d0a:	47 95       	ror	r20
    7d0c:	aa 95       	dec	r26
    7d0e:	d1 f7       	brne	.-12     	; 0x7d04 <usart_set_baudrate+0x28>
    7d10:	d9 01       	movw	r26, r18
    7d12:	c8 01       	movw	r24, r16
    7d14:	16 e1       	ldi	r17, 0x16	; 22
    7d16:	b6 95       	lsr	r27
    7d18:	a7 95       	ror	r26
    7d1a:	97 95       	ror	r25
    7d1c:	87 95       	ror	r24
    7d1e:	1a 95       	dec	r17
    7d20:	d1 f7       	brne	.-12     	; 0x7d16 <usart_set_baudrate+0x3a>
    7d22:	2c 81       	ldd	r18, Y+4	; 0x04
    7d24:	22 fd       	sbrc	r18, 2
    7d26:	08 c0       	rjmp	.+16     	; 0x7d38 <usart_set_baudrate+0x5c>
    7d28:	76 95       	lsr	r23
    7d2a:	67 95       	ror	r22
    7d2c:	57 95       	ror	r21
    7d2e:	47 95       	ror	r20
    7d30:	b6 95       	lsr	r27
    7d32:	a7 95       	ror	r26
    7d34:	97 95       	ror	r25
    7d36:	87 95       	ror	r24
    7d38:	4c 15       	cp	r20, r12
    7d3a:	5d 05       	cpc	r21, r13
    7d3c:	6e 05       	cpc	r22, r14
    7d3e:	7f 05       	cpc	r23, r15
    7d40:	08 f4       	brcc	.+2      	; 0x7d44 <usart_set_baudrate+0x68>
    7d42:	9e c0       	rjmp	.+316    	; 0x7e80 <usart_set_baudrate+0x1a4>
    7d44:	c8 16       	cp	r12, r24
    7d46:	d9 06       	cpc	r13, r25
    7d48:	ea 06       	cpc	r14, r26
    7d4a:	fb 06       	cpc	r15, r27
    7d4c:	08 f4       	brcc	.+2      	; 0x7d50 <usart_set_baudrate+0x74>
    7d4e:	98 c0       	rjmp	.+304    	; 0x7e80 <usart_set_baudrate+0x1a4>
    7d50:	8c 81       	ldd	r24, Y+4	; 0x04
    7d52:	82 fd       	sbrc	r24, 2
    7d54:	04 c0       	rjmp	.+8      	; 0x7d5e <usart_set_baudrate+0x82>
    7d56:	cc 0c       	add	r12, r12
    7d58:	dd 1c       	adc	r13, r13
    7d5a:	ee 1c       	adc	r14, r14
    7d5c:	ff 1c       	adc	r15, r15
    7d5e:	c5 01       	movw	r24, r10
    7d60:	b4 01       	movw	r22, r8
    7d62:	a7 01       	movw	r20, r14
    7d64:	96 01       	movw	r18, r12
    7d66:	0e 94 c5 47 	call	0x8f8a	; 0x8f8a <__udivmodsi4>
    7d6a:	8f ef       	ldi	r24, 0xFF	; 255
    7d6c:	90 e0       	ldi	r25, 0x00	; 0
    7d6e:	a0 e0       	ldi	r26, 0x00	; 0
    7d70:	b0 e0       	ldi	r27, 0x00	; 0
    7d72:	19 ef       	ldi	r17, 0xF9	; 249
    7d74:	28 17       	cp	r18, r24
    7d76:	39 07       	cpc	r19, r25
    7d78:	4a 07       	cpc	r20, r26
    7d7a:	5b 07       	cpc	r21, r27
    7d7c:	58 f0       	brcs	.+22     	; 0x7d94 <usart_set_baudrate+0xb8>
    7d7e:	88 0f       	add	r24, r24
    7d80:	99 1f       	adc	r25, r25
    7d82:	aa 1f       	adc	r26, r26
    7d84:	bb 1f       	adc	r27, r27
    7d86:	1d 3f       	cpi	r17, 0xFD	; 253
    7d88:	0c f4       	brge	.+2      	; 0x7d8c <usart_set_baudrate+0xb0>
    7d8a:	81 60       	ori	r24, 0x01	; 1
    7d8c:	1f 5f       	subi	r17, 0xFF	; 255
    7d8e:	17 30       	cpi	r17, 0x07	; 7
    7d90:	89 f7       	brne	.-30     	; 0x7d74 <usart_set_baudrate+0x98>
    7d92:	4c c0       	rjmp	.+152    	; 0x7e2c <usart_set_baudrate+0x150>
    7d94:	17 ff       	sbrs	r17, 7
    7d96:	4a c0       	rjmp	.+148    	; 0x7e2c <usart_set_baudrate+0x150>
    7d98:	d7 01       	movw	r26, r14
    7d9a:	c6 01       	movw	r24, r12
    7d9c:	03 e0       	ldi	r16, 0x03	; 3
    7d9e:	88 0f       	add	r24, r24
    7da0:	99 1f       	adc	r25, r25
    7da2:	aa 1f       	adc	r26, r26
    7da4:	bb 1f       	adc	r27, r27
    7da6:	0a 95       	dec	r16
    7da8:	d1 f7       	brne	.-12     	; 0x7d9e <usart_set_baudrate+0xc2>
    7daa:	88 1a       	sub	r8, r24
    7dac:	99 0a       	sbc	r9, r25
    7dae:	aa 0a       	sbc	r10, r26
    7db0:	bb 0a       	sbc	r11, r27
    7db2:	81 2f       	mov	r24, r17
    7db4:	99 27       	eor	r25, r25
    7db6:	87 fd       	sbrc	r24, 7
    7db8:	90 95       	com	r25
    7dba:	1e 3f       	cpi	r17, 0xFE	; 254
    7dbc:	e4 f4       	brge	.+56     	; 0x7df6 <usart_set_baudrate+0x11a>
    7dbe:	6d ef       	ldi	r22, 0xFD	; 253
    7dc0:	7f ef       	ldi	r23, 0xFF	; 255
    7dc2:	68 1b       	sub	r22, r24
    7dc4:	79 0b       	sbc	r23, r25
    7dc6:	a5 01       	movw	r20, r10
    7dc8:	94 01       	movw	r18, r8
    7dca:	04 c0       	rjmp	.+8      	; 0x7dd4 <usart_set_baudrate+0xf8>
    7dcc:	22 0f       	add	r18, r18
    7dce:	33 1f       	adc	r19, r19
    7dd0:	44 1f       	adc	r20, r20
    7dd2:	55 1f       	adc	r21, r21
    7dd4:	6a 95       	dec	r22
    7dd6:	d2 f7       	brpl	.-12     	; 0x7dcc <usart_set_baudrate+0xf0>
    7dd8:	ca 01       	movw	r24, r20
    7dda:	b9 01       	movw	r22, r18
    7ddc:	46 01       	movw	r8, r12
    7dde:	57 01       	movw	r10, r14
    7de0:	b6 94       	lsr	r11
    7de2:	a7 94       	ror	r10
    7de4:	97 94       	ror	r9
    7de6:	87 94       	ror	r8
    7de8:	68 0d       	add	r22, r8
    7dea:	79 1d       	adc	r23, r9
    7dec:	8a 1d       	adc	r24, r10
    7dee:	9b 1d       	adc	r25, r11
    7df0:	a7 01       	movw	r20, r14
    7df2:	96 01       	movw	r18, r12
    7df4:	18 c0       	rjmp	.+48     	; 0x7e26 <usart_set_baudrate+0x14a>
    7df6:	9c 01       	movw	r18, r24
    7df8:	2d 5f       	subi	r18, 0xFD	; 253
    7dfa:	3f 4f       	sbci	r19, 0xFF	; 255
    7dfc:	d7 01       	movw	r26, r14
    7dfe:	c6 01       	movw	r24, r12
    7e00:	04 c0       	rjmp	.+8      	; 0x7e0a <usart_set_baudrate+0x12e>
    7e02:	88 0f       	add	r24, r24
    7e04:	99 1f       	adc	r25, r25
    7e06:	aa 1f       	adc	r26, r26
    7e08:	bb 1f       	adc	r27, r27
    7e0a:	2a 95       	dec	r18
    7e0c:	d2 f7       	brpl	.-12     	; 0x7e02 <usart_set_baudrate+0x126>
    7e0e:	9c 01       	movw	r18, r24
    7e10:	ad 01       	movw	r20, r26
    7e12:	bc 01       	movw	r22, r24
    7e14:	cd 01       	movw	r24, r26
    7e16:	96 95       	lsr	r25
    7e18:	87 95       	ror	r24
    7e1a:	77 95       	ror	r23
    7e1c:	67 95       	ror	r22
    7e1e:	68 0d       	add	r22, r8
    7e20:	79 1d       	adc	r23, r9
    7e22:	8a 1d       	adc	r24, r10
    7e24:	9b 1d       	adc	r25, r11
    7e26:	0e 94 c5 47 	call	0x8f8a	; 0x8f8a <__udivmodsi4>
    7e2a:	21 c0       	rjmp	.+66     	; 0x7e6e <usart_set_baudrate+0x192>
    7e2c:	21 2f       	mov	r18, r17
    7e2e:	33 27       	eor	r19, r19
    7e30:	27 fd       	sbrc	r18, 7
    7e32:	30 95       	com	r19
    7e34:	2d 5f       	subi	r18, 0xFD	; 253
    7e36:	3f 4f       	sbci	r19, 0xFF	; 255
    7e38:	d7 01       	movw	r26, r14
    7e3a:	c6 01       	movw	r24, r12
    7e3c:	04 c0       	rjmp	.+8      	; 0x7e46 <usart_set_baudrate+0x16a>
    7e3e:	88 0f       	add	r24, r24
    7e40:	99 1f       	adc	r25, r25
    7e42:	aa 1f       	adc	r26, r26
    7e44:	bb 1f       	adc	r27, r27
    7e46:	2a 95       	dec	r18
    7e48:	d2 f7       	brpl	.-12     	; 0x7e3e <usart_set_baudrate+0x162>
    7e4a:	9c 01       	movw	r18, r24
    7e4c:	ad 01       	movw	r20, r26
    7e4e:	bc 01       	movw	r22, r24
    7e50:	cd 01       	movw	r24, r26
    7e52:	96 95       	lsr	r25
    7e54:	87 95       	ror	r24
    7e56:	77 95       	ror	r23
    7e58:	67 95       	ror	r22
    7e5a:	68 0d       	add	r22, r8
    7e5c:	79 1d       	adc	r23, r9
    7e5e:	8a 1d       	adc	r24, r10
    7e60:	9b 1d       	adc	r25, r11
    7e62:	0e 94 c5 47 	call	0x8f8a	; 0x8f8a <__udivmodsi4>
    7e66:	21 50       	subi	r18, 0x01	; 1
    7e68:	31 09       	sbc	r19, r1
    7e6a:	41 09       	sbc	r20, r1
    7e6c:	51 09       	sbc	r21, r1
    7e6e:	83 2f       	mov	r24, r19
    7e70:	8f 70       	andi	r24, 0x0F	; 15
    7e72:	12 95       	swap	r17
    7e74:	10 7f       	andi	r17, 0xF0	; 240
    7e76:	81 2b       	or	r24, r17
    7e78:	8f 83       	std	Y+7, r24	; 0x07
    7e7a:	2e 83       	std	Y+6, r18	; 0x06
    7e7c:	81 e0       	ldi	r24, 0x01	; 1
    7e7e:	01 c0       	rjmp	.+2      	; 0x7e82 <usart_set_baudrate+0x1a6>
    7e80:	80 e0       	ldi	r24, 0x00	; 0
    7e82:	df 91       	pop	r29
    7e84:	cf 91       	pop	r28
    7e86:	1f 91       	pop	r17
    7e88:	0f 91       	pop	r16
    7e8a:	ff 90       	pop	r15
    7e8c:	ef 90       	pop	r14
    7e8e:	df 90       	pop	r13
    7e90:	cf 90       	pop	r12
    7e92:	bf 90       	pop	r11
    7e94:	af 90       	pop	r10
    7e96:	9f 90       	pop	r9
    7e98:	8f 90       	pop	r8
    7e9a:	08 95       	ret

00007e9c <usart_init_rs232>:
    7e9c:	0f 93       	push	r16
    7e9e:	1f 93       	push	r17
    7ea0:	cf 93       	push	r28
    7ea2:	df 93       	push	r29
    7ea4:	ec 01       	movw	r28, r24
    7ea6:	8b 01       	movw	r16, r22
    7ea8:	52 de       	rcall	.-860    	; 0x7b4e <sysclk_enable_peripheral_clock>
    7eaa:	8d 81       	ldd	r24, Y+5	; 0x05
    7eac:	8f 73       	andi	r24, 0x3F	; 63
    7eae:	8d 83       	std	Y+5, r24	; 0x05
    7eb0:	f8 01       	movw	r30, r16
    7eb2:	86 81       	ldd	r24, Z+6	; 0x06
    7eb4:	94 81       	ldd	r25, Z+4	; 0x04
    7eb6:	89 2b       	or	r24, r25
    7eb8:	90 85       	ldd	r25, Z+8	; 0x08
    7eba:	99 23       	and	r25, r25
    7ebc:	11 f0       	breq	.+4      	; 0x7ec2 <usart_init_rs232+0x26>
    7ebe:	98 e0       	ldi	r25, 0x08	; 8
    7ec0:	01 c0       	rjmp	.+2      	; 0x7ec4 <usart_init_rs232+0x28>
    7ec2:	90 e0       	ldi	r25, 0x00	; 0
    7ec4:	89 2b       	or	r24, r25
    7ec6:	8d 83       	std	Y+5, r24	; 0x05
    7ec8:	f8 01       	movw	r30, r16
    7eca:	40 81       	ld	r20, Z
    7ecc:	51 81       	ldd	r21, Z+1	; 0x01
    7ece:	62 81       	ldd	r22, Z+2	; 0x02
    7ed0:	73 81       	ldd	r23, Z+3	; 0x03
    7ed2:	00 e0       	ldi	r16, 0x00	; 0
    7ed4:	16 e3       	ldi	r17, 0x36	; 54
    7ed6:	2e e6       	ldi	r18, 0x6E	; 110
    7ed8:	31 e0       	ldi	r19, 0x01	; 1
    7eda:	ce 01       	movw	r24, r28
    7edc:	ff de       	rcall	.-514    	; 0x7cdc <usart_set_baudrate>
    7ede:	9c 81       	ldd	r25, Y+4	; 0x04
    7ee0:	98 60       	ori	r25, 0x08	; 8
    7ee2:	9c 83       	std	Y+4, r25	; 0x04
    7ee4:	9c 81       	ldd	r25, Y+4	; 0x04
    7ee6:	90 61       	ori	r25, 0x10	; 16
    7ee8:	9c 83       	std	Y+4, r25	; 0x04
    7eea:	df 91       	pop	r29
    7eec:	cf 91       	pop	r28
    7eee:	1f 91       	pop	r17
    7ef0:	0f 91       	pop	r16
    7ef2:	08 95       	ret

00007ef4 <udd_sleep_mode>:
    7ef4:	90 91 98 23 	lds	r25, 0x2398
    7ef8:	81 11       	cpse	r24, r1
    7efa:	13 c0       	rjmp	.+38     	; 0x7f22 <udd_sleep_mode+0x2e>
    7efc:	99 23       	and	r25, r25
    7efe:	71 f0       	breq	.+28     	; 0x7f1c <udd_sleep_mode+0x28>
    7f00:	2f b7       	in	r18, 0x3f	; 63
    7f02:	f8 94       	cli
    7f04:	90 91 c9 25 	lds	r25, 0x25C9
    7f08:	91 50       	subi	r25, 0x01	; 1
    7f0a:	05 c0       	rjmp	.+10     	; 0x7f16 <udd_sleep_mode+0x22>
    7f0c:	2f b7       	in	r18, 0x3f	; 63
    7f0e:	f8 94       	cli
    7f10:	90 91 c9 25 	lds	r25, 0x25C9
    7f14:	9f 5f       	subi	r25, 0xFF	; 255
    7f16:	90 93 c9 25 	sts	0x25C9, r25
    7f1a:	2f bf       	out	0x3f, r18	; 63
    7f1c:	80 93 98 23 	sts	0x2398, r24
    7f20:	08 95       	ret
    7f22:	91 11       	cpse	r25, r1
    7f24:	fb cf       	rjmp	.-10     	; 0x7f1c <udd_sleep_mode+0x28>
    7f26:	f2 cf       	rjmp	.-28     	; 0x7f0c <udd_sleep_mode+0x18>

00007f28 <udd_ep_get_ctrl>:
    7f28:	98 2f       	mov	r25, r24
    7f2a:	9f 70       	andi	r25, 0x0F	; 15
    7f2c:	28 2f       	mov	r18, r24
    7f2e:	33 27       	eor	r19, r19
    7f30:	27 fd       	sbrc	r18, 7
    7f32:	30 95       	com	r19
    7f34:	22 27       	eor	r18, r18
    7f36:	33 0f       	add	r19, r19
    7f38:	22 1f       	adc	r18, r18
    7f3a:	33 27       	eor	r19, r19
    7f3c:	29 0f       	add	r18, r25
    7f3e:	31 1d       	adc	r19, r1
    7f40:	29 0f       	add	r18, r25
    7f42:	31 1d       	adc	r19, r1
    7f44:	93 e0       	ldi	r25, 0x03	; 3
    7f46:	22 0f       	add	r18, r18
    7f48:	33 1f       	adc	r19, r19
    7f4a:	9a 95       	dec	r25
    7f4c:	e1 f7       	brne	.-8      	; 0x7f46 <udd_ep_get_ctrl+0x1e>
    7f4e:	20 5c       	subi	r18, 0xC0	; 192
    7f50:	3c 4d       	sbci	r19, 0xDC	; 220
    7f52:	c9 01       	movw	r24, r18
    7f54:	08 95       	ret

00007f56 <udd_ctrl_init>:
    7f56:	0f 93       	push	r16
    7f58:	e8 ec       	ldi	r30, 0xC8	; 200
    7f5a:	f4 e0       	ldi	r31, 0x04	; 4
    7f5c:	80 81       	ld	r24, Z
    7f5e:	8f 7d       	andi	r24, 0xDF	; 223
    7f60:	80 83       	st	Z, r24
    7f62:	80 81       	ld	r24, Z
    7f64:	8f 7d       	andi	r24, 0xDF	; 223
    7f66:	80 83       	st	Z, r24
    7f68:	e8 e4       	ldi	r30, 0x48	; 72
    7f6a:	f3 e2       	ldi	r31, 0x23	; 35
    7f6c:	02 e0       	ldi	r16, 0x02	; 2
    7f6e:	05 93       	las	Z, r16
    7f70:	10 92 4a 23 	sts	0x234A, r1
    7f74:	10 92 4b 23 	sts	0x234B, r1
    7f78:	00 e2       	ldi	r16, 0x20	; 32
    7f7a:	06 93       	lac	Z, r16
    7f7c:	00 e4       	ldi	r16, 0x40	; 64
    7f7e:	06 93       	lac	Z, r16
    7f80:	e0 e4       	ldi	r30, 0x40	; 64
    7f82:	f3 e2       	ldi	r31, 0x23	; 35
    7f84:	00 e2       	ldi	r16, 0x20	; 32
    7f86:	06 93       	lac	Z, r16
    7f88:	00 e4       	ldi	r16, 0x40	; 64
    7f8a:	06 93       	lac	Z, r16
    7f8c:	10 92 dc 25 	sts	0x25DC, r1
    7f90:	10 92 dd 25 	sts	0x25DD, r1
    7f94:	10 92 de 25 	sts	0x25DE, r1
    7f98:	10 92 df 25 	sts	0x25DF, r1
    7f9c:	10 92 da 25 	sts	0x25DA, r1
    7fa0:	10 92 db 25 	sts	0x25DB, r1
    7fa4:	10 92 59 24 	sts	0x2459, r1
    7fa8:	10 92 5a 24 	sts	0x245A, r1
    7fac:	0f 91       	pop	r16
    7fae:	08 95       	ret

00007fb0 <udd_ctrl_stall_data>:
    7fb0:	0f 93       	push	r16
    7fb2:	85 e0       	ldi	r24, 0x05	; 5
    7fb4:	90 e0       	ldi	r25, 0x00	; 0
    7fb6:	80 93 59 24 	sts	0x2459, r24
    7fba:	90 93 5a 24 	sts	0x245A, r25
    7fbe:	e9 e4       	ldi	r30, 0x49	; 73
    7fc0:	f3 e2       	ldi	r31, 0x23	; 35
    7fc2:	04 e0       	ldi	r16, 0x04	; 4
    7fc4:	05 93       	las	Z, r16
    7fc6:	e1 e4       	ldi	r30, 0x41	; 65
    7fc8:	f3 e2       	ldi	r31, 0x23	; 35
    7fca:	04 e0       	ldi	r16, 0x04	; 4
    7fcc:	05 93       	las	Z, r16
    7fce:	0f 91       	pop	r16
    7fd0:	08 95       	ret

00007fd2 <udd_ctrl_send_zlp_in>:
    7fd2:	0f 93       	push	r16
    7fd4:	83 e0       	ldi	r24, 0x03	; 3
    7fd6:	90 e0       	ldi	r25, 0x00	; 0
    7fd8:	80 93 59 24 	sts	0x2459, r24
    7fdc:	90 93 5a 24 	sts	0x245A, r25
    7fe0:	10 92 4a 23 	sts	0x234A, r1
    7fe4:	10 92 4b 23 	sts	0x234B, r1
    7fe8:	e8 e4       	ldi	r30, 0x48	; 72
    7fea:	f3 e2       	ldi	r31, 0x23	; 35
    7fec:	02 e0       	ldi	r16, 0x02	; 2
    7fee:	06 93       	lac	Z, r16
    7ff0:	0f 91       	pop	r16
    7ff2:	08 95       	ret

00007ff4 <udd_ctrl_endofrequest>:
    7ff4:	e0 91 dc 25 	lds	r30, 0x25DC
    7ff8:	f0 91 dd 25 	lds	r31, 0x25DD
    7ffc:	30 97       	sbiw	r30, 0x00	; 0
    7ffe:	09 f0       	breq	.+2      	; 0x8002 <udd_ctrl_endofrequest+0xe>
    8000:	19 94       	eijmp
    8002:	08 95       	ret

00008004 <udd_ep_get_job>:
    8004:	98 2f       	mov	r25, r24
    8006:	9f 70       	andi	r25, 0x0F	; 15
    8008:	28 2f       	mov	r18, r24
    800a:	33 27       	eor	r19, r19
    800c:	27 fd       	sbrc	r18, 7
    800e:	30 95       	com	r19
    8010:	22 27       	eor	r18, r18
    8012:	33 0f       	add	r19, r19
    8014:	22 1f       	adc	r18, r18
    8016:	33 27       	eor	r19, r19
    8018:	29 0f       	add	r18, r25
    801a:	31 1d       	adc	r19, r1
    801c:	29 0f       	add	r18, r25
    801e:	31 1d       	adc	r19, r1
    8020:	22 50       	subi	r18, 0x02	; 2
    8022:	31 09       	sbc	r19, r1
    8024:	89 e0       	ldi	r24, 0x09	; 9
    8026:	82 9f       	mul	r24, r18
    8028:	a0 01       	movw	r20, r0
    802a:	83 9f       	mul	r24, r19
    802c:	50 0d       	add	r21, r0
    802e:	11 24       	eor	r1, r1
    8030:	4c 58       	subi	r20, 0x8C	; 140
    8032:	5c 4d       	sbci	r21, 0xDC	; 220
    8034:	ca 01       	movw	r24, r20
    8036:	08 95       	ret

00008038 <udd_ep_trans_complet>:
    8038:	bf 92       	push	r11
    803a:	cf 92       	push	r12
    803c:	df 92       	push	r13
    803e:	ef 92       	push	r14
    8040:	ff 92       	push	r15
    8042:	0f 93       	push	r16
    8044:	1f 93       	push	r17
    8046:	cf 93       	push	r28
    8048:	df 93       	push	r29
    804a:	b8 2e       	mov	r11, r24
    804c:	db df       	rcall	.-74     	; 0x8004 <udd_ep_get_job>
    804e:	ec 01       	movw	r28, r24
    8050:	8b 2d       	mov	r24, r11
    8052:	6a df       	rcall	.-300    	; 0x7f28 <udd_ep_get_ctrl>
    8054:	7c 01       	movw	r14, r24
    8056:	dc 01       	movw	r26, r24
    8058:	11 96       	adiw	r26, 0x01	; 1
    805a:	ec 91       	ld	r30, X
    805c:	e7 70       	andi	r30, 0x07	; 7
    805e:	e1 50       	subi	r30, 0x01	; 1
    8060:	e7 30       	cpi	r30, 0x07	; 7
    8062:	40 f4       	brcc	.+16     	; 0x8074 <udd_ep_trans_complet+0x3c>
    8064:	f0 e0       	ldi	r31, 0x00	; 0
    8066:	ee 0f       	add	r30, r30
    8068:	ff 1f       	adc	r31, r31
    806a:	e9 58       	subi	r30, 0x89	; 137
    806c:	fe 4d       	sbci	r31, 0xDE	; 222
    806e:	00 81       	ld	r16, Z
    8070:	11 81       	ldd	r17, Z+1	; 0x01
    8072:	02 c0       	rjmp	.+4      	; 0x8078 <udd_ep_trans_complet+0x40>
    8074:	08 e0       	ldi	r16, 0x08	; 8
    8076:	10 e0       	ldi	r17, 0x00	; 0
    8078:	8d 81       	ldd	r24, Y+5	; 0x05
    807a:	9e 81       	ldd	r25, Y+6	; 0x06
    807c:	b7 fe       	sbrs	r11, 7
    807e:	4f c0       	rjmp	.+158    	; 0x811e <udd_ep_trans_complet+0xe6>
    8080:	f7 01       	movw	r30, r14
    8082:	26 81       	ldd	r18, Z+6	; 0x06
    8084:	37 81       	ldd	r19, Z+7	; 0x07
    8086:	28 0f       	add	r18, r24
    8088:	39 1f       	adc	r19, r25
    808a:	2d 83       	std	Y+5, r18	; 0x05
    808c:	3e 83       	std	Y+6, r19	; 0x06
    808e:	8b 81       	ldd	r24, Y+3	; 0x03
    8090:	9c 81       	ldd	r25, Y+4	; 0x04
    8092:	48 81       	ld	r20, Y
    8094:	28 17       	cp	r18, r24
    8096:	39 07       	cpc	r19, r25
    8098:	b1 f1       	breq	.+108    	; 0x8106 <udd_ep_trans_complet+0xce>
    809a:	bc 01       	movw	r22, r24
    809c:	62 1b       	sub	r22, r18
    809e:	73 0b       	sbc	r23, r19
    80a0:	9b 01       	movw	r18, r22
    80a2:	21 15       	cp	r18, r1
    80a4:	74 e0       	ldi	r23, 0x04	; 4
    80a6:	37 07       	cpc	r19, r23
    80a8:	38 f0       	brcs	.+14     	; 0x80b8 <udd_ep_trans_complet+0x80>
    80aa:	2f ef       	ldi	r18, 0xFF	; 255
    80ac:	33 e0       	ldi	r19, 0x03	; 3
    80ae:	c9 01       	movw	r24, r18
    80b0:	b8 01       	movw	r22, r16
    80b2:	57 d7       	rcall	.+3758   	; 0x8f62 <__udivmodhi4>
    80b4:	28 1b       	sub	r18, r24
    80b6:	39 0b       	sbc	r19, r25
    80b8:	41 ff       	sbrs	r20, 1
    80ba:	0b c0       	rjmp	.+22     	; 0x80d2 <udd_ep_trans_complet+0x9a>
    80bc:	c9 01       	movw	r24, r18
    80be:	b8 01       	movw	r22, r16
    80c0:	50 d7       	rcall	.+3744   	; 0x8f62 <__udivmodhi4>
    80c2:	41 e0       	ldi	r20, 0x01	; 1
    80c4:	50 e0       	ldi	r21, 0x00	; 0
    80c6:	89 2b       	or	r24, r25
    80c8:	11 f0       	breq	.+4      	; 0x80ce <udd_ep_trans_complet+0x96>
    80ca:	40 e0       	ldi	r20, 0x00	; 0
    80cc:	50 e0       	ldi	r21, 0x00	; 0
    80ce:	ca 01       	movw	r24, r20
    80d0:	02 c0       	rjmp	.+4      	; 0x80d6 <udd_ep_trans_complet+0x9e>
    80d2:	80 e0       	ldi	r24, 0x00	; 0
    80d4:	90 e0       	ldi	r25, 0x00	; 0
    80d6:	98 81       	ld	r25, Y
    80d8:	80 fb       	bst	r24, 0
    80da:	91 f9       	bld	r25, 1
    80dc:	98 83       	st	Y, r25
    80de:	d7 01       	movw	r26, r14
    80e0:	16 96       	adiw	r26, 0x06	; 6
    80e2:	1d 92       	st	X+, r1
    80e4:	1c 92       	st	X, r1
    80e6:	17 97       	sbiw	r26, 0x07	; 7
    80e8:	12 96       	adiw	r26, 0x02	; 2
    80ea:	2d 93       	st	X+, r18
    80ec:	3c 93       	st	X, r19
    80ee:	13 97       	sbiw	r26, 0x03	; 3
    80f0:	89 81       	ldd	r24, Y+1	; 0x01
    80f2:	9a 81       	ldd	r25, Y+2	; 0x02
    80f4:	2d 81       	ldd	r18, Y+5	; 0x05
    80f6:	3e 81       	ldd	r19, Y+6	; 0x06
    80f8:	82 0f       	add	r24, r18
    80fa:	93 1f       	adc	r25, r19
    80fc:	14 96       	adiw	r26, 0x04	; 4
    80fe:	8d 93       	st	X+, r24
    8100:	9c 93       	st	X, r25
    8102:	15 97       	sbiw	r26, 0x05	; 5
    8104:	08 c0       	rjmp	.+16     	; 0x8116 <udd_ep_trans_complet+0xde>
    8106:	41 ff       	sbrs	r20, 1
    8108:	71 c0       	rjmp	.+226    	; 0x81ec <udd_ep_trans_complet+0x1b4>
    810a:	4d 7f       	andi	r20, 0xFD	; 253
    810c:	48 83       	st	Y, r20
    810e:	16 82       	std	Z+6, r1	; 0x06
    8110:	17 82       	std	Z+7, r1	; 0x07
    8112:	12 82       	std	Z+2, r1	; 0x02
    8114:	13 82       	std	Z+3, r1	; 0x03
    8116:	f7 01       	movw	r30, r14
    8118:	02 e0       	ldi	r16, 0x02	; 2
    811a:	06 93       	lac	Z, r16
    811c:	7f c0       	rjmp	.+254    	; 0x821c <udd_ep_trans_complet+0x1e4>
    811e:	d7 01       	movw	r26, r14
    8120:	12 96       	adiw	r26, 0x02	; 2
    8122:	cd 90       	ld	r12, X+
    8124:	dc 90       	ld	r13, X
    8126:	13 97       	sbiw	r26, 0x03	; 3
    8128:	28 81       	ld	r18, Y
    812a:	22 ff       	sbrs	r18, 2
    812c:	13 c0       	rjmp	.+38     	; 0x8154 <udd_ep_trans_complet+0x11c>
    812e:	29 81       	ldd	r18, Y+1	; 0x01
    8130:	3a 81       	ldd	r19, Y+2	; 0x02
    8132:	28 0f       	add	r18, r24
    8134:	39 1f       	adc	r19, r25
    8136:	8b 81       	ldd	r24, Y+3	; 0x03
    8138:	9c 81       	ldd	r25, Y+4	; 0x04
    813a:	b8 01       	movw	r22, r16
    813c:	12 d7       	rcall	.+3620   	; 0x8f62 <__udivmodhi4>
    813e:	b0 e4       	ldi	r27, 0x40	; 64
    8140:	bb 9e       	mul	r11, r27
    8142:	f0 01       	movw	r30, r0
    8144:	11 24       	eor	r1, r1
    8146:	e7 5a       	subi	r30, 0xA7	; 167
    8148:	fc 4d       	sbci	r31, 0xDC	; 220
    814a:	ac 01       	movw	r20, r24
    814c:	bf 01       	movw	r22, r30
    814e:	c9 01       	movw	r24, r18
    8150:	0e 94 2a 49 	call	0x9254	; 0x9254 <memcpy>
    8154:	8d 81       	ldd	r24, Y+5	; 0x05
    8156:	9e 81       	ldd	r25, Y+6	; 0x06
    8158:	8c 0d       	add	r24, r12
    815a:	9d 1d       	adc	r25, r13
    815c:	8d 83       	std	Y+5, r24	; 0x05
    815e:	9e 83       	std	Y+6, r25	; 0x06
    8160:	2b 81       	ldd	r18, Y+3	; 0x03
    8162:	3c 81       	ldd	r19, Y+4	; 0x04
    8164:	28 17       	cp	r18, r24
    8166:	39 07       	cpc	r19, r25
    8168:	10 f4       	brcc	.+4      	; 0x816e <udd_ep_trans_complet+0x136>
    816a:	2d 83       	std	Y+5, r18	; 0x05
    816c:	3e 83       	std	Y+6, r19	; 0x06
    816e:	f7 01       	movw	r30, r14
    8170:	86 81       	ldd	r24, Z+6	; 0x06
    8172:	97 81       	ldd	r25, Z+7	; 0x07
    8174:	c8 16       	cp	r12, r24
    8176:	d9 06       	cpc	r13, r25
    8178:	c9 f5       	brne	.+114    	; 0x81ec <udd_ep_trans_complet+0x1b4>
    817a:	8d 81       	ldd	r24, Y+5	; 0x05
    817c:	9e 81       	ldd	r25, Y+6	; 0x06
    817e:	82 17       	cp	r24, r18
    8180:	93 07       	cpc	r25, r19
    8182:	a1 f1       	breq	.+104    	; 0x81ec <udd_ep_trans_complet+0x1b4>
    8184:	28 1b       	sub	r18, r24
    8186:	39 0b       	sbc	r19, r25
    8188:	21 15       	cp	r18, r1
    818a:	f4 e0       	ldi	r31, 0x04	; 4
    818c:	3f 07       	cpc	r19, r31
    818e:	10 f0       	brcs	.+4      	; 0x8194 <udd_ep_trans_complet+0x15c>
    8190:	2f ef       	ldi	r18, 0xFF	; 255
    8192:	33 e0       	ldi	r19, 0x03	; 3
    8194:	c9 01       	movw	r24, r18
    8196:	b8 01       	movw	r22, r16
    8198:	e4 d6       	rcall	.+3528   	; 0x8f62 <__udivmodhi4>
    819a:	28 1b       	sub	r18, r24
    819c:	39 0b       	sbc	r19, r25
    819e:	d7 01       	movw	r26, r14
    81a0:	12 96       	adiw	r26, 0x02	; 2
    81a2:	1d 92       	st	X+, r1
    81a4:	1c 92       	st	X, r1
    81a6:	13 97       	sbiw	r26, 0x03	; 3
    81a8:	20 17       	cp	r18, r16
    81aa:	31 07       	cpc	r19, r17
    81ac:	78 f4       	brcc	.+30     	; 0x81cc <udd_ep_trans_complet+0x194>
    81ae:	88 81       	ld	r24, Y
    81b0:	84 60       	ori	r24, 0x04	; 4
    81b2:	88 83       	st	Y, r24
    81b4:	b0 e4       	ldi	r27, 0x40	; 64
    81b6:	bb 9e       	mul	r11, r27
    81b8:	c0 01       	movw	r24, r0
    81ba:	11 24       	eor	r1, r1
    81bc:	87 5a       	subi	r24, 0xA7	; 167
    81be:	9c 4d       	sbci	r25, 0xDC	; 220
    81c0:	f7 01       	movw	r30, r14
    81c2:	84 83       	std	Z+4, r24	; 0x04
    81c4:	95 83       	std	Z+5, r25	; 0x05
    81c6:	06 83       	std	Z+6, r16	; 0x06
    81c8:	17 83       	std	Z+7, r17	; 0x07
    81ca:	a5 cf       	rjmp	.-182    	; 0x8116 <udd_ep_trans_complet+0xde>
    81cc:	89 81       	ldd	r24, Y+1	; 0x01
    81ce:	9a 81       	ldd	r25, Y+2	; 0x02
    81d0:	4d 81       	ldd	r20, Y+5	; 0x05
    81d2:	5e 81       	ldd	r21, Y+6	; 0x06
    81d4:	84 0f       	add	r24, r20
    81d6:	95 1f       	adc	r25, r21
    81d8:	d7 01       	movw	r26, r14
    81da:	14 96       	adiw	r26, 0x04	; 4
    81dc:	8d 93       	st	X+, r24
    81de:	9c 93       	st	X, r25
    81e0:	15 97       	sbiw	r26, 0x05	; 5
    81e2:	16 96       	adiw	r26, 0x06	; 6
    81e4:	2d 93       	st	X+, r18
    81e6:	3c 93       	st	X, r19
    81e8:	17 97       	sbiw	r26, 0x07	; 7
    81ea:	95 cf       	rjmp	.-214    	; 0x8116 <udd_ep_trans_complet+0xde>
    81ec:	88 81       	ld	r24, Y
    81ee:	80 ff       	sbrs	r24, 0
    81f0:	15 c0       	rjmp	.+42     	; 0x821c <udd_ep_trans_complet+0x1e4>
    81f2:	8e 7f       	andi	r24, 0xFE	; 254
    81f4:	88 83       	st	Y, r24
    81f6:	ef 81       	ldd	r30, Y+7	; 0x07
    81f8:	f8 85       	ldd	r31, Y+8	; 0x08
    81fa:	30 97       	sbiw	r30, 0x00	; 0
    81fc:	79 f0       	breq	.+30     	; 0x821c <udd_ep_trans_complet+0x1e4>
    81fe:	6d 81       	ldd	r22, Y+5	; 0x05
    8200:	7e 81       	ldd	r23, Y+6	; 0x06
    8202:	4b 2d       	mov	r20, r11
    8204:	80 e0       	ldi	r24, 0x00	; 0
    8206:	90 e0       	ldi	r25, 0x00	; 0
    8208:	df 91       	pop	r29
    820a:	cf 91       	pop	r28
    820c:	1f 91       	pop	r17
    820e:	0f 91       	pop	r16
    8210:	ff 90       	pop	r15
    8212:	ef 90       	pop	r14
    8214:	df 90       	pop	r13
    8216:	cf 90       	pop	r12
    8218:	bf 90       	pop	r11
    821a:	19 94       	eijmp
    821c:	df 91       	pop	r29
    821e:	cf 91       	pop	r28
    8220:	1f 91       	pop	r17
    8222:	0f 91       	pop	r16
    8224:	ff 90       	pop	r15
    8226:	ef 90       	pop	r14
    8228:	df 90       	pop	r13
    822a:	cf 90       	pop	r12
    822c:	bf 90       	pop	r11
    822e:	08 95       	ret

00008230 <udd_ctrl_in_sent>:
    8230:	0f 93       	push	r16
    8232:	cf 93       	push	r28
    8234:	df 93       	push	r29
    8236:	80 91 59 24 	lds	r24, 0x2459
    823a:	90 91 5a 24 	lds	r25, 0x245A
    823e:	03 97       	sbiw	r24, 0x03	; 3
    8240:	29 f4       	brne	.+10     	; 0x824c <udd_ctrl_in_sent+0x1c>
    8242:	d8 de       	rcall	.-592    	; 0x7ff4 <udd_ctrl_endofrequest>
    8244:	df 91       	pop	r29
    8246:	cf 91       	pop	r28
    8248:	0f 91       	pop	r16
    824a:	85 ce       	rjmp	.-758    	; 0x7f56 <udd_ctrl_init>
    824c:	20 91 5d 24 	lds	r18, 0x245D
    8250:	30 91 5e 24 	lds	r19, 0x245E
    8254:	c0 91 da 25 	lds	r28, 0x25DA
    8258:	d0 91 db 25 	lds	r29, 0x25DB
    825c:	c2 1b       	sub	r28, r18
    825e:	d3 0b       	sbc	r29, r19
    8260:	79 f5       	brne	.+94     	; 0x82c0 <udd_ctrl_in_sent+0x90>
    8262:	80 91 5b 24 	lds	r24, 0x245B
    8266:	90 91 5c 24 	lds	r25, 0x245C
    826a:	82 0f       	add	r24, r18
    826c:	93 1f       	adc	r25, r19
    826e:	80 93 5b 24 	sts	0x245B, r24
    8272:	90 93 5c 24 	sts	0x245C, r25
    8276:	20 91 d6 25 	lds	r18, 0x25D6
    827a:	30 91 d7 25 	lds	r19, 0x25D7
    827e:	28 17       	cp	r18, r24
    8280:	39 07       	cpc	r19, r25
    8282:	21 f0       	breq	.+8      	; 0x828c <udd_ctrl_in_sent+0x5c>
    8284:	80 91 5f 24 	lds	r24, 0x245F
    8288:	88 23       	and	r24, r24
    828a:	49 f0       	breq	.+18     	; 0x829e <udd_ctrl_in_sent+0x6e>
    828c:	84 e0       	ldi	r24, 0x04	; 4
    828e:	90 e0       	ldi	r25, 0x00	; 0
    8290:	80 93 59 24 	sts	0x2459, r24
    8294:	90 93 5a 24 	sts	0x245A, r25
    8298:	e0 e4       	ldi	r30, 0x40	; 64
    829a:	f3 e2       	ldi	r31, 0x23	; 35
    829c:	36 c0       	rjmp	.+108    	; 0x830a <udd_ctrl_in_sent+0xda>
    829e:	e0 91 de 25 	lds	r30, 0x25DE
    82a2:	f0 91 df 25 	lds	r31, 0x25DF
    82a6:	30 97       	sbiw	r30, 0x00	; 0
    82a8:	99 f0       	breq	.+38     	; 0x82d0 <udd_ctrl_in_sent+0xa0>
    82aa:	19 95       	eicall
    82ac:	88 23       	and	r24, r24
    82ae:	81 f0       	breq	.+32     	; 0x82d0 <udd_ctrl_in_sent+0xa0>
    82b0:	10 92 5d 24 	sts	0x245D, r1
    82b4:	10 92 5e 24 	sts	0x245E, r1
    82b8:	c0 91 da 25 	lds	r28, 0x25DA
    82bc:	d0 91 db 25 	lds	r29, 0x25DB
    82c0:	c0 34       	cpi	r28, 0x40	; 64
    82c2:	d1 05       	cpc	r29, r1
    82c4:	28 f0       	brcs	.+10     	; 0x82d0 <udd_ctrl_in_sent+0xa0>
    82c6:	10 92 5f 24 	sts	0x245F, r1
    82ca:	c0 e4       	ldi	r28, 0x40	; 64
    82cc:	d0 e0       	ldi	r29, 0x00	; 0
    82ce:	03 c0       	rjmp	.+6      	; 0x82d6 <udd_ctrl_in_sent+0xa6>
    82d0:	81 e0       	ldi	r24, 0x01	; 1
    82d2:	80 93 5f 24 	sts	0x245F, r24
    82d6:	c0 93 4a 23 	sts	0x234A, r28
    82da:	d0 93 4b 23 	sts	0x234B, r29
    82de:	20 91 5d 24 	lds	r18, 0x245D
    82e2:	30 91 5e 24 	lds	r19, 0x245E
    82e6:	80 91 d8 25 	lds	r24, 0x25D8
    82ea:	90 91 d9 25 	lds	r25, 0x25D9
    82ee:	82 0f       	add	r24, r18
    82f0:	93 1f       	adc	r25, r19
    82f2:	80 93 4c 23 	sts	0x234C, r24
    82f6:	90 93 4d 23 	sts	0x234D, r25
    82fa:	c2 0f       	add	r28, r18
    82fc:	d3 1f       	adc	r29, r19
    82fe:	c0 93 5d 24 	sts	0x245D, r28
    8302:	d0 93 5e 24 	sts	0x245E, r29
    8306:	e8 e4       	ldi	r30, 0x48	; 72
    8308:	f3 e2       	ldi	r31, 0x23	; 35
    830a:	02 e0       	ldi	r16, 0x02	; 2
    830c:	06 93       	lac	Z, r16
    830e:	df 91       	pop	r29
    8310:	cf 91       	pop	r28
    8312:	0f 91       	pop	r16
    8314:	08 95       	ret

00008316 <udd_ctrl_interrupt_tc_setup>:
    8316:	0f 93       	push	r16
    8318:	80 91 cc 04 	lds	r24, 0x04CC
    831c:	80 ff       	sbrs	r24, 0
    831e:	6b c0       	rjmp	.+214    	; 0x83f6 <udd_ctrl_interrupt_tc_setup+0xe0>
    8320:	21 e0       	ldi	r18, 0x01	; 1
    8322:	20 93 cc 04 	sts	0x04CC, r18
    8326:	80 e4       	ldi	r24, 0x40	; 64
    8328:	93 e2       	ldi	r25, 0x23	; 35
    832a:	fc 01       	movw	r30, r24
    832c:	00 e8       	ldi	r16, 0x80	; 128
    832e:	06 93       	lac	Z, r16
    8330:	e8 e4       	ldi	r30, 0x48	; 72
    8332:	f3 e2       	ldi	r31, 0x23	; 35
    8334:	00 e8       	ldi	r16, 0x80	; 128
    8336:	06 93       	lac	Z, r16
    8338:	20 93 ca 04 	sts	0x04CA, r18
    833c:	fc 01       	movw	r30, r24
    833e:	00 e1       	ldi	r16, 0x10	; 16
    8340:	06 93       	lac	Z, r16
    8342:	80 91 59 24 	lds	r24, 0x2459
    8346:	90 91 5a 24 	lds	r25, 0x245A
    834a:	00 97       	sbiw	r24, 0x00	; 0
    834c:	29 f0       	breq	.+10     	; 0x8358 <udd_ctrl_interrupt_tc_setup+0x42>
    834e:	03 97       	sbiw	r24, 0x03	; 3
    8350:	02 97       	sbiw	r24, 0x02	; 2
    8352:	08 f4       	brcc	.+2      	; 0x8356 <udd_ctrl_interrupt_tc_setup+0x40>
    8354:	4f de       	rcall	.-866    	; 0x7ff4 <udd_ctrl_endofrequest>
    8356:	ff dd       	rcall	.-1026   	; 0x7f56 <udd_ctrl_init>
    8358:	80 91 42 23 	lds	r24, 0x2342
    835c:	90 91 43 23 	lds	r25, 0x2343
    8360:	08 97       	sbiw	r24, 0x08	; 8
    8362:	09 f0       	breq	.+2      	; 0x8366 <udd_ctrl_interrupt_tc_setup+0x50>
    8364:	4a c0       	rjmp	.+148    	; 0x83fa <udd_ctrl_interrupt_tc_setup+0xe4>
    8366:	88 e0       	ldi	r24, 0x08	; 8
    8368:	e9 e1       	ldi	r30, 0x19	; 25
    836a:	f4 e2       	ldi	r31, 0x24	; 36
    836c:	a0 ed       	ldi	r26, 0xD0	; 208
    836e:	b5 e2       	ldi	r27, 0x25	; 37
    8370:	01 90       	ld	r0, Z+
    8372:	0d 92       	st	X+, r0
    8374:	8a 95       	dec	r24
    8376:	e1 f7       	brne	.-8      	; 0x8370 <udd_ctrl_interrupt_tc_setup+0x5a>
    8378:	80 91 c8 04 	lds	r24, 0x04C8
    837c:	80 62       	ori	r24, 0x20	; 32
    837e:	80 93 c8 04 	sts	0x04C8, r24
    8382:	80 91 c8 04 	lds	r24, 0x04C8
    8386:	80 62       	ori	r24, 0x20	; 32
    8388:	80 93 c8 04 	sts	0x04C8, r24
    838c:	0e 94 e7 31 	call	0x63ce	; 0x63ce <udc_process_setup>
    8390:	81 11       	cpse	r24, r1
    8392:	02 c0       	rjmp	.+4      	; 0x8398 <udd_ctrl_interrupt_tc_setup+0x82>
    8394:	0d de       	rcall	.-998    	; 0x7fb0 <udd_ctrl_stall_data>
    8396:	31 c0       	rjmp	.+98     	; 0x83fa <udd_ctrl_interrupt_tc_setup+0xe4>
    8398:	80 91 d0 25 	lds	r24, 0x25D0
    839c:	87 ff       	sbrs	r24, 7
    839e:	10 c0       	rjmp	.+32     	; 0x83c0 <udd_ctrl_interrupt_tc_setup+0xaa>
    83a0:	10 92 5b 24 	sts	0x245B, r1
    83a4:	10 92 5c 24 	sts	0x245C, r1
    83a8:	10 92 5d 24 	sts	0x245D, r1
    83ac:	10 92 5e 24 	sts	0x245E, r1
    83b0:	82 e0       	ldi	r24, 0x02	; 2
    83b2:	90 e0       	ldi	r25, 0x00	; 0
    83b4:	80 93 59 24 	sts	0x2459, r24
    83b8:	90 93 5a 24 	sts	0x245A, r25
    83bc:	39 df       	rcall	.-398    	; 0x8230 <udd_ctrl_in_sent>
    83be:	1d c0       	rjmp	.+58     	; 0x83fa <udd_ctrl_interrupt_tc_setup+0xe4>
    83c0:	80 91 d6 25 	lds	r24, 0x25D6
    83c4:	90 91 d7 25 	lds	r25, 0x25D7
    83c8:	89 2b       	or	r24, r25
    83ca:	11 f4       	brne	.+4      	; 0x83d0 <udd_ctrl_interrupt_tc_setup+0xba>
    83cc:	02 de       	rcall	.-1020   	; 0x7fd2 <udd_ctrl_send_zlp_in>
    83ce:	15 c0       	rjmp	.+42     	; 0x83fa <udd_ctrl_interrupt_tc_setup+0xe4>
    83d0:	10 92 5b 24 	sts	0x245B, r1
    83d4:	10 92 5c 24 	sts	0x245C, r1
    83d8:	10 92 5d 24 	sts	0x245D, r1
    83dc:	10 92 5e 24 	sts	0x245E, r1
    83e0:	81 e0       	ldi	r24, 0x01	; 1
    83e2:	90 e0       	ldi	r25, 0x00	; 0
    83e4:	80 93 59 24 	sts	0x2459, r24
    83e8:	90 93 5a 24 	sts	0x245A, r25
    83ec:	e0 e4       	ldi	r30, 0x40	; 64
    83ee:	f3 e2       	ldi	r31, 0x23	; 35
    83f0:	02 e0       	ldi	r16, 0x02	; 2
    83f2:	06 93       	lac	Z, r16
    83f4:	02 c0       	rjmp	.+4      	; 0x83fa <udd_ctrl_interrupt_tc_setup+0xe4>
    83f6:	80 e0       	ldi	r24, 0x00	; 0
    83f8:	01 c0       	rjmp	.+2      	; 0x83fc <udd_ctrl_interrupt_tc_setup+0xe6>
    83fa:	81 e0       	ldi	r24, 0x01	; 1
    83fc:	0f 91       	pop	r16
    83fe:	08 95       	ret

00008400 <udd_disable>:
    8400:	cf 93       	push	r28
    8402:	cf b7       	in	r28, 0x3f	; 63
    8404:	f8 94       	cli
    8406:	e1 ec       	ldi	r30, 0xC1	; 193
    8408:	f4 e0       	ldi	r31, 0x04	; 4
    840a:	80 81       	ld	r24, Z
    840c:	8e 7f       	andi	r24, 0xFE	; 254
    840e:	80 83       	st	Z, r24
    8410:	10 92 c0 04 	sts	0x04C0, r1
    8414:	10 82       	st	Z, r1
    8416:	0e 94 aa 30 	call	0x6154	; 0x6154 <sysclk_disable_usb>
    841a:	80 e0       	ldi	r24, 0x00	; 0
    841c:	6b dd       	rcall	.-1322   	; 0x7ef4 <udd_sleep_mode>
    841e:	9f b7       	in	r25, 0x3f	; 63
    8420:	f8 94       	cli
    8422:	ed ec       	ldi	r30, 0xCD	; 205
    8424:	f5 e2       	ldi	r31, 0x25	; 37
    8426:	80 81       	ld	r24, Z
    8428:	81 50       	subi	r24, 0x01	; 1
    842a:	80 83       	st	Z, r24
    842c:	9f bf       	out	0x3f, r25	; 63
    842e:	cf bf       	out	0x3f, r28	; 63
    8430:	cf 91       	pop	r28
    8432:	08 95       	ret

00008434 <udd_attach>:
    8434:	cf 93       	push	r28
    8436:	cf b7       	in	r28, 0x3f	; 63
    8438:	f8 94       	cli
    843a:	81 e0       	ldi	r24, 0x01	; 1
    843c:	5b dd       	rcall	.-1354   	; 0x7ef4 <udd_sleep_mode>
    843e:	ea ec       	ldi	r30, 0xCA	; 202
    8440:	f4 e0       	ldi	r31, 0x04	; 4
    8442:	80 e4       	ldi	r24, 0x40	; 64
    8444:	80 83       	st	Z, r24
    8446:	80 e2       	ldi	r24, 0x20	; 32
    8448:	80 83       	st	Z, r24
    844a:	e1 ec       	ldi	r30, 0xC1	; 193
    844c:	f4 e0       	ldi	r31, 0x04	; 4
    844e:	80 81       	ld	r24, Z
    8450:	81 60       	ori	r24, 0x01	; 1
    8452:	80 83       	st	Z, r24
    8454:	a9 ec       	ldi	r26, 0xC9	; 201
    8456:	b4 e0       	ldi	r27, 0x04	; 4
    8458:	8c 91       	ld	r24, X
    845a:	82 60       	ori	r24, 0x02	; 2
    845c:	8c 93       	st	X, r24
    845e:	e8 ec       	ldi	r30, 0xC8	; 200
    8460:	f4 e0       	ldi	r31, 0x04	; 4
    8462:	80 81       	ld	r24, Z
    8464:	80 64       	ori	r24, 0x40	; 64
    8466:	80 83       	st	Z, r24
    8468:	8c 91       	ld	r24, X
    846a:	81 60       	ori	r24, 0x01	; 1
    846c:	8c 93       	st	X, r24
    846e:	80 81       	ld	r24, Z
    8470:	80 68       	ori	r24, 0x80	; 128
    8472:	80 83       	st	Z, r24
    8474:	cf bf       	out	0x3f, r28	; 63
    8476:	cf 91       	pop	r28
    8478:	08 95       	ret

0000847a <udd_enable>:
    847a:	cf 93       	push	r28
    847c:	10 92 60 00 	sts	0x0060, r1
    8480:	80 e3       	ldi	r24, 0x30	; 48
    8482:	0e 94 8f 30 	call	0x611e	; 0x611e <sysclk_enable_usb>
    8486:	80 91 c0 04 	lds	r24, 0x04C0
    848a:	80 64       	ori	r24, 0x40	; 64
    848c:	80 93 c0 04 	sts	0x04C0, r24
    8490:	81 e0       	ldi	r24, 0x01	; 1
    8492:	80 93 60 00 	sts	0x0060, r24
    8496:	cf b7       	in	r28, 0x3f	; 63
    8498:	f8 94       	cli
    849a:	10 92 41 23 	sts	0x2341, r1
    849e:	10 92 49 23 	sts	0x2349, r1
    84a2:	10 92 51 23 	sts	0x2351, r1
    84a6:	10 92 59 23 	sts	0x2359, r1
    84aa:	10 92 61 23 	sts	0x2361, r1
    84ae:	10 92 69 23 	sts	0x2369, r1
    84b2:	80 91 74 23 	lds	r24, 0x2374
    84b6:	8e 7f       	andi	r24, 0xFE	; 254
    84b8:	80 93 74 23 	sts	0x2374, r24
    84bc:	80 91 7d 23 	lds	r24, 0x237D
    84c0:	8e 7f       	andi	r24, 0xFE	; 254
    84c2:	80 93 7d 23 	sts	0x237D, r24
    84c6:	80 91 86 23 	lds	r24, 0x2386
    84ca:	8e 7f       	andi	r24, 0xFE	; 254
    84cc:	80 93 86 23 	sts	0x2386, r24
    84d0:	80 91 8f 23 	lds	r24, 0x238F
    84d4:	8e 7f       	andi	r24, 0xFE	; 254
    84d6:	80 93 8f 23 	sts	0x238F, r24
    84da:	6a e1       	ldi	r22, 0x1A	; 26
    84dc:	70 e0       	ldi	r23, 0x00	; 0
    84de:	82 e0       	ldi	r24, 0x02	; 2
    84e0:	0e 94 b8 34 	call	0x6970	; 0x6970 <nvm_read_byte>
    84e4:	8f 3f       	cpi	r24, 0xFF	; 255
    84e6:	09 f0       	breq	.+2      	; 0x84ea <udd_enable+0x70>
    84e8:	01 c0       	rjmp	.+2      	; 0x84ec <udd_enable+0x72>
    84ea:	8f e1       	ldi	r24, 0x1F	; 31
    84ec:	80 93 fa 04 	sts	0x04FA, r24
    84f0:	6b e1       	ldi	r22, 0x1B	; 27
    84f2:	70 e0       	ldi	r23, 0x00	; 0
    84f4:	82 e0       	ldi	r24, 0x02	; 2
    84f6:	0e 94 b8 34 	call	0x6970	; 0x6970 <nvm_read_byte>
    84fa:	8f 3f       	cpi	r24, 0xFF	; 255
    84fc:	09 f0       	breq	.+2      	; 0x8500 <udd_enable+0x86>
    84fe:	01 c0       	rjmp	.+2      	; 0x8502 <udd_enable+0x88>
    8500:	8f e1       	ldi	r24, 0x1F	; 31
    8502:	80 93 fb 04 	sts	0x04FB, r24
    8506:	80 91 c0 04 	lds	r24, 0x04C0
    850a:	82 60       	ori	r24, 0x02	; 2
    850c:	80 93 c0 04 	sts	0x04C0, r24
    8510:	80 91 c0 04 	lds	r24, 0x04C0
    8514:	80 68       	ori	r24, 0x80	; 128
    8516:	80 93 c0 04 	sts	0x04C0, r24
    851a:	80 91 c0 04 	lds	r24, 0x04C0
    851e:	80 61       	ori	r24, 0x10	; 16
    8520:	80 93 c0 04 	sts	0x04C0, r24
    8524:	80 e4       	ldi	r24, 0x40	; 64
    8526:	93 e2       	ldi	r25, 0x23	; 35
    8528:	80 93 c6 04 	sts	0x04C6, r24
    852c:	90 93 c7 04 	sts	0x04C7, r25
    8530:	80 91 c0 04 	lds	r24, 0x04C0
    8534:	80 62       	ori	r24, 0x20	; 32
    8536:	80 93 c0 04 	sts	0x04C0, r24
    853a:	8f ef       	ldi	r24, 0xFF	; 255
    853c:	80 93 c5 04 	sts	0x04C5, r24
    8540:	80 91 c8 04 	lds	r24, 0x04C8
    8544:	81 60       	ori	r24, 0x01	; 1
    8546:	80 93 c8 04 	sts	0x04C8, r24
    854a:	10 92 98 23 	sts	0x2398, r1
    854e:	9f b7       	in	r25, 0x3f	; 63
    8550:	f8 94       	cli
    8552:	80 91 cd 25 	lds	r24, 0x25CD
    8556:	8f 5f       	subi	r24, 0xFF	; 255
    8558:	80 93 cd 25 	sts	0x25CD, r24
    855c:	9f bf       	out	0x3f, r25	; 63
    855e:	6a df       	rcall	.-300    	; 0x8434 <udd_attach>
    8560:	cf bf       	out	0x3f, r28	; 63
    8562:	cf 91       	pop	r28
    8564:	08 95       	ret

00008566 <udd_detach>:
    8566:	e1 ec       	ldi	r30, 0xC1	; 193
    8568:	f4 e0       	ldi	r31, 0x04	; 4
    856a:	80 81       	ld	r24, Z
    856c:	8e 7f       	andi	r24, 0xFE	; 254
    856e:	80 83       	st	Z, r24
    8570:	08 95       	ret

00008572 <udd_is_high_speed>:
    8572:	80 e0       	ldi	r24, 0x00	; 0
    8574:	08 95       	ret

00008576 <udd_set_address>:
    8576:	80 93 c3 04 	sts	0x04C3, r24
    857a:	08 95       	ret

0000857c <udd_getaddress>:
    857c:	80 91 c3 04 	lds	r24, 0x04C3
    8580:	08 95       	ret

00008582 <udd_get_frame_number>:
    8582:	20 91 70 23 	lds	r18, 0x2370
    8586:	30 91 71 23 	lds	r19, 0x2371
    858a:	c9 01       	movw	r24, r18
    858c:	08 95       	ret

0000858e <udd_get_micro_frame_number>:
    858e:	80 e0       	ldi	r24, 0x00	; 0
    8590:	90 e0       	ldi	r25, 0x00	; 0
    8592:	08 95       	ret

00008594 <udd_set_setup_payload>:
    8594:	80 93 d8 25 	sts	0x25D8, r24
    8598:	90 93 d9 25 	sts	0x25D9, r25
    859c:	60 93 da 25 	sts	0x25DA, r22
    85a0:	70 93 db 25 	sts	0x25DB, r23
    85a4:	08 95       	ret

000085a6 <udd_ep_alloc>:
    85a6:	0f 93       	push	r16
    85a8:	1f 93       	push	r17
    85aa:	cf 93       	push	r28
    85ac:	df 93       	push	r29
    85ae:	1f 92       	push	r1
    85b0:	cd b7       	in	r28, 0x3d	; 61
    85b2:	de b7       	in	r29, 0x3e	; 62
    85b4:	8a 01       	movw	r16, r20
    85b6:	69 83       	std	Y+1, r22	; 0x01
    85b8:	b7 dc       	rcall	.-1682   	; 0x7f28 <udd_ep_get_ctrl>
    85ba:	fc 01       	movw	r30, r24
    85bc:	81 81       	ldd	r24, Z+1	; 0x01
    85be:	80 7c       	andi	r24, 0xC0	; 192
    85c0:	69 81       	ldd	r22, Y+1	; 0x01
    85c2:	81 11       	cpse	r24, r1
    85c4:	4d c0       	rjmp	.+154    	; 0x8660 <udd_ep_alloc+0xba>
    85c6:	63 70       	andi	r22, 0x03	; 3
    85c8:	61 30       	cpi	r22, 0x01	; 1
    85ca:	39 f0       	breq	.+14     	; 0x85da <udd_ep_alloc+0x34>
    85cc:	18 f4       	brcc	.+6      	; 0x85d4 <udd_ep_alloc+0x2e>
    85ce:	20 e4       	ldi	r18, 0x40	; 64
    85d0:	30 e0       	ldi	r19, 0x00	; 0
    85d2:	05 c0       	rjmp	.+10     	; 0x85de <udd_ep_alloc+0x38>
    85d4:	20 e8       	ldi	r18, 0x80	; 128
    85d6:	30 e0       	ldi	r19, 0x00	; 0
    85d8:	02 c0       	rjmp	.+4      	; 0x85de <udd_ep_alloc+0x38>
    85da:	20 ec       	ldi	r18, 0xC0	; 192
    85dc:	30 e0       	ldi	r19, 0x00	; 0
    85de:	00 38       	cpi	r16, 0x80	; 128
    85e0:	11 05       	cpc	r17, r1
    85e2:	f9 f0       	breq	.+62     	; 0x8622 <udd_ep_alloc+0x7c>
    85e4:	50 f4       	brcc	.+20     	; 0x85fa <udd_ep_alloc+0x54>
    85e6:	00 32       	cpi	r16, 0x20	; 32
    85e8:	11 05       	cpc	r17, r1
    85ea:	a9 f0       	breq	.+42     	; 0x8616 <udd_ep_alloc+0x70>
    85ec:	00 34       	cpi	r16, 0x40	; 64
    85ee:	11 05       	cpc	r17, r1
    85f0:	a9 f0       	breq	.+42     	; 0x861c <udd_ep_alloc+0x76>
    85f2:	00 31       	cpi	r16, 0x10	; 16
    85f4:	11 05       	cpc	r17, r1
    85f6:	61 f4       	brne	.+24     	; 0x8610 <udd_ep_alloc+0x6a>
    85f8:	20 c0       	rjmp	.+64     	; 0x863a <udd_ep_alloc+0x94>
    85fa:	01 15       	cp	r16, r1
    85fc:	82 e0       	ldi	r24, 0x02	; 2
    85fe:	18 07       	cpc	r17, r24
    8600:	b1 f0       	breq	.+44     	; 0x862e <udd_ep_alloc+0x88>
    8602:	0f 3f       	cpi	r16, 0xFF	; 255
    8604:	a3 e0       	ldi	r26, 0x03	; 3
    8606:	1a 07       	cpc	r17, r26
    8608:	a9 f0       	breq	.+42     	; 0x8634 <udd_ep_alloc+0x8e>
    860a:	01 15       	cp	r16, r1
    860c:	11 40       	sbci	r17, 0x01	; 1
    860e:	61 f0       	breq	.+24     	; 0x8628 <udd_ep_alloc+0x82>
    8610:	80 e0       	ldi	r24, 0x00	; 0
    8612:	90 e0       	ldi	r25, 0x00	; 0
    8614:	14 c0       	rjmp	.+40     	; 0x863e <udd_ep_alloc+0x98>
    8616:	82 e0       	ldi	r24, 0x02	; 2
    8618:	90 e0       	ldi	r25, 0x00	; 0
    861a:	11 c0       	rjmp	.+34     	; 0x863e <udd_ep_alloc+0x98>
    861c:	83 e0       	ldi	r24, 0x03	; 3
    861e:	90 e0       	ldi	r25, 0x00	; 0
    8620:	0e c0       	rjmp	.+28     	; 0x863e <udd_ep_alloc+0x98>
    8622:	84 e0       	ldi	r24, 0x04	; 4
    8624:	90 e0       	ldi	r25, 0x00	; 0
    8626:	0b c0       	rjmp	.+22     	; 0x863e <udd_ep_alloc+0x98>
    8628:	85 e0       	ldi	r24, 0x05	; 5
    862a:	90 e0       	ldi	r25, 0x00	; 0
    862c:	08 c0       	rjmp	.+16     	; 0x863e <udd_ep_alloc+0x98>
    862e:	86 e0       	ldi	r24, 0x06	; 6
    8630:	90 e0       	ldi	r25, 0x00	; 0
    8632:	05 c0       	rjmp	.+10     	; 0x863e <udd_ep_alloc+0x98>
    8634:	87 e0       	ldi	r24, 0x07	; 7
    8636:	90 e0       	ldi	r25, 0x00	; 0
    8638:	02 c0       	rjmp	.+4      	; 0x863e <udd_ep_alloc+0x98>
    863a:	81 e0       	ldi	r24, 0x01	; 1
    863c:	90 e0       	ldi	r25, 0x00	; 0
    863e:	11 82       	std	Z+1, r1	; 0x01
    8640:	96 e0       	ldi	r25, 0x06	; 6
    8642:	90 83       	st	Z, r25
    8644:	82 2b       	or	r24, r18
    8646:	81 83       	std	Z+1, r24	; 0x01
    8648:	81 81       	ldd	r24, Z+1	; 0x01
    864a:	80 7c       	andi	r24, 0xC0	; 192
    864c:	80 3c       	cpi	r24, 0xC0	; 192
    864e:	21 f4       	brne	.+8      	; 0x8658 <udd_ep_alloc+0xb2>
    8650:	81 81       	ldd	r24, Z+1	; 0x01
    8652:	87 70       	andi	r24, 0x07	; 7
    8654:	87 30       	cpi	r24, 0x07	; 7
    8656:	31 f0       	breq	.+12     	; 0x8664 <udd_ep_alloc+0xbe>
    8658:	81 81       	ldd	r24, Z+1	; 0x01
    865a:	80 62       	ori	r24, 0x20	; 32
    865c:	81 83       	std	Z+1, r24	; 0x01
    865e:	02 c0       	rjmp	.+4      	; 0x8664 <udd_ep_alloc+0xbe>
    8660:	80 e0       	ldi	r24, 0x00	; 0
    8662:	01 c0       	rjmp	.+2      	; 0x8666 <udd_ep_alloc+0xc0>
    8664:	81 e0       	ldi	r24, 0x01	; 1
    8666:	0f 90       	pop	r0
    8668:	df 91       	pop	r29
    866a:	cf 91       	pop	r28
    866c:	1f 91       	pop	r17
    866e:	0f 91       	pop	r16
    8670:	08 95       	ret

00008672 <udd_ep_is_halted>:
    8672:	5a dc       	rcall	.-1868   	; 0x7f28 <udd_ep_get_ctrl>
    8674:	fc 01       	movw	r30, r24
    8676:	81 81       	ldd	r24, Z+1	; 0x01
    8678:	82 fb       	bst	r24, 2
    867a:	88 27       	eor	r24, r24
    867c:	80 f9       	bld	r24, 0
    867e:	08 95       	ret

00008680 <udd_ep_clear_halt>:
    8680:	cf 93       	push	r28
    8682:	c8 2f       	mov	r28, r24
    8684:	51 dc       	rcall	.-1886   	; 0x7f28 <udd_ep_get_ctrl>
    8686:	fc 01       	movw	r30, r24
    8688:	81 81       	ldd	r24, Z+1	; 0x01
    868a:	82 ff       	sbrs	r24, 2
    868c:	0f c0       	rjmp	.+30     	; 0x86ac <udd_ep_clear_halt+0x2c>
    868e:	91 81       	ldd	r25, Z+1	; 0x01
    8690:	9b 7f       	andi	r25, 0xFB	; 251
    8692:	91 83       	std	Z+1, r25	; 0x01
    8694:	8c 2f       	mov	r24, r28
    8696:	b6 dc       	rcall	.-1684   	; 0x8004 <udd_ep_get_job>
    8698:	fc 01       	movw	r30, r24
    869a:	80 81       	ld	r24, Z
    869c:	80 ff       	sbrs	r24, 0
    869e:	06 c0       	rjmp	.+12     	; 0x86ac <udd_ep_clear_halt+0x2c>
    86a0:	8e 7f       	andi	r24, 0xFE	; 254
    86a2:	80 83       	st	Z, r24
    86a4:	07 80       	ldd	r0, Z+7	; 0x07
    86a6:	f0 85       	ldd	r31, Z+8	; 0x08
    86a8:	e0 2d       	mov	r30, r0
    86aa:	19 95       	eicall
    86ac:	81 e0       	ldi	r24, 0x01	; 1
    86ae:	cf 91       	pop	r28
    86b0:	08 95       	ret

000086b2 <udd_ep_run>:
    86b2:	8f 92       	push	r8
    86b4:	9f 92       	push	r9
    86b6:	af 92       	push	r10
    86b8:	bf 92       	push	r11
    86ba:	df 92       	push	r13
    86bc:	ef 92       	push	r14
    86be:	ff 92       	push	r15
    86c0:	0f 93       	push	r16
    86c2:	1f 93       	push	r17
    86c4:	cf 93       	push	r28
    86c6:	df 93       	push	r29
    86c8:	1f 92       	push	r1
    86ca:	cd b7       	in	r28, 0x3d	; 61
    86cc:	de b7       	in	r29, 0x3e	; 62
    86ce:	d8 2e       	mov	r13, r24
    86d0:	5a 01       	movw	r10, r20
    86d2:	79 01       	movw	r14, r18
    86d4:	69 83       	std	Y+1, r22	; 0x01
    86d6:	96 dc       	rcall	.-1748   	; 0x8004 <udd_ep_get_job>
    86d8:	4c 01       	movw	r8, r24
    86da:	8d 2d       	mov	r24, r13
    86dc:	25 dc       	rcall	.-1974   	; 0x7f28 <udd_ep_get_ctrl>
    86de:	fc 01       	movw	r30, r24
    86e0:	81 81       	ldd	r24, Z+1	; 0x01
    86e2:	80 7c       	andi	r24, 0xC0	; 192
    86e4:	69 81       	ldd	r22, Y+1	; 0x01
    86e6:	88 23       	and	r24, r24
    86e8:	09 f4       	brne	.+2      	; 0x86ec <udd_ep_run+0x3a>
    86ea:	58 c0       	rjmp	.+176    	; 0x879c <udd_ep_run+0xea>
    86ec:	81 81       	ldd	r24, Z+1	; 0x01
    86ee:	80 7c       	andi	r24, 0xC0	; 192
    86f0:	80 3c       	cpi	r24, 0xC0	; 192
    86f2:	19 f0       	breq	.+6      	; 0x86fa <udd_ep_run+0x48>
    86f4:	81 81       	ldd	r24, Z+1	; 0x01
    86f6:	82 fd       	sbrc	r24, 2
    86f8:	51 c0       	rjmp	.+162    	; 0x879c <udd_ep_run+0xea>
    86fa:	8f b7       	in	r24, 0x3f	; 63
    86fc:	f8 94       	cli
    86fe:	d4 01       	movw	r26, r8
    8700:	9c 91       	ld	r25, X
    8702:	90 ff       	sbrs	r25, 0
    8704:	02 c0       	rjmp	.+4      	; 0x870a <udd_ep_run+0x58>
    8706:	8f bf       	out	0x3f, r24	; 63
    8708:	49 c0       	rjmp	.+146    	; 0x879c <udd_ep_run+0xea>
    870a:	91 60       	ori	r25, 0x01	; 1
    870c:	d4 01       	movw	r26, r8
    870e:	9c 93       	st	X, r25
    8710:	8f bf       	out	0x3f, r24	; 63
    8712:	11 96       	adiw	r26, 0x01	; 1
    8714:	ad 92       	st	X+, r10
    8716:	bc 92       	st	X, r11
    8718:	12 97       	sbiw	r26, 0x02	; 2
    871a:	13 96       	adiw	r26, 0x03	; 3
    871c:	ed 92       	st	X+, r14
    871e:	fc 92       	st	X, r15
    8720:	14 97       	sbiw	r26, 0x04	; 4
    8722:	15 96       	adiw	r26, 0x05	; 5
    8724:	1d 92       	st	X+, r1
    8726:	1c 92       	st	X, r1
    8728:	16 97       	sbiw	r26, 0x06	; 6
    872a:	17 96       	adiw	r26, 0x07	; 7
    872c:	0d 93       	st	X+, r16
    872e:	1c 93       	st	X, r17
    8730:	18 97       	sbiw	r26, 0x08	; 8
    8732:	21 e0       	ldi	r18, 0x01	; 1
    8734:	30 e0       	ldi	r19, 0x00	; 0
    8736:	61 11       	cpse	r22, r1
    8738:	05 c0       	rjmp	.+10     	; 0x8744 <udd_ep_run+0x92>
    873a:	e1 14       	cp	r14, r1
    873c:	f1 04       	cpc	r15, r1
    873e:	11 f0       	breq	.+4      	; 0x8744 <udd_ep_run+0x92>
    8740:	20 e0       	ldi	r18, 0x00	; 0
    8742:	30 e0       	ldi	r19, 0x00	; 0
    8744:	d4 01       	movw	r26, r8
    8746:	8c 91       	ld	r24, X
    8748:	20 fb       	bst	r18, 0
    874a:	81 f9       	bld	r24, 1
    874c:	8b 7f       	andi	r24, 0xFB	; 251
    874e:	8c 93       	st	X, r24
    8750:	d7 fc       	sbrc	r13, 7
    8752:	1e c0       	rjmp	.+60     	; 0x8790 <udd_ep_run+0xde>
    8754:	81 81       	ldd	r24, Z+1	; 0x01
    8756:	80 7c       	andi	r24, 0xC0	; 192
    8758:	80 3c       	cpi	r24, 0xC0	; 192
    875a:	c1 f4       	brne	.+48     	; 0x878c <udd_ep_run+0xda>
    875c:	a1 81       	ldd	r26, Z+1	; 0x01
    875e:	a7 70       	andi	r26, 0x07	; 7
    8760:	a1 50       	subi	r26, 0x01	; 1
    8762:	a7 30       	cpi	r26, 0x07	; 7
    8764:	40 f4       	brcc	.+16     	; 0x8776 <udd_ep_run+0xc4>
    8766:	b0 e0       	ldi	r27, 0x00	; 0
    8768:	aa 0f       	add	r26, r26
    876a:	bb 1f       	adc	r27, r27
    876c:	a9 58       	subi	r26, 0x89	; 137
    876e:	be 4d       	sbci	r27, 0xDE	; 222
    8770:	6d 91       	ld	r22, X+
    8772:	7c 91       	ld	r23, X
    8774:	02 c0       	rjmp	.+4      	; 0x877a <udd_ep_run+0xc8>
    8776:	68 e0       	ldi	r22, 0x08	; 8
    8778:	70 e0       	ldi	r23, 0x00	; 0
    877a:	c7 01       	movw	r24, r14
    877c:	f2 d3       	rcall	.+2020   	; 0x8f62 <__udivmodhi4>
    877e:	89 2b       	or	r24, r25
    8780:	29 f0       	breq	.+10     	; 0x878c <udd_ep_run+0xda>
    8782:	f4 01       	movw	r30, r8
    8784:	80 81       	ld	r24, Z
    8786:	8e 7f       	andi	r24, 0xFE	; 254
    8788:	80 83       	st	Z, r24
    878a:	08 c0       	rjmp	.+16     	; 0x879c <udd_ep_run+0xea>
    878c:	12 82       	std	Z+2, r1	; 0x02
    878e:	13 82       	std	Z+3, r1	; 0x03
    8790:	16 82       	std	Z+6, r1	; 0x06
    8792:	17 82       	std	Z+7, r1	; 0x07
    8794:	8d 2d       	mov	r24, r13
    8796:	50 dc       	rcall	.-1888   	; 0x8038 <udd_ep_trans_complet>
    8798:	81 e0       	ldi	r24, 0x01	; 1
    879a:	01 c0       	rjmp	.+2      	; 0x879e <udd_ep_run+0xec>
    879c:	80 e0       	ldi	r24, 0x00	; 0
    879e:	0f 90       	pop	r0
    87a0:	df 91       	pop	r29
    87a2:	cf 91       	pop	r28
    87a4:	1f 91       	pop	r17
    87a6:	0f 91       	pop	r16
    87a8:	ff 90       	pop	r15
    87aa:	ef 90       	pop	r14
    87ac:	df 90       	pop	r13
    87ae:	bf 90       	pop	r11
    87b0:	af 90       	pop	r10
    87b2:	9f 90       	pop	r9
    87b4:	8f 90       	pop	r8
    87b6:	08 95       	ret

000087b8 <udd_ep_abort>:
    87b8:	0f 93       	push	r16
    87ba:	1f 93       	push	r17
    87bc:	cf 93       	push	r28
    87be:	df 93       	push	r29
    87c0:	18 2f       	mov	r17, r24
    87c2:	b2 db       	rcall	.-2204   	; 0x7f28 <udd_ep_get_ctrl>
    87c4:	ec 01       	movw	r28, r24
    87c6:	81 2f       	mov	r24, r17
    87c8:	1d dc       	rcall	.-1990   	; 0x8004 <udd_ep_get_job>
    87ca:	dc 01       	movw	r26, r24
    87cc:	fe 01       	movw	r30, r28
    87ce:	02 e0       	ldi	r16, 0x02	; 2
    87d0:	05 93       	las	Z, r16
    87d2:	8c 91       	ld	r24, X
    87d4:	80 ff       	sbrs	r24, 0
    87d6:	17 c0       	rjmp	.+46     	; 0x8806 <udd_ep_abort+0x4e>
    87d8:	8e 7f       	andi	r24, 0xFE	; 254
    87da:	8c 93       	st	X, r24
    87dc:	17 96       	adiw	r26, 0x07	; 7
    87de:	ed 91       	ld	r30, X+
    87e0:	fc 91       	ld	r31, X
    87e2:	18 97       	sbiw	r26, 0x08	; 8
    87e4:	30 97       	sbiw	r30, 0x00	; 0
    87e6:	79 f0       	breq	.+30     	; 0x8806 <udd_ep_abort+0x4e>
    87e8:	17 ff       	sbrs	r17, 7
    87ea:	03 c0       	rjmp	.+6      	; 0x87f2 <udd_ep_abort+0x3a>
    87ec:	6e 81       	ldd	r22, Y+6	; 0x06
    87ee:	7f 81       	ldd	r23, Y+7	; 0x07
    87f0:	02 c0       	rjmp	.+4      	; 0x87f6 <udd_ep_abort+0x3e>
    87f2:	6a 81       	ldd	r22, Y+2	; 0x02
    87f4:	7b 81       	ldd	r23, Y+3	; 0x03
    87f6:	41 2f       	mov	r20, r17
    87f8:	81 e0       	ldi	r24, 0x01	; 1
    87fa:	90 e0       	ldi	r25, 0x00	; 0
    87fc:	df 91       	pop	r29
    87fe:	cf 91       	pop	r28
    8800:	1f 91       	pop	r17
    8802:	0f 91       	pop	r16
    8804:	19 94       	eijmp
    8806:	df 91       	pop	r29
    8808:	cf 91       	pop	r28
    880a:	1f 91       	pop	r17
    880c:	0f 91       	pop	r16
    880e:	08 95       	ret

00008810 <udd_ep_set_halt>:
    8810:	0f 93       	push	r16
    8812:	cf 93       	push	r28
    8814:	c8 2f       	mov	r28, r24
    8816:	88 db       	rcall	.-2288   	; 0x7f28 <udd_ep_get_ctrl>
    8818:	fc 01       	movw	r30, r24
    881a:	91 81       	ldd	r25, Z+1	; 0x01
    881c:	94 60       	ori	r25, 0x04	; 4
    881e:	91 83       	std	Z+1, r25	; 0x01
    8820:	01 e0       	ldi	r16, 0x01	; 1
    8822:	06 93       	lac	Z, r16
    8824:	8c 2f       	mov	r24, r28
    8826:	c8 df       	rcall	.-112    	; 0x87b8 <udd_ep_abort>
    8828:	81 e0       	ldi	r24, 0x01	; 1
    882a:	cf 91       	pop	r28
    882c:	0f 91       	pop	r16
    882e:	08 95       	ret

00008830 <udd_ep_free>:
    8830:	cf 93       	push	r28
    8832:	c8 2f       	mov	r28, r24
    8834:	c1 df       	rcall	.-126    	; 0x87b8 <udd_ep_abort>
    8836:	8c 2f       	mov	r24, r28
    8838:	77 db       	rcall	.-2322   	; 0x7f28 <udd_ep_get_ctrl>
    883a:	fc 01       	movw	r30, r24
    883c:	11 82       	std	Z+1, r1	; 0x01
    883e:	cf 91       	pop	r28
    8840:	08 95       	ret

00008842 <__vector_125>:
    8842:	1f 92       	push	r1
    8844:	0f 92       	push	r0
    8846:	0f b6       	in	r0, 0x3f	; 63
    8848:	0f 92       	push	r0
    884a:	11 24       	eor	r1, r1
    884c:	0b b6       	in	r0, 0x3b	; 59
    884e:	0f 92       	push	r0
    8850:	0f 93       	push	r16
    8852:	2f 93       	push	r18
    8854:	3f 93       	push	r19
    8856:	4f 93       	push	r20
    8858:	5f 93       	push	r21
    885a:	6f 93       	push	r22
    885c:	7f 93       	push	r23
    885e:	8f 93       	push	r24
    8860:	9f 93       	push	r25
    8862:	af 93       	push	r26
    8864:	bf 93       	push	r27
    8866:	cf 93       	push	r28
    8868:	df 93       	push	r29
    886a:	ef 93       	push	r30
    886c:	ff 93       	push	r31
    886e:	80 91 cb 04 	lds	r24, 0x04CB
    8872:	87 ff       	sbrs	r24, 7
    8874:	06 c0       	rjmp	.+12     	; 0x8882 <__vector_125+0x40>
    8876:	80 e8       	ldi	r24, 0x80	; 128
    8878:	80 93 ca 04 	sts	0x04CA, r24
    887c:	0e 94 c1 31 	call	0x6382	; 0x6382 <udc_sof_notify>
    8880:	88 c0       	rjmp	.+272    	; 0x8992 <__vector_125+0x150>
    8882:	80 91 cb 04 	lds	r24, 0x04CB
    8886:	82 ff       	sbrs	r24, 2
    8888:	1b c0       	rjmp	.+54     	; 0x88c0 <__vector_125+0x7e>
    888a:	84 e0       	ldi	r24, 0x04	; 4
    888c:	80 93 ca 04 	sts	0x04CA, r24
    8890:	80 91 48 23 	lds	r24, 0x2348
    8894:	86 ff       	sbrs	r24, 6
    8896:	7d c0       	rjmp	.+250    	; 0x8992 <__vector_125+0x150>
    8898:	80 91 cc 04 	lds	r24, 0x04CC
    889c:	81 fd       	sbrc	r24, 1
    889e:	79 c0       	rjmp	.+242    	; 0x8992 <__vector_125+0x150>
    88a0:	3a dd       	rcall	.-1420   	; 0x8316 <udd_ctrl_interrupt_tc_setup>
    88a2:	81 11       	cpse	r24, r1
    88a4:	76 c0       	rjmp	.+236    	; 0x8992 <__vector_125+0x150>
    88a6:	80 91 59 24 	lds	r24, 0x2459
    88aa:	90 91 5a 24 	lds	r25, 0x245A
    88ae:	81 30       	cpi	r24, 0x01	; 1
    88b0:	91 05       	cpc	r25, r1
    88b2:	11 f4       	brne	.+4      	; 0x88b8 <__vector_125+0x76>
    88b4:	8e db       	rcall	.-2276   	; 0x7fd2 <udd_ctrl_send_zlp_in>
    88b6:	6d c0       	rjmp	.+218    	; 0x8992 <__vector_125+0x150>
    88b8:	04 97       	sbiw	r24, 0x04	; 4
    88ba:	09 f0       	breq	.+2      	; 0x88be <__vector_125+0x7c>
    88bc:	6a c0       	rjmp	.+212    	; 0x8992 <__vector_125+0x150>
    88be:	27 c0       	rjmp	.+78     	; 0x890e <__vector_125+0xcc>
    88c0:	80 91 cb 04 	lds	r24, 0x04CB
    88c4:	81 ff       	sbrs	r24, 1
    88c6:	60 c0       	rjmp	.+192    	; 0x8988 <__vector_125+0x146>
    88c8:	82 e0       	ldi	r24, 0x02	; 2
    88ca:	80 93 ca 04 	sts	0x04CA, r24
    88ce:	80 91 40 23 	lds	r24, 0x2340
    88d2:	86 ff       	sbrs	r24, 6
    88d4:	5e c0       	rjmp	.+188    	; 0x8992 <__vector_125+0x150>
    88d6:	80 91 cc 04 	lds	r24, 0x04CC
    88da:	81 fd       	sbrc	r24, 1
    88dc:	5a c0       	rjmp	.+180    	; 0x8992 <__vector_125+0x150>
    88de:	1b dd       	rcall	.-1482   	; 0x8316 <udd_ctrl_interrupt_tc_setup>
    88e0:	81 11       	cpse	r24, r1
    88e2:	57 c0       	rjmp	.+174    	; 0x8992 <__vector_125+0x150>
    88e4:	80 91 59 24 	lds	r24, 0x2459
    88e8:	90 91 5a 24 	lds	r25, 0x245A
    88ec:	82 30       	cpi	r24, 0x02	; 2
    88ee:	91 05       	cpc	r25, r1
    88f0:	59 f4       	brne	.+22     	; 0x8908 <__vector_125+0xc6>
    88f2:	84 e0       	ldi	r24, 0x04	; 4
    88f4:	90 e0       	ldi	r25, 0x00	; 0
    88f6:	80 93 59 24 	sts	0x2459, r24
    88fa:	90 93 5a 24 	sts	0x245A, r25
    88fe:	e0 e4       	ldi	r30, 0x40	; 64
    8900:	f3 e2       	ldi	r31, 0x23	; 35
    8902:	02 e0       	ldi	r16, 0x02	; 2
    8904:	06 93       	lac	Z, r16
    8906:	45 c0       	rjmp	.+138    	; 0x8992 <__vector_125+0x150>
    8908:	03 97       	sbiw	r24, 0x03	; 3
    890a:	09 f0       	breq	.+2      	; 0x890e <__vector_125+0xcc>
    890c:	42 c0       	rjmp	.+132    	; 0x8992 <__vector_125+0x150>
    890e:	e9 e4       	ldi	r30, 0x49	; 73
    8910:	f3 e2       	ldi	r31, 0x23	; 35
    8912:	04 e0       	ldi	r16, 0x04	; 4
    8914:	05 93       	las	Z, r16
    8916:	e1 e4       	ldi	r30, 0x41	; 65
    8918:	f3 e2       	ldi	r31, 0x23	; 35
    891a:	04 e0       	ldi	r16, 0x04	; 4
    891c:	05 93       	las	Z, r16
    891e:	39 c0       	rjmp	.+114    	; 0x8992 <__vector_125+0x150>
    8920:	80 e1       	ldi	r24, 0x10	; 16
    8922:	80 93 ca 04 	sts	0x04CA, r24
    8926:	81 e0       	ldi	r24, 0x01	; 1
    8928:	47 df       	rcall	.-370    	; 0x87b8 <udd_ep_abort>
    892a:	81 e8       	ldi	r24, 0x81	; 129
    892c:	45 df       	rcall	.-374    	; 0x87b8 <udd_ep_abort>
    892e:	0e 94 9e 31 	call	0x633c	; 0x633c <udc_reset>
    8932:	10 92 c3 04 	sts	0x04C3, r1
    8936:	80 e0       	ldi	r24, 0x00	; 0
    8938:	f7 da       	rcall	.-2578   	; 0x7f28 <udd_ep_get_ctrl>
    893a:	fc 01       	movw	r30, r24
    893c:	11 82       	std	Z+1, r1	; 0x01
    893e:	d6 e0       	ldi	r29, 0x06	; 6
    8940:	d0 83       	st	Z, r29
    8942:	c3 e4       	ldi	r28, 0x43	; 67
    8944:	c1 83       	std	Z+1, r28	; 0x01
    8946:	80 e8       	ldi	r24, 0x80	; 128
    8948:	ef da       	rcall	.-2594   	; 0x7f28 <udd_ep_get_ctrl>
    894a:	fc 01       	movw	r30, r24
    894c:	11 82       	std	Z+1, r1	; 0x01
    894e:	d0 83       	st	Z, r29
    8950:	c1 83       	std	Z+1, r28	; 0x01
    8952:	89 e1       	ldi	r24, 0x19	; 25
    8954:	94 e2       	ldi	r25, 0x24	; 36
    8956:	80 93 44 23 	sts	0x2344, r24
    895a:	90 93 45 23 	sts	0x2345, r25
    895e:	fb da       	rcall	.-2570   	; 0x7f56 <udd_ctrl_init>
    8960:	18 c0       	rjmp	.+48     	; 0x8992 <__vector_125+0x150>
    8962:	80 91 cb 04 	lds	r24, 0x04CB
    8966:	86 ff       	sbrs	r24, 6
    8968:	05 c0       	rjmp	.+10     	; 0x8974 <__vector_125+0x132>
    896a:	80 e4       	ldi	r24, 0x40	; 64
    896c:	80 93 ca 04 	sts	0x04CA, r24
    8970:	80 e0       	ldi	r24, 0x00	; 0
    8972:	08 c0       	rjmp	.+16     	; 0x8984 <__vector_125+0x142>
    8974:	80 91 cb 04 	lds	r24, 0x04CB
    8978:	85 ff       	sbrs	r24, 5
    897a:	0b c0       	rjmp	.+22     	; 0x8992 <__vector_125+0x150>
    897c:	80 e2       	ldi	r24, 0x20	; 32
    897e:	80 93 ca 04 	sts	0x04CA, r24
    8982:	81 e0       	ldi	r24, 0x01	; 1
    8984:	b7 da       	rcall	.-2706   	; 0x7ef4 <udd_sleep_mode>
    8986:	05 c0       	rjmp	.+10     	; 0x8992 <__vector_125+0x150>
    8988:	80 91 cb 04 	lds	r24, 0x04CB
    898c:	84 fd       	sbrc	r24, 4
    898e:	c8 cf       	rjmp	.-112    	; 0x8920 <__vector_125+0xde>
    8990:	e8 cf       	rjmp	.-48     	; 0x8962 <__vector_125+0x120>
    8992:	ff 91       	pop	r31
    8994:	ef 91       	pop	r30
    8996:	df 91       	pop	r29
    8998:	cf 91       	pop	r28
    899a:	bf 91       	pop	r27
    899c:	af 91       	pop	r26
    899e:	9f 91       	pop	r25
    89a0:	8f 91       	pop	r24
    89a2:	7f 91       	pop	r23
    89a4:	6f 91       	pop	r22
    89a6:	5f 91       	pop	r21
    89a8:	4f 91       	pop	r20
    89aa:	3f 91       	pop	r19
    89ac:	2f 91       	pop	r18
    89ae:	0f 91       	pop	r16
    89b0:	0f 90       	pop	r0
    89b2:	0b be       	out	0x3b, r0	; 59
    89b4:	0f 90       	pop	r0
    89b6:	0f be       	out	0x3f, r0	; 63
    89b8:	0f 90       	pop	r0
    89ba:	1f 90       	pop	r1
    89bc:	18 95       	reti

000089be <__vector_126>:
    89be:	1f 92       	push	r1
    89c0:	0f 92       	push	r0
    89c2:	0f b6       	in	r0, 0x3f	; 63
    89c4:	0f 92       	push	r0
    89c6:	11 24       	eor	r1, r1
    89c8:	0b b6       	in	r0, 0x3b	; 59
    89ca:	0f 92       	push	r0
    89cc:	0f 93       	push	r16
    89ce:	1f 93       	push	r17
    89d0:	2f 93       	push	r18
    89d2:	3f 93       	push	r19
    89d4:	4f 93       	push	r20
    89d6:	5f 93       	push	r21
    89d8:	6f 93       	push	r22
    89da:	7f 93       	push	r23
    89dc:	8f 93       	push	r24
    89de:	9f 93       	push	r25
    89e0:	af 93       	push	r26
    89e2:	bf 93       	push	r27
    89e4:	cf 93       	push	r28
    89e6:	df 93       	push	r29
    89e8:	ef 93       	push	r30
    89ea:	ff 93       	push	r31
    89ec:	80 91 cc 04 	lds	r24, 0x04CC
    89f0:	81 ff       	sbrs	r24, 1
    89f2:	1a c0       	rjmp	.+52     	; 0x8a28 <__vector_126+0x6a>
    89f4:	82 e0       	ldi	r24, 0x02	; 2
    89f6:	80 93 cc 04 	sts	0x04CC, r24
    89fa:	80 91 c5 04 	lds	r24, 0x04C5
    89fe:	81 95       	neg	r24
    8a00:	88 0f       	add	r24, r24
    8a02:	e0 e4       	ldi	r30, 0x40	; 64
    8a04:	f3 e2       	ldi	r31, 0x23	; 35
    8a06:	e8 1b       	sub	r30, r24
    8a08:	f1 09       	sbc	r31, r1
    8a0a:	20 81       	ld	r18, Z
    8a0c:	31 81       	ldd	r19, Z+1	; 0x01
    8a0e:	20 54       	subi	r18, 0x40	; 64
    8a10:	33 42       	sbci	r19, 0x23	; 35
    8a12:	73 e0       	ldi	r23, 0x03	; 3
    8a14:	36 95       	lsr	r19
    8a16:	27 95       	ror	r18
    8a18:	7a 95       	dec	r23
    8a1a:	e1 f7       	brne	.-8      	; 0x8a14 <__vector_126+0x56>
    8a1c:	c2 2f       	mov	r28, r18
    8a1e:	c6 95       	lsr	r28
    8a20:	20 ff       	sbrs	r18, 0
    8a22:	06 c0       	rjmp	.+12     	; 0x8a30 <__vector_126+0x72>
    8a24:	80 e8       	ldi	r24, 0x80	; 128
    8a26:	05 c0       	rjmp	.+10     	; 0x8a32 <__vector_126+0x74>
    8a28:	76 dc       	rcall	.-1812   	; 0x8316 <udd_ctrl_interrupt_tc_setup>
    8a2a:	88 23       	and	r24, r24
    8a2c:	19 f3       	breq	.-58     	; 0x89f4 <__vector_126+0x36>
    8a2e:	8a c0       	rjmp	.+276    	; 0x8b44 <__vector_126+0x186>
    8a30:	80 e0       	ldi	r24, 0x00	; 0
    8a32:	c8 0f       	add	r28, r24
    8a34:	8c 2f       	mov	r24, r28
    8a36:	78 da       	rcall	.-2832   	; 0x7f28 <udd_ep_get_ctrl>
    8a38:	fc 01       	movw	r30, r24
    8a3a:	80 81       	ld	r24, Z
    8a3c:	85 ff       	sbrs	r24, 5
    8a3e:	82 c0       	rjmp	.+260    	; 0x8b44 <__vector_126+0x186>
    8a40:	00 e2       	ldi	r16, 0x20	; 32
    8a42:	06 93       	lac	Z, r16
    8a44:	c1 11       	cpse	r28, r1
    8a46:	78 c0       	rjmp	.+240    	; 0x8b38 <__vector_126+0x17a>
    8a48:	80 91 59 24 	lds	r24, 0x2459
    8a4c:	90 91 5a 24 	lds	r25, 0x245A
    8a50:	04 97       	sbiw	r24, 0x04	; 4
    8a52:	19 f4       	brne	.+6      	; 0x8a5a <__vector_126+0x9c>
    8a54:	cf da       	rcall	.-2658   	; 0x7ff4 <udd_ctrl_endofrequest>
    8a56:	7f da       	rcall	.-2818   	; 0x7f56 <udd_ctrl_init>
    8a58:	75 c0       	rjmp	.+234    	; 0x8b44 <__vector_126+0x186>
    8a5a:	c0 91 42 23 	lds	r28, 0x2342
    8a5e:	d0 91 43 23 	lds	r29, 0x2343
    8a62:	80 91 da 25 	lds	r24, 0x25DA
    8a66:	90 91 db 25 	lds	r25, 0x25DB
    8a6a:	00 91 5d 24 	lds	r16, 0x245D
    8a6e:	10 91 5e 24 	lds	r17, 0x245E
    8a72:	98 01       	movw	r18, r16
    8a74:	2c 0f       	add	r18, r28
    8a76:	3d 1f       	adc	r19, r29
    8a78:	82 17       	cp	r24, r18
    8a7a:	93 07       	cpc	r25, r19
    8a7c:	18 f4       	brcc	.+6      	; 0x8a84 <__vector_126+0xc6>
    8a7e:	ec 01       	movw	r28, r24
    8a80:	c0 1b       	sub	r28, r16
    8a82:	d1 0b       	sbc	r29, r17
    8a84:	20 91 d8 25 	lds	r18, 0x25D8
    8a88:	30 91 d9 25 	lds	r19, 0x25D9
    8a8c:	20 0f       	add	r18, r16
    8a8e:	31 1f       	adc	r19, r17
    8a90:	89 e1       	ldi	r24, 0x19	; 25
    8a92:	94 e2       	ldi	r25, 0x24	; 36
    8a94:	ae 01       	movw	r20, r28
    8a96:	bc 01       	movw	r22, r24
    8a98:	c9 01       	movw	r24, r18
    8a9a:	dc d3       	rcall	.+1976   	; 0x9254 <memcpy>
    8a9c:	0c 0f       	add	r16, r28
    8a9e:	1d 1f       	adc	r17, r29
    8aa0:	00 93 5d 24 	sts	0x245D, r16
    8aa4:	10 93 5e 24 	sts	0x245E, r17
    8aa8:	c0 34       	cpi	r28, 0x40	; 64
    8aaa:	d1 05       	cpc	r29, r1
    8aac:	69 f4       	brne	.+26     	; 0x8ac8 <__vector_126+0x10a>
    8aae:	80 91 5b 24 	lds	r24, 0x245B
    8ab2:	90 91 5c 24 	lds	r25, 0x245C
    8ab6:	80 0f       	add	r24, r16
    8ab8:	91 1f       	adc	r25, r17
    8aba:	20 91 d6 25 	lds	r18, 0x25D6
    8abe:	30 91 d7 25 	lds	r19, 0x25D7
    8ac2:	82 17       	cp	r24, r18
    8ac4:	93 07       	cpc	r25, r19
    8ac6:	88 f0       	brcs	.+34     	; 0x8aea <__vector_126+0x12c>
    8ac8:	00 93 da 25 	sts	0x25DA, r16
    8acc:	10 93 db 25 	sts	0x25DB, r17
    8ad0:	e0 91 de 25 	lds	r30, 0x25DE
    8ad4:	f0 91 df 25 	lds	r31, 0x25DF
    8ad8:	30 97       	sbiw	r30, 0x00	; 0
    8ada:	29 f0       	breq	.+10     	; 0x8ae6 <__vector_126+0x128>
    8adc:	19 95       	eicall
    8ade:	81 11       	cpse	r24, r1
    8ae0:	02 c0       	rjmp	.+4      	; 0x8ae6 <__vector_126+0x128>
    8ae2:	66 da       	rcall	.-2868   	; 0x7fb0 <udd_ctrl_stall_data>
    8ae4:	2f c0       	rjmp	.+94     	; 0x8b44 <__vector_126+0x186>
    8ae6:	75 da       	rcall	.-2838   	; 0x7fd2 <udd_ctrl_send_zlp_in>
    8ae8:	2d c0       	rjmp	.+90     	; 0x8b44 <__vector_126+0x186>
    8aea:	80 91 da 25 	lds	r24, 0x25DA
    8aee:	90 91 db 25 	lds	r25, 0x25DB
    8af2:	80 17       	cp	r24, r16
    8af4:	91 07       	cpc	r25, r17
    8af6:	d9 f4       	brne	.+54     	; 0x8b2e <__vector_126+0x170>
    8af8:	e0 91 de 25 	lds	r30, 0x25DE
    8afc:	f0 91 df 25 	lds	r31, 0x25DF
    8b00:	30 97       	sbiw	r30, 0x00	; 0
    8b02:	79 f3       	breq	.-34     	; 0x8ae2 <__vector_126+0x124>
    8b04:	19 95       	eicall
    8b06:	88 23       	and	r24, r24
    8b08:	61 f3       	breq	.-40     	; 0x8ae2 <__vector_126+0x124>
    8b0a:	80 91 5b 24 	lds	r24, 0x245B
    8b0e:	90 91 5c 24 	lds	r25, 0x245C
    8b12:	20 91 5d 24 	lds	r18, 0x245D
    8b16:	30 91 5e 24 	lds	r19, 0x245E
    8b1a:	82 0f       	add	r24, r18
    8b1c:	93 1f       	adc	r25, r19
    8b1e:	80 93 5b 24 	sts	0x245B, r24
    8b22:	90 93 5c 24 	sts	0x245C, r25
    8b26:	10 92 5d 24 	sts	0x245D, r1
    8b2a:	10 92 5e 24 	sts	0x245E, r1
    8b2e:	e0 e4       	ldi	r30, 0x40	; 64
    8b30:	f3 e2       	ldi	r31, 0x23	; 35
    8b32:	02 e0       	ldi	r16, 0x02	; 2
    8b34:	06 93       	lac	Z, r16
    8b36:	06 c0       	rjmp	.+12     	; 0x8b44 <__vector_126+0x186>
    8b38:	c0 38       	cpi	r28, 0x80	; 128
    8b3a:	11 f4       	brne	.+4      	; 0x8b40 <__vector_126+0x182>
    8b3c:	79 db       	rcall	.-2318   	; 0x8230 <udd_ctrl_in_sent>
    8b3e:	02 c0       	rjmp	.+4      	; 0x8b44 <__vector_126+0x186>
    8b40:	8c 2f       	mov	r24, r28
    8b42:	7a da       	rcall	.-2828   	; 0x8038 <udd_ep_trans_complet>
    8b44:	ff 91       	pop	r31
    8b46:	ef 91       	pop	r30
    8b48:	df 91       	pop	r29
    8b4a:	cf 91       	pop	r28
    8b4c:	bf 91       	pop	r27
    8b4e:	af 91       	pop	r26
    8b50:	9f 91       	pop	r25
    8b52:	8f 91       	pop	r24
    8b54:	7f 91       	pop	r23
    8b56:	6f 91       	pop	r22
    8b58:	5f 91       	pop	r21
    8b5a:	4f 91       	pop	r20
    8b5c:	3f 91       	pop	r19
    8b5e:	2f 91       	pop	r18
    8b60:	1f 91       	pop	r17
    8b62:	0f 91       	pop	r16
    8b64:	0f 90       	pop	r0
    8b66:	0b be       	out	0x3b, r0	; 59
    8b68:	0f 90       	pop	r0
    8b6a:	0f be       	out	0x3f, r0	; 63
    8b6c:	0f 90       	pop	r0
    8b6e:	1f 90       	pop	r1
    8b70:	18 95       	reti

00008b72 <udi_cdc_comm_disable>:
    8b72:	80 91 69 24 	lds	r24, 0x2469
    8b76:	81 50       	subi	r24, 0x01	; 1
    8b78:	80 93 69 24 	sts	0x2469, r24
    8b7c:	08 95       	ret

00008b7e <udi_cdc_data_setup>:
    8b7e:	80 e0       	ldi	r24, 0x00	; 0
    8b80:	08 95       	ret

00008b82 <udi_cdc_getsetting>:
    8b82:	80 e0       	ldi	r24, 0x00	; 0
    8b84:	08 95       	ret

00008b86 <udi_cdc_line_coding_received>:
    8b86:	08 95       	ret

00008b88 <udi_cdc_data_disable>:
    8b88:	80 91 68 24 	lds	r24, 0x2468
    8b8c:	81 50       	subi	r24, 0x01	; 1
    8b8e:	80 93 68 24 	sts	0x2468, r24
    8b92:	80 91 68 24 	lds	r24, 0x2468
    8b96:	0e 94 fc 2f 	call	0x5ff8	; 0x5ff8 <cdc_disable>
    8b9a:	10 92 67 24 	sts	0x2467, r1
    8b9e:	08 95       	ret

00008ba0 <udi_cdc_tx_send.isra.3>:
    8ba0:	ff 92       	push	r15
    8ba2:	0f 93       	push	r16
    8ba4:	1f 93       	push	r17
    8ba6:	cf 93       	push	r28
    8ba8:	df 93       	push	r29
    8baa:	80 91 61 24 	lds	r24, 0x2461
    8bae:	81 11       	cpse	r24, r1
    8bb0:	82 c0       	rjmp	.+260    	; 0x8cb6 <udi_cdc_tx_send.isra.3+0x116>
    8bb2:	df dc       	rcall	.-1602   	; 0x8572 <udd_is_high_speed>
    8bb4:	c0 91 81 24 	lds	r28, 0x2481
    8bb8:	d0 91 82 24 	lds	r29, 0x2482
    8bbc:	88 23       	and	r24, r24
    8bbe:	a1 f0       	breq	.+40     	; 0x8be8 <udi_cdc_tx_send.isra.3+0x48>
    8bc0:	e6 dc       	rcall	.-1588   	; 0x858e <udd_get_micro_frame_number>
    8bc2:	c8 17       	cp	r28, r24
    8bc4:	d9 07       	cpc	r29, r25
    8bc6:	09 f4       	brne	.+2      	; 0x8bca <udi_cdc_tx_send.isra.3+0x2a>
    8bc8:	76 c0       	rjmp	.+236    	; 0x8cb6 <udi_cdc_tx_send.isra.3+0x116>
    8bca:	df b7       	in	r29, 0x3f	; 63
    8bcc:	f8 94       	cli
    8bce:	c0 91 62 24 	lds	r28, 0x2462
    8bd2:	ec 2f       	mov	r30, r28
    8bd4:	f0 e0       	ldi	r31, 0x00	; 0
    8bd6:	ee 0f       	add	r30, r30
    8bd8:	ff 1f       	adc	r31, r31
    8bda:	e3 58       	subi	r30, 0x83	; 131
    8bdc:	fb 4d       	sbci	r31, 0xDB	; 219
    8bde:	80 81       	ld	r24, Z
    8be0:	91 81       	ldd	r25, Z+1	; 0x01
    8be2:	89 2b       	or	r24, r25
    8be4:	11 f5       	brne	.+68     	; 0x8c2a <udi_cdc_tx_send.isra.3+0x8a>
    8be6:	02 c0       	rjmp	.+4      	; 0x8bec <udi_cdc_tx_send.isra.3+0x4c>
    8be8:	cc dc       	rcall	.-1640   	; 0x8582 <udd_get_frame_number>
    8bea:	eb cf       	rjmp	.-42     	; 0x8bc2 <udi_cdc_tx_send.isra.3+0x22>
    8bec:	80 91 87 24 	lds	r24, 0x2487
    8bf0:	90 91 88 24 	lds	r25, 0x2488
    8bf4:	01 96       	adiw	r24, 0x01	; 1
    8bf6:	80 93 87 24 	sts	0x2487, r24
    8bfa:	90 93 88 24 	sts	0x2488, r25
    8bfe:	b9 dc       	rcall	.-1678   	; 0x8572 <udd_is_high_speed>
    8c00:	81 11       	cpse	r24, r1
    8c02:	09 c0       	rjmp	.+18     	; 0x8c16 <udi_cdc_tx_send.isra.3+0x76>
    8c04:	80 91 87 24 	lds	r24, 0x2487
    8c08:	90 91 88 24 	lds	r25, 0x2488
    8c0c:	84 36       	cpi	r24, 0x64	; 100
    8c0e:	91 05       	cpc	r25, r1
    8c10:	10 f4       	brcc	.+4      	; 0x8c16 <udi_cdc_tx_send.isra.3+0x76>
    8c12:	df bf       	out	0x3f, r29	; 63
    8c14:	50 c0       	rjmp	.+160    	; 0x8cb6 <udi_cdc_tx_send.isra.3+0x116>
    8c16:	ad dc       	rcall	.-1702   	; 0x8572 <udd_is_high_speed>
    8c18:	88 23       	and	r24, r24
    8c1a:	39 f0       	breq	.+14     	; 0x8c2a <udi_cdc_tx_send.isra.3+0x8a>
    8c1c:	80 91 87 24 	lds	r24, 0x2487
    8c20:	90 91 88 24 	lds	r25, 0x2488
    8c24:	80 32       	cpi	r24, 0x20	; 32
    8c26:	93 40       	sbci	r25, 0x03	; 3
    8c28:	a0 f3       	brcs	.-24     	; 0x8c12 <udi_cdc_tx_send.isra.3+0x72>
    8c2a:	10 92 87 24 	sts	0x2487, r1
    8c2e:	10 92 88 24 	sts	0x2488, r1
    8c32:	80 91 60 24 	lds	r24, 0x2460
    8c36:	81 11       	cpse	r24, r1
    8c38:	06 c0       	rjmp	.+12     	; 0x8c46 <udi_cdc_tx_send.isra.3+0xa6>
    8c3a:	81 e0       	ldi	r24, 0x01	; 1
    8c3c:	c1 11       	cpse	r28, r1
    8c3e:	80 e0       	ldi	r24, 0x00	; 0
    8c40:	80 93 62 24 	sts	0x2462, r24
    8c44:	04 c0       	rjmp	.+8      	; 0x8c4e <udi_cdc_tx_send.isra.3+0xae>
    8c46:	81 e0       	ldi	r24, 0x01	; 1
    8c48:	c1 11       	cpse	r28, r1
    8c4a:	80 e0       	ldi	r24, 0x00	; 0
    8c4c:	c8 2f       	mov	r28, r24
    8c4e:	81 e0       	ldi	r24, 0x01	; 1
    8c50:	80 93 61 24 	sts	0x2461, r24
    8c54:	df bf       	out	0x3f, r29	; 63
    8c56:	d0 e0       	ldi	r29, 0x00	; 0
    8c58:	8e 01       	movw	r16, r28
    8c5a:	00 0f       	add	r16, r16
    8c5c:	11 1f       	adc	r17, r17
    8c5e:	f8 01       	movw	r30, r16
    8c60:	e3 58       	subi	r30, 0x83	; 131
    8c62:	fb 4d       	sbci	r31, 0xDB	; 219
    8c64:	ff 24       	eor	r15, r15
    8c66:	f3 94       	inc	r15
    8c68:	80 81       	ld	r24, Z
    8c6a:	91 81       	ldd	r25, Z+1	; 0x01
    8c6c:	80 34       	cpi	r24, 0x40	; 64
    8c6e:	91 05       	cpc	r25, r1
    8c70:	31 f4       	brne	.+12     	; 0x8c7e <udi_cdc_tx_send.isra.3+0xde>
    8c72:	f1 2c       	mov	r15, r1
    8c74:	10 92 81 24 	sts	0x2481, r1
    8c78:	10 92 82 24 	sts	0x2482, r1
    8c7c:	0a c0       	rjmp	.+20     	; 0x8c92 <udi_cdc_tx_send.isra.3+0xf2>
    8c7e:	79 dc       	rcall	.-1806   	; 0x8572 <udd_is_high_speed>
    8c80:	88 23       	and	r24, r24
    8c82:	11 f0       	breq	.+4      	; 0x8c88 <udi_cdc_tx_send.isra.3+0xe8>
    8c84:	84 dc       	rcall	.-1784   	; 0x858e <udd_get_micro_frame_number>
    8c86:	01 c0       	rjmp	.+2      	; 0x8c8a <udi_cdc_tx_send.isra.3+0xea>
    8c88:	7c dc       	rcall	.-1800   	; 0x8582 <udd_get_frame_number>
    8c8a:	80 93 81 24 	sts	0x2481, r24
    8c8e:	90 93 82 24 	sts	0x2482, r25
    8c92:	f8 01       	movw	r30, r16
    8c94:	e3 58       	subi	r30, 0x83	; 131
    8c96:	fb 4d       	sbci	r31, 0xDB	; 219
    8c98:	20 81       	ld	r18, Z
    8c9a:	31 81       	ldd	r19, Z+1	; 0x01
    8c9c:	ae 01       	movw	r20, r28
    8c9e:	86 e0       	ldi	r24, 0x06	; 6
    8ca0:	44 0f       	add	r20, r20
    8ca2:	55 1f       	adc	r21, r21
    8ca4:	8a 95       	dec	r24
    8ca6:	e1 f7       	brne	.-8      	; 0x8ca0 <udi_cdc_tx_send.isra.3+0x100>
    8ca8:	46 57       	subi	r20, 0x76	; 118
    8caa:	5b 4d       	sbci	r21, 0xDB	; 219
    8cac:	02 e6       	ldi	r16, 0x62	; 98
    8cae:	16 e4       	ldi	r17, 0x46	; 70
    8cb0:	6f 2d       	mov	r22, r15
    8cb2:	81 e8       	ldi	r24, 0x81	; 129
    8cb4:	fe dc       	rcall	.-1540   	; 0x86b2 <udd_ep_run>
    8cb6:	df 91       	pop	r29
    8cb8:	cf 91       	pop	r28
    8cba:	1f 91       	pop	r17
    8cbc:	0f 91       	pop	r16
    8cbe:	ff 90       	pop	r15
    8cc0:	08 95       	ret

00008cc2 <udi_cdc_data_sof_notify>:
    8cc2:	6e cf       	rjmp	.-292    	; 0x8ba0 <udi_cdc_tx_send.isra.3>

00008cc4 <udi_cdc_data_sent>:
    8cc4:	89 2b       	or	r24, r25
    8cc6:	99 f4       	brne	.+38     	; 0x8cee <udi_cdc_data_sent+0x2a>
    8cc8:	80 91 62 24 	lds	r24, 0x2462
    8ccc:	e1 e0       	ldi	r30, 0x01	; 1
    8cce:	f0 e0       	ldi	r31, 0x00	; 0
    8cd0:	88 23       	and	r24, r24
    8cd2:	11 f0       	breq	.+4      	; 0x8cd8 <udi_cdc_data_sent+0x14>
    8cd4:	e0 e0       	ldi	r30, 0x00	; 0
    8cd6:	f0 e0       	ldi	r31, 0x00	; 0
    8cd8:	ee 0f       	add	r30, r30
    8cda:	ff 1f       	adc	r31, r31
    8cdc:	e3 58       	subi	r30, 0x83	; 131
    8cde:	fb 4d       	sbci	r31, 0xDB	; 219
    8ce0:	10 82       	st	Z, r1
    8ce2:	11 82       	std	Z+1, r1	; 0x01
    8ce4:	10 92 60 24 	sts	0x2460, r1
    8ce8:	10 92 61 24 	sts	0x2461, r1
    8cec:	59 cf       	rjmp	.-334    	; 0x8ba0 <udi_cdc_tx_send.isra.3>
    8cee:	08 95       	ret

00008cf0 <udi_cdc_comm_setup>:
    8cf0:	90 91 d0 25 	lds	r25, 0x25D0
    8cf4:	89 2f       	mov	r24, r25
    8cf6:	80 76       	andi	r24, 0x60	; 96
    8cf8:	97 ff       	sbrs	r25, 7
    8cfa:	0e c0       	rjmp	.+28     	; 0x8d18 <udi_cdc_comm_setup+0x28>
    8cfc:	80 32       	cpi	r24, 0x20	; 32
    8cfe:	a1 f5       	brne	.+104    	; 0x8d68 <udi_cdc_comm_setup+0x78>
    8d00:	80 91 d1 25 	lds	r24, 0x25D1
    8d04:	81 32       	cpi	r24, 0x21	; 33
    8d06:	81 f5       	brne	.+96     	; 0x8d68 <udi_cdc_comm_setup+0x78>
    8d08:	80 91 d6 25 	lds	r24, 0x25D6
    8d0c:	90 91 d7 25 	lds	r25, 0x25D7
    8d10:	87 30       	cpi	r24, 0x07	; 7
    8d12:	91 05       	cpc	r25, r1
    8d14:	49 f5       	brne	.+82     	; 0x8d68 <udi_cdc_comm_setup+0x78>
    8d16:	16 c0       	rjmp	.+44     	; 0x8d44 <udi_cdc_comm_setup+0x54>
    8d18:	80 32       	cpi	r24, 0x20	; 32
    8d1a:	31 f5       	brne	.+76     	; 0x8d68 <udi_cdc_comm_setup+0x78>
    8d1c:	80 91 d1 25 	lds	r24, 0x25D1
    8d20:	80 32       	cpi	r24, 0x20	; 32
    8d22:	19 f0       	breq	.+6      	; 0x8d2a <udi_cdc_comm_setup+0x3a>
    8d24:	82 32       	cpi	r24, 0x22	; 34
    8d26:	01 f5       	brne	.+64     	; 0x8d68 <udi_cdc_comm_setup+0x78>
    8d28:	18 c0       	rjmp	.+48     	; 0x8d5a <udi_cdc_comm_setup+0x6a>
    8d2a:	80 91 d6 25 	lds	r24, 0x25D6
    8d2e:	90 91 d7 25 	lds	r25, 0x25D7
    8d32:	87 30       	cpi	r24, 0x07	; 7
    8d34:	91 05       	cpc	r25, r1
    8d36:	c1 f4       	brne	.+48     	; 0x8d68 <udi_cdc_comm_setup+0x78>
    8d38:	23 ec       	ldi	r18, 0xC3	; 195
    8d3a:	35 e4       	ldi	r19, 0x45	; 69
    8d3c:	20 93 dc 25 	sts	0x25DC, r18
    8d40:	30 93 dd 25 	sts	0x25DD, r19
    8d44:	26 e7       	ldi	r18, 0x76	; 118
    8d46:	34 e2       	ldi	r19, 0x24	; 36
    8d48:	20 93 d8 25 	sts	0x25D8, r18
    8d4c:	30 93 d9 25 	sts	0x25D9, r19
    8d50:	80 93 da 25 	sts	0x25DA, r24
    8d54:	90 93 db 25 	sts	0x25DB, r25
    8d58:	05 c0       	rjmp	.+10     	; 0x8d64 <udi_cdc_comm_setup+0x74>
    8d5a:	80 91 d2 25 	lds	r24, 0x25D2
    8d5e:	81 70       	andi	r24, 0x01	; 1
    8d60:	0e 94 ff 2f 	call	0x5ffe	; 0x5ffe <cdc_set_dtr>
    8d64:	81 e0       	ldi	r24, 0x01	; 1
    8d66:	08 95       	ret
    8d68:	80 e0       	ldi	r24, 0x00	; 0
    8d6a:	08 95       	ret

00008d6c <udi_cdc_comm_enable>:
    8d6c:	10 92 69 24 	sts	0x2469, r1
    8d70:	10 92 6a 24 	sts	0x246A, r1
    8d74:	10 92 6b 24 	sts	0x246B, r1
    8d78:	81 ea       	ldi	r24, 0xA1	; 161
    8d7a:	80 93 6c 24 	sts	0x246C, r24
    8d7e:	80 e2       	ldi	r24, 0x20	; 32
    8d80:	80 93 6d 24 	sts	0x246D, r24
    8d84:	10 92 6e 24 	sts	0x246E, r1
    8d88:	10 92 6f 24 	sts	0x246F, r1
    8d8c:	10 92 70 24 	sts	0x2470, r1
    8d90:	10 92 71 24 	sts	0x2471, r1
    8d94:	82 e0       	ldi	r24, 0x02	; 2
    8d96:	90 e0       	ldi	r25, 0x00	; 0
    8d98:	80 93 72 24 	sts	0x2472, r24
    8d9c:	90 93 73 24 	sts	0x2473, r25
    8da0:	10 92 74 24 	sts	0x2474, r1
    8da4:	10 92 75 24 	sts	0x2475, r1
    8da8:	80 e0       	ldi	r24, 0x00	; 0
    8daa:	92 ec       	ldi	r25, 0xC2	; 194
    8dac:	a1 e0       	ldi	r26, 0x01	; 1
    8dae:	b0 e0       	ldi	r27, 0x00	; 0
    8db0:	80 93 76 24 	sts	0x2476, r24
    8db4:	90 93 77 24 	sts	0x2477, r25
    8db8:	a0 93 78 24 	sts	0x2478, r26
    8dbc:	b0 93 79 24 	sts	0x2479, r27
    8dc0:	10 92 7a 24 	sts	0x247A, r1
    8dc4:	10 92 7b 24 	sts	0x247B, r1
    8dc8:	88 e0       	ldi	r24, 0x08	; 8
    8dca:	80 93 7c 24 	sts	0x247C, r24
    8dce:	0e 94 f8 2f 	call	0x5ff0	; 0x5ff0 <cdc_enable>
    8dd2:	88 23       	and	r24, r24
    8dd4:	39 f0       	breq	.+14     	; 0x8de4 <udi_cdc_comm_enable+0x78>
    8dd6:	80 91 69 24 	lds	r24, 0x2469
    8dda:	8f 5f       	subi	r24, 0xFF	; 255
    8ddc:	80 93 69 24 	sts	0x2469, r24
    8de0:	81 e0       	ldi	r24, 0x01	; 1
    8de2:	08 95       	ret
    8de4:	80 e0       	ldi	r24, 0x00	; 0
    8de6:	08 95       	ret

00008de8 <udi_cdc_multi_get_nb_received_data>:
    8de8:	4f b7       	in	r20, 0x3f	; 63
    8dea:	f8 94       	cli
    8dec:	80 91 64 24 	lds	r24, 0x2464
    8df0:	90 91 65 24 	lds	r25, 0x2465
    8df4:	e0 91 66 24 	lds	r30, 0x2466
    8df8:	f0 e0       	ldi	r31, 0x00	; 0
    8dfa:	ee 0f       	add	r30, r30
    8dfc:	ff 1f       	adc	r31, r31
    8dfe:	ed 57       	subi	r30, 0x7D	; 125
    8e00:	fb 4d       	sbci	r31, 0xDB	; 219
    8e02:	20 81       	ld	r18, Z
    8e04:	31 81       	ldd	r19, Z+1	; 0x01
    8e06:	28 1b       	sub	r18, r24
    8e08:	39 0b       	sbc	r19, r25
    8e0a:	4f bf       	out	0x3f, r20	; 63
    8e0c:	c9 01       	movw	r24, r18
    8e0e:	08 95       	ret

00008e10 <udi_cdc_multi_is_rx_ready>:
    8e10:	eb df       	rcall	.-42     	; 0x8de8 <udi_cdc_multi_get_nb_received_data>
    8e12:	21 e0       	ldi	r18, 0x01	; 1
    8e14:	89 2b       	or	r24, r25
    8e16:	09 f4       	brne	.+2      	; 0x8e1a <udi_cdc_multi_is_rx_ready+0xa>
    8e18:	20 e0       	ldi	r18, 0x00	; 0
    8e1a:	82 2f       	mov	r24, r18
    8e1c:	08 95       	ret

00008e1e <udi_cdc_rx_start.isra.8>:
    8e1e:	0f 93       	push	r16
    8e20:	1f 93       	push	r17
    8e22:	cf 93       	push	r28
    8e24:	df 93       	push	r29
    8e26:	4f b7       	in	r20, 0x3f	; 63
    8e28:	f8 94       	cli
    8e2a:	50 91 66 24 	lds	r21, 0x2466
    8e2e:	80 91 63 24 	lds	r24, 0x2463
    8e32:	81 11       	cpse	r24, r1
    8e34:	10 c0       	rjmp	.+32     	; 0x8e56 <udi_cdc_rx_start.isra.8+0x38>
    8e36:	20 91 64 24 	lds	r18, 0x2464
    8e3a:	30 91 65 24 	lds	r19, 0x2465
    8e3e:	c5 2f       	mov	r28, r21
    8e40:	d0 e0       	ldi	r29, 0x00	; 0
    8e42:	fe 01       	movw	r30, r28
    8e44:	ee 0f       	add	r30, r30
    8e46:	ff 1f       	adc	r31, r31
    8e48:	ed 57       	subi	r30, 0x7D	; 125
    8e4a:	fb 4d       	sbci	r31, 0xDB	; 219
    8e4c:	80 81       	ld	r24, Z
    8e4e:	91 81       	ldd	r25, Z+1	; 0x01
    8e50:	28 17       	cp	r18, r24
    8e52:	39 07       	cpc	r19, r25
    8e54:	18 f4       	brcc	.+6      	; 0x8e5c <udi_cdc_rx_start.isra.8+0x3e>
    8e56:	4f bf       	out	0x3f, r20	; 63
    8e58:	80 e0       	ldi	r24, 0x00	; 0
    8e5a:	1e c0       	rjmp	.+60     	; 0x8e98 <udi_cdc_rx_start.isra.8+0x7a>
    8e5c:	10 92 64 24 	sts	0x2464, r1
    8e60:	10 92 65 24 	sts	0x2465, r1
    8e64:	81 e0       	ldi	r24, 0x01	; 1
    8e66:	51 11       	cpse	r21, r1
    8e68:	80 e0       	ldi	r24, 0x00	; 0
    8e6a:	80 93 66 24 	sts	0x2466, r24
    8e6e:	81 e0       	ldi	r24, 0x01	; 1
    8e70:	80 93 63 24 	sts	0x2463, r24
    8e74:	4f bf       	out	0x3f, r20	; 63
    8e76:	80 e0       	ldi	r24, 0x00	; 0
    8e78:	cb df       	rcall	.-106    	; 0x8e10 <udi_cdc_multi_is_rx_ready>
    8e7a:	ae 01       	movw	r20, r28
    8e7c:	66 e0       	ldi	r22, 0x06	; 6
    8e7e:	44 0f       	add	r20, r20
    8e80:	55 1f       	adc	r21, r21
    8e82:	6a 95       	dec	r22
    8e84:	e1 f7       	brne	.-8      	; 0x8e7e <udi_cdc_rx_start.isra.8+0x60>
    8e86:	46 5f       	subi	r20, 0xF6	; 246
    8e88:	5a 4d       	sbci	r21, 0xDA	; 218
    8e8a:	01 e5       	ldi	r16, 0x51	; 81
    8e8c:	17 e4       	ldi	r17, 0x47	; 71
    8e8e:	20 e4       	ldi	r18, 0x40	; 64
    8e90:	30 e0       	ldi	r19, 0x00	; 0
    8e92:	61 e0       	ldi	r22, 0x01	; 1
    8e94:	82 e0       	ldi	r24, 0x02	; 2
    8e96:	0d dc       	rcall	.-2022   	; 0x86b2 <udd_ep_run>
    8e98:	df 91       	pop	r29
    8e9a:	cf 91       	pop	r28
    8e9c:	1f 91       	pop	r17
    8e9e:	0f 91       	pop	r16
    8ea0:	08 95       	ret

00008ea2 <udi_cdc_data_received>:
    8ea2:	0f 93       	push	r16
    8ea4:	1f 93       	push	r17
    8ea6:	a4 2f       	mov	r26, r20
    8ea8:	89 2b       	or	r24, r25
    8eaa:	21 f5       	brne	.+72     	; 0x8ef4 <udi_cdc_data_received+0x52>
    8eac:	80 91 66 24 	lds	r24, 0x2466
    8eb0:	e1 e0       	ldi	r30, 0x01	; 1
    8eb2:	81 11       	cpse	r24, r1
    8eb4:	e0 e0       	ldi	r30, 0x00	; 0
    8eb6:	f0 e0       	ldi	r31, 0x00	; 0
    8eb8:	61 15       	cp	r22, r1
    8eba:	71 05       	cpc	r23, r1
    8ebc:	81 f4       	brne	.+32     	; 0x8ede <udi_cdc_data_received+0x3c>
    8ebe:	af 01       	movw	r20, r30
    8ec0:	b6 e0       	ldi	r27, 0x06	; 6
    8ec2:	44 0f       	add	r20, r20
    8ec4:	55 1f       	adc	r21, r21
    8ec6:	ba 95       	dec	r27
    8ec8:	e1 f7       	brne	.-8      	; 0x8ec2 <udi_cdc_data_received+0x20>
    8eca:	46 5f       	subi	r20, 0xF6	; 246
    8ecc:	5a 4d       	sbci	r21, 0xDA	; 218
    8ece:	01 e5       	ldi	r16, 0x51	; 81
    8ed0:	17 e4       	ldi	r17, 0x47	; 71
    8ed2:	20 e4       	ldi	r18, 0x40	; 64
    8ed4:	30 e0       	ldi	r19, 0x00	; 0
    8ed6:	61 e0       	ldi	r22, 0x01	; 1
    8ed8:	8a 2f       	mov	r24, r26
    8eda:	eb db       	rcall	.-2090   	; 0x86b2 <udd_ep_run>
    8edc:	0b c0       	rjmp	.+22     	; 0x8ef4 <udi_cdc_data_received+0x52>
    8ede:	ee 0f       	add	r30, r30
    8ee0:	ff 1f       	adc	r31, r31
    8ee2:	ed 57       	subi	r30, 0x7D	; 125
    8ee4:	fb 4d       	sbci	r31, 0xDB	; 219
    8ee6:	60 83       	st	Z, r22
    8ee8:	71 83       	std	Z+1, r23	; 0x01
    8eea:	10 92 63 24 	sts	0x2463, r1
    8eee:	1f 91       	pop	r17
    8ef0:	0f 91       	pop	r16
    8ef2:	95 cf       	rjmp	.-214    	; 0x8e1e <udi_cdc_rx_start.isra.8>
    8ef4:	1f 91       	pop	r17
    8ef6:	0f 91       	pop	r16
    8ef8:	08 95       	ret

00008efa <udi_cdc_data_enable>:
    8efa:	10 92 68 24 	sts	0x2468, r1
    8efe:	10 92 61 24 	sts	0x2461, r1
    8f02:	10 92 60 24 	sts	0x2460, r1
    8f06:	10 92 62 24 	sts	0x2462, r1
    8f0a:	10 92 7d 24 	sts	0x247D, r1
    8f0e:	10 92 7e 24 	sts	0x247E, r1
    8f12:	10 92 7f 24 	sts	0x247F, r1
    8f16:	10 92 80 24 	sts	0x2480, r1
    8f1a:	10 92 81 24 	sts	0x2481, r1
    8f1e:	10 92 82 24 	sts	0x2482, r1
    8f22:	3e de       	rcall	.-900    	; 0x8ba0 <udi_cdc_tx_send.isra.3>
    8f24:	10 92 63 24 	sts	0x2463, r1
    8f28:	10 92 66 24 	sts	0x2466, r1
    8f2c:	10 92 83 24 	sts	0x2483, r1
    8f30:	10 92 84 24 	sts	0x2484, r1
    8f34:	10 92 64 24 	sts	0x2464, r1
    8f38:	10 92 65 24 	sts	0x2465, r1
    8f3c:	70 df       	rcall	.-288    	; 0x8e1e <udi_cdc_rx_start.isra.8>
    8f3e:	88 23       	and	r24, r24
    8f40:	61 f0       	breq	.+24     	; 0x8f5a <udi_cdc_data_enable+0x60>
    8f42:	80 91 68 24 	lds	r24, 0x2468
    8f46:	8f 5f       	subi	r24, 0xFF	; 255
    8f48:	80 93 68 24 	sts	0x2468, r24
    8f4c:	80 91 68 24 	lds	r24, 0x2468
    8f50:	81 30       	cpi	r24, 0x01	; 1
    8f52:	29 f4       	brne	.+10     	; 0x8f5e <udi_cdc_data_enable+0x64>
    8f54:	80 93 67 24 	sts	0x2467, r24
    8f58:	08 95       	ret
    8f5a:	80 e0       	ldi	r24, 0x00	; 0
    8f5c:	08 95       	ret
    8f5e:	81 e0       	ldi	r24, 0x01	; 1
    8f60:	08 95       	ret

00008f62 <__udivmodhi4>:
    8f62:	aa 1b       	sub	r26, r26
    8f64:	bb 1b       	sub	r27, r27
    8f66:	51 e1       	ldi	r21, 0x11	; 17
    8f68:	07 c0       	rjmp	.+14     	; 0x8f78 <__udivmodhi4_ep>

00008f6a <__udivmodhi4_loop>:
    8f6a:	aa 1f       	adc	r26, r26
    8f6c:	bb 1f       	adc	r27, r27
    8f6e:	a6 17       	cp	r26, r22
    8f70:	b7 07       	cpc	r27, r23
    8f72:	10 f0       	brcs	.+4      	; 0x8f78 <__udivmodhi4_ep>
    8f74:	a6 1b       	sub	r26, r22
    8f76:	b7 0b       	sbc	r27, r23

00008f78 <__udivmodhi4_ep>:
    8f78:	88 1f       	adc	r24, r24
    8f7a:	99 1f       	adc	r25, r25
    8f7c:	5a 95       	dec	r21
    8f7e:	a9 f7       	brne	.-22     	; 0x8f6a <__udivmodhi4_loop>
    8f80:	80 95       	com	r24
    8f82:	90 95       	com	r25
    8f84:	bc 01       	movw	r22, r24
    8f86:	cd 01       	movw	r24, r26
    8f88:	08 95       	ret

00008f8a <__udivmodsi4>:
    8f8a:	a1 e2       	ldi	r26, 0x21	; 33
    8f8c:	1a 2e       	mov	r1, r26
    8f8e:	aa 1b       	sub	r26, r26
    8f90:	bb 1b       	sub	r27, r27
    8f92:	fd 01       	movw	r30, r26
    8f94:	0d c0       	rjmp	.+26     	; 0x8fb0 <__udivmodsi4_ep>

00008f96 <__udivmodsi4_loop>:
    8f96:	aa 1f       	adc	r26, r26
    8f98:	bb 1f       	adc	r27, r27
    8f9a:	ee 1f       	adc	r30, r30
    8f9c:	ff 1f       	adc	r31, r31
    8f9e:	a2 17       	cp	r26, r18
    8fa0:	b3 07       	cpc	r27, r19
    8fa2:	e4 07       	cpc	r30, r20
    8fa4:	f5 07       	cpc	r31, r21
    8fa6:	20 f0       	brcs	.+8      	; 0x8fb0 <__udivmodsi4_ep>
    8fa8:	a2 1b       	sub	r26, r18
    8faa:	b3 0b       	sbc	r27, r19
    8fac:	e4 0b       	sbc	r30, r20
    8fae:	f5 0b       	sbc	r31, r21

00008fb0 <__udivmodsi4_ep>:
    8fb0:	66 1f       	adc	r22, r22
    8fb2:	77 1f       	adc	r23, r23
    8fb4:	88 1f       	adc	r24, r24
    8fb6:	99 1f       	adc	r25, r25
    8fb8:	1a 94       	dec	r1
    8fba:	69 f7       	brne	.-38     	; 0x8f96 <__udivmodsi4_loop>
    8fbc:	60 95       	com	r22
    8fbe:	70 95       	com	r23
    8fc0:	80 95       	com	r24
    8fc2:	90 95       	com	r25
    8fc4:	9b 01       	movw	r18, r22
    8fc6:	ac 01       	movw	r20, r24
    8fc8:	bd 01       	movw	r22, r26
    8fca:	cf 01       	movw	r24, r30
    8fcc:	08 95       	ret

00008fce <__umulhisi3>:
    8fce:	a2 9f       	mul	r26, r18
    8fd0:	b0 01       	movw	r22, r0
    8fd2:	b3 9f       	mul	r27, r19
    8fd4:	c0 01       	movw	r24, r0
    8fd6:	a3 9f       	mul	r26, r19
    8fd8:	01 d0       	rcall	.+2      	; 0x8fdc <__umulhisi3+0xe>
    8fda:	b2 9f       	mul	r27, r18
    8fdc:	70 0d       	add	r23, r0
    8fde:	81 1d       	adc	r24, r1
    8fe0:	11 24       	eor	r1, r1
    8fe2:	91 1d       	adc	r25, r1
    8fe4:	08 95       	ret

00008fe6 <__usmulhisi3>:
    8fe6:	f3 df       	rcall	.-26     	; 0x8fce <__umulhisi3>

00008fe8 <__usmulhisi3_tail>:
    8fe8:	b7 ff       	sbrs	r27, 7
    8fea:	08 95       	ret
    8fec:	82 1b       	sub	r24, r18
    8fee:	93 0b       	sbc	r25, r19
    8ff0:	08 95       	ret

00008ff2 <__muluhisi3>:
    8ff2:	ed df       	rcall	.-38     	; 0x8fce <__umulhisi3>
    8ff4:	a5 9f       	mul	r26, r21
    8ff6:	90 0d       	add	r25, r0
    8ff8:	b4 9f       	mul	r27, r20
    8ffa:	90 0d       	add	r25, r0
    8ffc:	a4 9f       	mul	r26, r20
    8ffe:	80 0d       	add	r24, r0
    9000:	91 1d       	adc	r25, r1
    9002:	11 24       	eor	r1, r1
    9004:	08 95       	ret

00009006 <strtoul>:
    9006:	4f 92       	push	r4
    9008:	5f 92       	push	r5
    900a:	6f 92       	push	r6
    900c:	7f 92       	push	r7
    900e:	8f 92       	push	r8
    9010:	9f 92       	push	r9
    9012:	af 92       	push	r10
    9014:	bf 92       	push	r11
    9016:	cf 92       	push	r12
    9018:	df 92       	push	r13
    901a:	ef 92       	push	r14
    901c:	ff 92       	push	r15
    901e:	0f 93       	push	r16
    9020:	1f 93       	push	r17
    9022:	cf 93       	push	r28
    9024:	df 93       	push	r29
    9026:	5b 01       	movw	r10, r22
    9028:	ea 01       	movw	r28, r20
    902a:	61 15       	cp	r22, r1
    902c:	71 05       	cpc	r23, r1
    902e:	19 f0       	breq	.+6      	; 0x9036 <strtoul+0x30>
    9030:	fb 01       	movw	r30, r22
    9032:	80 83       	st	Z, r24
    9034:	91 83       	std	Z+1, r25	; 0x01
    9036:	20 97       	sbiw	r28, 0x00	; 0
    9038:	39 f0       	breq	.+14     	; 0x9048 <strtoul+0x42>
    903a:	9e 01       	movw	r18, r28
    903c:	22 50       	subi	r18, 0x02	; 2
    903e:	31 09       	sbc	r19, r1
    9040:	23 32       	cpi	r18, 0x23	; 35
    9042:	31 05       	cpc	r19, r1
    9044:	08 f0       	brcs	.+2      	; 0x9048 <strtoul+0x42>
    9046:	be c0       	rjmp	.+380    	; 0x91c4 <strtoul+0x1be>
    9048:	7c 01       	movw	r14, r24
    904a:	f7 01       	movw	r30, r14
    904c:	91 90       	ld	r9, Z+
    904e:	7f 01       	movw	r14, r30
    9050:	8f 01       	movw	r16, r30
    9052:	89 2d       	mov	r24, r9
    9054:	90 e0       	ldi	r25, 0x00	; 0
    9056:	de d0       	rcall	.+444    	; 0x9214 <isspace>
    9058:	89 2b       	or	r24, r25
    905a:	b9 f7       	brne	.-18     	; 0x904a <strtoul+0x44>
    905c:	fd e2       	ldi	r31, 0x2D	; 45
    905e:	9f 12       	cpse	r9, r31
    9060:	06 c0       	rjmp	.+12     	; 0x906e <strtoul+0x68>
    9062:	f7 01       	movw	r30, r14
    9064:	91 90       	ld	r9, Z+
    9066:	8f 01       	movw	r16, r30
    9068:	88 24       	eor	r8, r8
    906a:	83 94       	inc	r8
    906c:	07 c0       	rjmp	.+14     	; 0x907c <strtoul+0x76>
    906e:	fb e2       	ldi	r31, 0x2B	; 43
    9070:	9f 12       	cpse	r9, r31
    9072:	03 c0       	rjmp	.+6      	; 0x907a <strtoul+0x74>
    9074:	f7 01       	movw	r30, r14
    9076:	91 90       	ld	r9, Z+
    9078:	8f 01       	movw	r16, r30
    907a:	81 2c       	mov	r8, r1
    907c:	20 97       	sbiw	r28, 0x00	; 0
    907e:	09 f4       	brne	.+2      	; 0x9082 <strtoul+0x7c>
    9080:	ab c0       	rjmp	.+342    	; 0x91d8 <strtoul+0x1d2>
    9082:	c0 31       	cpi	r28, 0x10	; 16
    9084:	d1 05       	cpc	r29, r1
    9086:	81 f4       	brne	.+32     	; 0x90a8 <strtoul+0xa2>
    9088:	ae c0       	rjmp	.+348    	; 0x91e6 <strtoul+0x1e0>
    908a:	f8 01       	movw	r30, r16
    908c:	80 81       	ld	r24, Z
    908e:	88 37       	cpi	r24, 0x78	; 120
    9090:	19 f0       	breq	.+6      	; 0x9098 <strtoul+0x92>
    9092:	88 35       	cpi	r24, 0x58	; 88
    9094:	09 f0       	breq	.+2      	; 0x9098 <strtoul+0x92>
    9096:	9a c0       	rjmp	.+308    	; 0x91cc <strtoul+0x1c6>
    9098:	f8 01       	movw	r30, r16
    909a:	91 80       	ldd	r9, Z+1	; 0x01
    909c:	0e 5f       	subi	r16, 0xFE	; 254
    909e:	1f 4f       	sbci	r17, 0xFF	; 255
    90a0:	f2 e0       	ldi	r31, 0x02	; 2
    90a2:	8f 2a       	or	r8, r31
    90a4:	c0 e1       	ldi	r28, 0x10	; 16
    90a6:	d0 e0       	ldi	r29, 0x00	; 0
    90a8:	ca 30       	cpi	r28, 0x0A	; 10
    90aa:	d1 05       	cpc	r29, r1
    90ac:	19 f1       	breq	.+70     	; 0x90f4 <strtoul+0xee>
    90ae:	c0 31       	cpi	r28, 0x10	; 16
    90b0:	d1 05       	cpc	r29, r1
    90b2:	21 f0       	breq	.+8      	; 0x90bc <strtoul+0xb6>
    90b4:	c8 30       	cpi	r28, 0x08	; 8
    90b6:	d1 05       	cpc	r29, r1
    90b8:	89 f4       	brne	.+34     	; 0x90dc <strtoul+0xd6>
    90ba:	07 c0       	rjmp	.+14     	; 0x90ca <strtoul+0xc4>
    90bc:	cc 24       	eor	r12, r12
    90be:	ca 94       	dec	r12
    90c0:	dc 2c       	mov	r13, r12
    90c2:	ec 2c       	mov	r14, r12
    90c4:	3f e0       	ldi	r19, 0x0F	; 15
    90c6:	f3 2e       	mov	r15, r19
    90c8:	1b c0       	rjmp	.+54     	; 0x9100 <strtoul+0xfa>
    90ca:	c8 e0       	ldi	r28, 0x08	; 8
    90cc:	d0 e0       	ldi	r29, 0x00	; 0
    90ce:	cc 24       	eor	r12, r12
    90d0:	ca 94       	dec	r12
    90d2:	dc 2c       	mov	r13, r12
    90d4:	ec 2c       	mov	r14, r12
    90d6:	2f e1       	ldi	r18, 0x1F	; 31
    90d8:	f2 2e       	mov	r15, r18
    90da:	12 c0       	rjmp	.+36     	; 0x9100 <strtoul+0xfa>
    90dc:	9e 01       	movw	r18, r28
    90de:	44 27       	eor	r20, r20
    90e0:	37 fd       	sbrc	r19, 7
    90e2:	40 95       	com	r20
    90e4:	54 2f       	mov	r21, r20
    90e6:	6f ef       	ldi	r22, 0xFF	; 255
    90e8:	7f ef       	ldi	r23, 0xFF	; 255
    90ea:	cb 01       	movw	r24, r22
    90ec:	4e df       	rcall	.-356    	; 0x8f8a <__udivmodsi4>
    90ee:	69 01       	movw	r12, r18
    90f0:	7a 01       	movw	r14, r20
    90f2:	06 c0       	rjmp	.+12     	; 0x9100 <strtoul+0xfa>
    90f4:	99 e9       	ldi	r25, 0x99	; 153
    90f6:	c9 2e       	mov	r12, r25
    90f8:	dc 2c       	mov	r13, r12
    90fa:	ec 2c       	mov	r14, r12
    90fc:	99 e1       	ldi	r25, 0x19	; 25
    90fe:	f9 2e       	mov	r15, r25
    9100:	60 e0       	ldi	r22, 0x00	; 0
    9102:	20 e0       	ldi	r18, 0x00	; 0
    9104:	30 e0       	ldi	r19, 0x00	; 0
    9106:	a9 01       	movw	r20, r18
    9108:	2e 01       	movw	r4, r28
    910a:	66 24       	eor	r6, r6
    910c:	57 fc       	sbrc	r5, 7
    910e:	60 94       	com	r6
    9110:	76 2c       	mov	r7, r6
    9112:	e9 2d       	mov	r30, r9
    9114:	e0 53       	subi	r30, 0x30	; 48
    9116:	ea 30       	cpi	r30, 0x0A	; 10
    9118:	60 f0       	brcs	.+24     	; 0x9132 <strtoul+0x12c>
    911a:	89 2d       	mov	r24, r9
    911c:	81 54       	subi	r24, 0x41	; 65
    911e:	8a 31       	cpi	r24, 0x1A	; 26
    9120:	10 f4       	brcc	.+4      	; 0x9126 <strtoul+0x120>
    9122:	e7 50       	subi	r30, 0x07	; 7
    9124:	06 c0       	rjmp	.+12     	; 0x9132 <strtoul+0x12c>
    9126:	89 2d       	mov	r24, r9
    9128:	81 56       	subi	r24, 0x61	; 97
    912a:	8a 31       	cpi	r24, 0x1A	; 26
    912c:	38 f5       	brcc	.+78     	; 0x917c <strtoul+0x176>
    912e:	e9 2d       	mov	r30, r9
    9130:	e7 55       	subi	r30, 0x57	; 87
    9132:	8e 2f       	mov	r24, r30
    9134:	90 e0       	ldi	r25, 0x00	; 0
    9136:	8c 17       	cp	r24, r28
    9138:	9d 07       	cpc	r25, r29
    913a:	04 f5       	brge	.+64     	; 0x917c <strtoul+0x176>
    913c:	6f 3f       	cpi	r22, 0xFF	; 255
    913e:	d1 f0       	breq	.+52     	; 0x9174 <strtoul+0x16e>
    9140:	c2 16       	cp	r12, r18
    9142:	d3 06       	cpc	r13, r19
    9144:	e4 06       	cpc	r14, r20
    9146:	f5 06       	cpc	r15, r21
    9148:	90 f0       	brcs	.+36     	; 0x916e <strtoul+0x168>
    914a:	c3 01       	movw	r24, r6
    914c:	b2 01       	movw	r22, r4
    914e:	ad d3       	rcall	.+1882   	; 0x98aa <__mulsi3>
    9150:	9b 01       	movw	r18, r22
    9152:	ac 01       	movw	r20, r24
    9154:	8e 2f       	mov	r24, r30
    9156:	90 e0       	ldi	r25, 0x00	; 0
    9158:	a0 e0       	ldi	r26, 0x00	; 0
    915a:	b0 e0       	ldi	r27, 0x00	; 0
    915c:	28 0f       	add	r18, r24
    915e:	39 1f       	adc	r19, r25
    9160:	4a 1f       	adc	r20, r26
    9162:	5b 1f       	adc	r21, r27
    9164:	28 17       	cp	r18, r24
    9166:	39 07       	cpc	r19, r25
    9168:	4a 07       	cpc	r20, r26
    916a:	5b 07       	cpc	r21, r27
    916c:	10 f4       	brcc	.+4      	; 0x9172 <strtoul+0x16c>
    916e:	6f ef       	ldi	r22, 0xFF	; 255
    9170:	01 c0       	rjmp	.+2      	; 0x9174 <strtoul+0x16e>
    9172:	61 e0       	ldi	r22, 0x01	; 1
    9174:	f8 01       	movw	r30, r16
    9176:	91 90       	ld	r9, Z+
    9178:	8f 01       	movw	r16, r30
    917a:	cb cf       	rjmp	.-106    	; 0x9112 <strtoul+0x10c>
    917c:	a1 14       	cp	r10, r1
    917e:	b1 04       	cpc	r11, r1
    9180:	61 f0       	breq	.+24     	; 0x919a <strtoul+0x194>
    9182:	66 23       	and	r22, r22
    9184:	19 f0       	breq	.+6      	; 0x918c <strtoul+0x186>
    9186:	01 50       	subi	r16, 0x01	; 1
    9188:	11 09       	sbc	r17, r1
    918a:	04 c0       	rjmp	.+8      	; 0x9194 <strtoul+0x18e>
    918c:	81 fe       	sbrs	r8, 1
    918e:	05 c0       	rjmp	.+10     	; 0x919a <strtoul+0x194>
    9190:	02 50       	subi	r16, 0x02	; 2
    9192:	11 09       	sbc	r17, r1
    9194:	f5 01       	movw	r30, r10
    9196:	00 83       	st	Z, r16
    9198:	11 83       	std	Z+1, r17	; 0x01
    919a:	80 fe       	sbrs	r8, 0
    919c:	07 c0       	rjmp	.+14     	; 0x91ac <strtoul+0x1a6>
    919e:	50 95       	com	r21
    91a0:	40 95       	com	r20
    91a2:	30 95       	com	r19
    91a4:	21 95       	neg	r18
    91a6:	3f 4f       	sbci	r19, 0xFF	; 255
    91a8:	4f 4f       	sbci	r20, 0xFF	; 255
    91aa:	5f 4f       	sbci	r21, 0xFF	; 255
    91ac:	67 ff       	sbrs	r22, 7
    91ae:	1f c0       	rjmp	.+62     	; 0x91ee <strtoul+0x1e8>
    91b0:	82 e2       	ldi	r24, 0x22	; 34
    91b2:	90 e0       	ldi	r25, 0x00	; 0
    91b4:	80 93 e0 25 	sts	0x25E0, r24
    91b8:	90 93 e1 25 	sts	0x25E1, r25
    91bc:	2f ef       	ldi	r18, 0xFF	; 255
    91be:	3f ef       	ldi	r19, 0xFF	; 255
    91c0:	a9 01       	movw	r20, r18
    91c2:	15 c0       	rjmp	.+42     	; 0x91ee <strtoul+0x1e8>
    91c4:	20 e0       	ldi	r18, 0x00	; 0
    91c6:	30 e0       	ldi	r19, 0x00	; 0
    91c8:	a9 01       	movw	r20, r18
    91ca:	11 c0       	rjmp	.+34     	; 0x91ee <strtoul+0x1e8>
    91cc:	80 e3       	ldi	r24, 0x30	; 48
    91ce:	98 2e       	mov	r9, r24
    91d0:	20 97       	sbiw	r28, 0x00	; 0
    91d2:	09 f4       	brne	.+2      	; 0x91d6 <strtoul+0x1d0>
    91d4:	7a cf       	rjmp	.-268    	; 0x90ca <strtoul+0xc4>
    91d6:	68 cf       	rjmp	.-304    	; 0x90a8 <strtoul+0xa2>
    91d8:	f0 e3       	ldi	r31, 0x30	; 48
    91da:	9f 16       	cp	r9, r31
    91dc:	09 f4       	brne	.+2      	; 0x91e0 <strtoul+0x1da>
    91de:	55 cf       	rjmp	.-342    	; 0x908a <strtoul+0x84>
    91e0:	ca e0       	ldi	r28, 0x0A	; 10
    91e2:	d0 e0       	ldi	r29, 0x00	; 0
    91e4:	87 cf       	rjmp	.-242    	; 0x90f4 <strtoul+0xee>
    91e6:	80 e3       	ldi	r24, 0x30	; 48
    91e8:	98 12       	cpse	r9, r24
    91ea:	5e cf       	rjmp	.-324    	; 0x90a8 <strtoul+0xa2>
    91ec:	4e cf       	rjmp	.-356    	; 0x908a <strtoul+0x84>
    91ee:	b9 01       	movw	r22, r18
    91f0:	ca 01       	movw	r24, r20
    91f2:	df 91       	pop	r29
    91f4:	cf 91       	pop	r28
    91f6:	1f 91       	pop	r17
    91f8:	0f 91       	pop	r16
    91fa:	ff 90       	pop	r15
    91fc:	ef 90       	pop	r14
    91fe:	df 90       	pop	r13
    9200:	cf 90       	pop	r12
    9202:	bf 90       	pop	r11
    9204:	af 90       	pop	r10
    9206:	9f 90       	pop	r9
    9208:	8f 90       	pop	r8
    920a:	7f 90       	pop	r7
    920c:	6f 90       	pop	r6
    920e:	5f 90       	pop	r5
    9210:	4f 90       	pop	r4
    9212:	08 95       	ret

00009214 <isspace>:
    9214:	91 11       	cpse	r25, r1
    9216:	a1 c2       	rjmp	.+1346   	; 0x975a <__ctype_isfalse>
    9218:	80 32       	cpi	r24, 0x20	; 32
    921a:	19 f0       	breq	.+6      	; 0x9222 <isspace+0xe>
    921c:	89 50       	subi	r24, 0x09	; 9
    921e:	85 50       	subi	r24, 0x05	; 5
    9220:	d0 f7       	brcc	.-12     	; 0x9216 <isspace+0x2>
    9222:	08 95       	ret

00009224 <strncasecmp_P>:
    9224:	fb 01       	movw	r30, r22
    9226:	dc 01       	movw	r26, r24
    9228:	41 50       	subi	r20, 0x01	; 1
    922a:	50 40       	sbci	r21, 0x00	; 0
    922c:	88 f0       	brcs	.+34     	; 0x9250 <strncasecmp_P+0x2c>
    922e:	8d 91       	ld	r24, X+
    9230:	81 34       	cpi	r24, 0x41	; 65
    9232:	1c f0       	brlt	.+6      	; 0x923a <strncasecmp_P+0x16>
    9234:	8b 35       	cpi	r24, 0x5B	; 91
    9236:	0c f4       	brge	.+2      	; 0x923a <strncasecmp_P+0x16>
    9238:	80 5e       	subi	r24, 0xE0	; 224
    923a:	65 91       	lpm	r22, Z+
    923c:	61 34       	cpi	r22, 0x41	; 65
    923e:	1c f0       	brlt	.+6      	; 0x9246 <strncasecmp_P+0x22>
    9240:	6b 35       	cpi	r22, 0x5B	; 91
    9242:	0c f4       	brge	.+2      	; 0x9246 <strncasecmp_P+0x22>
    9244:	60 5e       	subi	r22, 0xE0	; 224
    9246:	86 1b       	sub	r24, r22
    9248:	61 11       	cpse	r22, r1
    924a:	71 f3       	breq	.-36     	; 0x9228 <strncasecmp_P+0x4>
    924c:	99 0b       	sbc	r25, r25
    924e:	08 95       	ret
    9250:	88 1b       	sub	r24, r24
    9252:	fc cf       	rjmp	.-8      	; 0x924c <strncasecmp_P+0x28>

00009254 <memcpy>:
    9254:	fb 01       	movw	r30, r22
    9256:	dc 01       	movw	r26, r24
    9258:	02 c0       	rjmp	.+4      	; 0x925e <memcpy+0xa>
    925a:	01 90       	ld	r0, Z+
    925c:	0d 92       	st	X+, r0
    925e:	41 50       	subi	r20, 0x01	; 1
    9260:	50 40       	sbci	r21, 0x00	; 0
    9262:	d8 f7       	brcc	.-10     	; 0x925a <memcpy+0x6>
    9264:	08 95       	ret

00009266 <strnlen>:
    9266:	fc 01       	movw	r30, r24
    9268:	61 50       	subi	r22, 0x01	; 1
    926a:	70 40       	sbci	r23, 0x00	; 0
    926c:	01 90       	ld	r0, Z+
    926e:	01 10       	cpse	r0, r1
    9270:	d8 f7       	brcc	.-10     	; 0x9268 <strnlen+0x2>
    9272:	80 95       	com	r24
    9274:	90 95       	com	r25
    9276:	8e 0f       	add	r24, r30
    9278:	9f 1f       	adc	r25, r31
    927a:	08 95       	ret

0000927c <itoa>:
    927c:	fb 01       	movw	r30, r22
    927e:	9f 01       	movw	r18, r30
    9280:	e8 94       	clt
    9282:	42 30       	cpi	r20, 0x02	; 2
    9284:	bc f0       	brlt	.+46     	; 0x92b4 <itoa+0x38>
    9286:	45 32       	cpi	r20, 0x25	; 37
    9288:	ac f4       	brge	.+42     	; 0x92b4 <itoa+0x38>
    928a:	4a 30       	cpi	r20, 0x0A	; 10
    928c:	29 f4       	brne	.+10     	; 0x9298 <itoa+0x1c>
    928e:	97 fb       	bst	r25, 7
    9290:	1e f4       	brtc	.+6      	; 0x9298 <itoa+0x1c>
    9292:	90 95       	com	r25
    9294:	81 95       	neg	r24
    9296:	9f 4f       	sbci	r25, 0xFF	; 255
    9298:	64 2f       	mov	r22, r20
    929a:	77 27       	eor	r23, r23
    929c:	62 de       	rcall	.-828    	; 0x8f62 <__udivmodhi4>
    929e:	80 5d       	subi	r24, 0xD0	; 208
    92a0:	8a 33       	cpi	r24, 0x3A	; 58
    92a2:	0c f0       	brlt	.+2      	; 0x92a6 <itoa+0x2a>
    92a4:	89 5d       	subi	r24, 0xD9	; 217
    92a6:	81 93       	st	Z+, r24
    92a8:	cb 01       	movw	r24, r22
    92aa:	00 97       	sbiw	r24, 0x00	; 0
    92ac:	a9 f7       	brne	.-22     	; 0x9298 <itoa+0x1c>
    92ae:	16 f4       	brtc	.+4      	; 0x92b4 <itoa+0x38>
    92b0:	5d e2       	ldi	r21, 0x2D	; 45
    92b2:	51 93       	st	Z+, r21
    92b4:	10 82       	st	Z, r1
    92b6:	c9 01       	movw	r24, r18
    92b8:	5e c2       	rjmp	.+1212   	; 0x9776 <strrev>

000092ba <snprintf_P>:
    92ba:	0f 93       	push	r16
    92bc:	1f 93       	push	r17
    92be:	cf 93       	push	r28
    92c0:	df 93       	push	r29
    92c2:	cd b7       	in	r28, 0x3d	; 61
    92c4:	de b7       	in	r29, 0x3e	; 62
    92c6:	2e 97       	sbiw	r28, 0x0e	; 14
    92c8:	cd bf       	out	0x3d, r28	; 61
    92ca:	de bf       	out	0x3e, r29	; 62
    92cc:	0e 89       	ldd	r16, Y+22	; 0x16
    92ce:	1f 89       	ldd	r17, Y+23	; 0x17
    92d0:	88 8d       	ldd	r24, Y+24	; 0x18
    92d2:	99 8d       	ldd	r25, Y+25	; 0x19
    92d4:	2e e0       	ldi	r18, 0x0E	; 14
    92d6:	2c 83       	std	Y+4, r18	; 0x04
    92d8:	09 83       	std	Y+1, r16	; 0x01
    92da:	1a 83       	std	Y+2, r17	; 0x02
    92dc:	97 ff       	sbrs	r25, 7
    92de:	02 c0       	rjmp	.+4      	; 0x92e4 <snprintf_P+0x2a>
    92e0:	80 e0       	ldi	r24, 0x00	; 0
    92e2:	90 e8       	ldi	r25, 0x80	; 128
    92e4:	01 97       	sbiw	r24, 0x01	; 1
    92e6:	8d 83       	std	Y+5, r24	; 0x05
    92e8:	9e 83       	std	Y+6, r25	; 0x06
    92ea:	ce 01       	movw	r24, r28
    92ec:	4c 96       	adiw	r24, 0x1c	; 28
    92ee:	ac 01       	movw	r20, r24
    92f0:	6a 8d       	ldd	r22, Y+26	; 0x1a
    92f2:	7b 8d       	ldd	r23, Y+27	; 0x1b
    92f4:	ce 01       	movw	r24, r28
    92f6:	01 96       	adiw	r24, 0x01	; 1
    92f8:	3e d0       	rcall	.+124    	; 0x9376 <vfprintf>
    92fa:	4d 81       	ldd	r20, Y+5	; 0x05
    92fc:	5e 81       	ldd	r21, Y+6	; 0x06
    92fe:	57 fd       	sbrc	r21, 7
    9300:	0a c0       	rjmp	.+20     	; 0x9316 <snprintf_P+0x5c>
    9302:	2f 81       	ldd	r18, Y+7	; 0x07
    9304:	38 85       	ldd	r19, Y+8	; 0x08
    9306:	42 17       	cp	r20, r18
    9308:	53 07       	cpc	r21, r19
    930a:	0c f4       	brge	.+2      	; 0x930e <snprintf_P+0x54>
    930c:	9a 01       	movw	r18, r20
    930e:	f8 01       	movw	r30, r16
    9310:	e2 0f       	add	r30, r18
    9312:	f3 1f       	adc	r31, r19
    9314:	10 82       	st	Z, r1
    9316:	2e 96       	adiw	r28, 0x0e	; 14
    9318:	cd bf       	out	0x3d, r28	; 61
    931a:	de bf       	out	0x3e, r29	; 62
    931c:	df 91       	pop	r29
    931e:	cf 91       	pop	r28
    9320:	1f 91       	pop	r17
    9322:	0f 91       	pop	r16
    9324:	08 95       	ret

00009326 <sprintf_P>:
    9326:	0f 93       	push	r16
    9328:	1f 93       	push	r17
    932a:	cf 93       	push	r28
    932c:	df 93       	push	r29
    932e:	cd b7       	in	r28, 0x3d	; 61
    9330:	de b7       	in	r29, 0x3e	; 62
    9332:	2e 97       	sbiw	r28, 0x0e	; 14
    9334:	cd bf       	out	0x3d, r28	; 61
    9336:	de bf       	out	0x3e, r29	; 62
    9338:	0e 89       	ldd	r16, Y+22	; 0x16
    933a:	1f 89       	ldd	r17, Y+23	; 0x17
    933c:	8e e0       	ldi	r24, 0x0E	; 14
    933e:	8c 83       	std	Y+4, r24	; 0x04
    9340:	09 83       	std	Y+1, r16	; 0x01
    9342:	1a 83       	std	Y+2, r17	; 0x02
    9344:	8f ef       	ldi	r24, 0xFF	; 255
    9346:	9f e7       	ldi	r25, 0x7F	; 127
    9348:	8d 83       	std	Y+5, r24	; 0x05
    934a:	9e 83       	std	Y+6, r25	; 0x06
    934c:	ce 01       	movw	r24, r28
    934e:	4a 96       	adiw	r24, 0x1a	; 26
    9350:	ac 01       	movw	r20, r24
    9352:	68 8d       	ldd	r22, Y+24	; 0x18
    9354:	79 8d       	ldd	r23, Y+25	; 0x19
    9356:	ce 01       	movw	r24, r28
    9358:	01 96       	adiw	r24, 0x01	; 1
    935a:	0d d0       	rcall	.+26     	; 0x9376 <vfprintf>
    935c:	ef 81       	ldd	r30, Y+7	; 0x07
    935e:	f8 85       	ldd	r31, Y+8	; 0x08
    9360:	e0 0f       	add	r30, r16
    9362:	f1 1f       	adc	r31, r17
    9364:	10 82       	st	Z, r1
    9366:	2e 96       	adiw	r28, 0x0e	; 14
    9368:	cd bf       	out	0x3d, r28	; 61
    936a:	de bf       	out	0x3e, r29	; 62
    936c:	df 91       	pop	r29
    936e:	cf 91       	pop	r28
    9370:	1f 91       	pop	r17
    9372:	0f 91       	pop	r16
    9374:	08 95       	ret

00009376 <vfprintf>:
    9376:	2f 92       	push	r2
    9378:	3f 92       	push	r3
    937a:	4f 92       	push	r4
    937c:	5f 92       	push	r5
    937e:	6f 92       	push	r6
    9380:	7f 92       	push	r7
    9382:	8f 92       	push	r8
    9384:	9f 92       	push	r9
    9386:	af 92       	push	r10
    9388:	bf 92       	push	r11
    938a:	cf 92       	push	r12
    938c:	df 92       	push	r13
    938e:	ef 92       	push	r14
    9390:	ff 92       	push	r15
    9392:	0f 93       	push	r16
    9394:	1f 93       	push	r17
    9396:	cf 93       	push	r28
    9398:	df 93       	push	r29
    939a:	cd b7       	in	r28, 0x3d	; 61
    939c:	de b7       	in	r29, 0x3e	; 62
    939e:	2c 97       	sbiw	r28, 0x0c	; 12
    93a0:	cd bf       	out	0x3d, r28	; 61
    93a2:	de bf       	out	0x3e, r29	; 62
    93a4:	7c 01       	movw	r14, r24
    93a6:	6b 01       	movw	r12, r22
    93a8:	8a 01       	movw	r16, r20
    93aa:	fc 01       	movw	r30, r24
    93ac:	16 82       	std	Z+6, r1	; 0x06
    93ae:	17 82       	std	Z+7, r1	; 0x07
    93b0:	83 81       	ldd	r24, Z+3	; 0x03
    93b2:	81 ff       	sbrs	r24, 1
    93b4:	b9 c1       	rjmp	.+882    	; 0x9728 <vfprintf+0x3b2>
    93b6:	88 24       	eor	r8, r8
    93b8:	83 94       	inc	r8
    93ba:	91 2c       	mov	r9, r1
    93bc:	8c 0e       	add	r8, r28
    93be:	9d 1e       	adc	r9, r29
    93c0:	f7 01       	movw	r30, r14
    93c2:	93 81       	ldd	r25, Z+3	; 0x03
    93c4:	f6 01       	movw	r30, r12
    93c6:	93 fd       	sbrc	r25, 3
    93c8:	85 91       	lpm	r24, Z+
    93ca:	93 ff       	sbrs	r25, 3
    93cc:	81 91       	ld	r24, Z+
    93ce:	6f 01       	movw	r12, r30
    93d0:	88 23       	and	r24, r24
    93d2:	09 f4       	brne	.+2      	; 0x93d6 <vfprintf+0x60>
    93d4:	a5 c1       	rjmp	.+842    	; 0x9720 <vfprintf+0x3aa>
    93d6:	85 32       	cpi	r24, 0x25	; 37
    93d8:	39 f4       	brne	.+14     	; 0x93e8 <vfprintf+0x72>
    93da:	93 fd       	sbrc	r25, 3
    93dc:	85 91       	lpm	r24, Z+
    93de:	93 ff       	sbrs	r25, 3
    93e0:	81 91       	ld	r24, Z+
    93e2:	6f 01       	movw	r12, r30
    93e4:	85 32       	cpi	r24, 0x25	; 37
    93e6:	21 f4       	brne	.+8      	; 0x93f0 <vfprintf+0x7a>
    93e8:	b7 01       	movw	r22, r14
    93ea:	90 e0       	ldi	r25, 0x00	; 0
    93ec:	d4 d1       	rcall	.+936    	; 0x9796 <fputc>
    93ee:	e8 cf       	rjmp	.-48     	; 0x93c0 <vfprintf+0x4a>
    93f0:	51 2c       	mov	r5, r1
    93f2:	31 2c       	mov	r3, r1
    93f4:	20 e0       	ldi	r18, 0x00	; 0
    93f6:	20 32       	cpi	r18, 0x20	; 32
    93f8:	a8 f4       	brcc	.+42     	; 0x9424 <vfprintf+0xae>
    93fa:	8b 32       	cpi	r24, 0x2B	; 43
    93fc:	61 f0       	breq	.+24     	; 0x9416 <vfprintf+0xa0>
    93fe:	28 f4       	brcc	.+10     	; 0x940a <vfprintf+0x94>
    9400:	80 32       	cpi	r24, 0x20	; 32
    9402:	51 f0       	breq	.+20     	; 0x9418 <vfprintf+0xa2>
    9404:	83 32       	cpi	r24, 0x23	; 35
    9406:	71 f4       	brne	.+28     	; 0x9424 <vfprintf+0xae>
    9408:	0b c0       	rjmp	.+22     	; 0x9420 <vfprintf+0xaa>
    940a:	8d 32       	cpi	r24, 0x2D	; 45
    940c:	39 f0       	breq	.+14     	; 0x941c <vfprintf+0xa6>
    940e:	80 33       	cpi	r24, 0x30	; 48
    9410:	49 f4       	brne	.+18     	; 0x9424 <vfprintf+0xae>
    9412:	21 60       	ori	r18, 0x01	; 1
    9414:	28 c0       	rjmp	.+80     	; 0x9466 <vfprintf+0xf0>
    9416:	22 60       	ori	r18, 0x02	; 2
    9418:	24 60       	ori	r18, 0x04	; 4
    941a:	25 c0       	rjmp	.+74     	; 0x9466 <vfprintf+0xf0>
    941c:	28 60       	ori	r18, 0x08	; 8
    941e:	23 c0       	rjmp	.+70     	; 0x9466 <vfprintf+0xf0>
    9420:	20 61       	ori	r18, 0x10	; 16
    9422:	21 c0       	rjmp	.+66     	; 0x9466 <vfprintf+0xf0>
    9424:	27 fd       	sbrc	r18, 7
    9426:	27 c0       	rjmp	.+78     	; 0x9476 <vfprintf+0x100>
    9428:	38 2f       	mov	r19, r24
    942a:	30 53       	subi	r19, 0x30	; 48
    942c:	3a 30       	cpi	r19, 0x0A	; 10
    942e:	78 f4       	brcc	.+30     	; 0x944e <vfprintf+0xd8>
    9430:	26 ff       	sbrs	r18, 6
    9432:	06 c0       	rjmp	.+12     	; 0x9440 <vfprintf+0xca>
    9434:	fa e0       	ldi	r31, 0x0A	; 10
    9436:	5f 9e       	mul	r5, r31
    9438:	30 0d       	add	r19, r0
    943a:	11 24       	eor	r1, r1
    943c:	53 2e       	mov	r5, r19
    943e:	13 c0       	rjmp	.+38     	; 0x9466 <vfprintf+0xf0>
    9440:	8a e0       	ldi	r24, 0x0A	; 10
    9442:	38 9e       	mul	r3, r24
    9444:	30 0d       	add	r19, r0
    9446:	11 24       	eor	r1, r1
    9448:	33 2e       	mov	r3, r19
    944a:	20 62       	ori	r18, 0x20	; 32
    944c:	0c c0       	rjmp	.+24     	; 0x9466 <vfprintf+0xf0>
    944e:	8e 32       	cpi	r24, 0x2E	; 46
    9450:	21 f4       	brne	.+8      	; 0x945a <vfprintf+0xe4>
    9452:	26 fd       	sbrc	r18, 6
    9454:	65 c1       	rjmp	.+714    	; 0x9720 <vfprintf+0x3aa>
    9456:	20 64       	ori	r18, 0x40	; 64
    9458:	06 c0       	rjmp	.+12     	; 0x9466 <vfprintf+0xf0>
    945a:	8c 36       	cpi	r24, 0x6C	; 108
    945c:	11 f4       	brne	.+4      	; 0x9462 <vfprintf+0xec>
    945e:	20 68       	ori	r18, 0x80	; 128
    9460:	02 c0       	rjmp	.+4      	; 0x9466 <vfprintf+0xf0>
    9462:	88 36       	cpi	r24, 0x68	; 104
    9464:	41 f4       	brne	.+16     	; 0x9476 <vfprintf+0x100>
    9466:	f6 01       	movw	r30, r12
    9468:	93 fd       	sbrc	r25, 3
    946a:	85 91       	lpm	r24, Z+
    946c:	93 ff       	sbrs	r25, 3
    946e:	81 91       	ld	r24, Z+
    9470:	6f 01       	movw	r12, r30
    9472:	81 11       	cpse	r24, r1
    9474:	c0 cf       	rjmp	.-128    	; 0x93f6 <vfprintf+0x80>
    9476:	98 2f       	mov	r25, r24
    9478:	95 54       	subi	r25, 0x45	; 69
    947a:	93 30       	cpi	r25, 0x03	; 3
    947c:	18 f0       	brcs	.+6      	; 0x9484 <vfprintf+0x10e>
    947e:	90 52       	subi	r25, 0x20	; 32
    9480:	93 30       	cpi	r25, 0x03	; 3
    9482:	28 f4       	brcc	.+10     	; 0x948e <vfprintf+0x118>
    9484:	0c 5f       	subi	r16, 0xFC	; 252
    9486:	1f 4f       	sbci	r17, 0xFF	; 255
    9488:	ff e3       	ldi	r31, 0x3F	; 63
    948a:	f9 83       	std	Y+1, r31	; 0x01
    948c:	0d c0       	rjmp	.+26     	; 0x94a8 <vfprintf+0x132>
    948e:	83 36       	cpi	r24, 0x63	; 99
    9490:	31 f0       	breq	.+12     	; 0x949e <vfprintf+0x128>
    9492:	83 37       	cpi	r24, 0x73	; 115
    9494:	71 f0       	breq	.+28     	; 0x94b2 <vfprintf+0x13c>
    9496:	83 35       	cpi	r24, 0x53	; 83
    9498:	09 f0       	breq	.+2      	; 0x949c <vfprintf+0x126>
    949a:	5a c0       	rjmp	.+180    	; 0x9550 <vfprintf+0x1da>
    949c:	22 c0       	rjmp	.+68     	; 0x94e2 <vfprintf+0x16c>
    949e:	f8 01       	movw	r30, r16
    94a0:	80 81       	ld	r24, Z
    94a2:	89 83       	std	Y+1, r24	; 0x01
    94a4:	0e 5f       	subi	r16, 0xFE	; 254
    94a6:	1f 4f       	sbci	r17, 0xFF	; 255
    94a8:	44 24       	eor	r4, r4
    94aa:	43 94       	inc	r4
    94ac:	51 2c       	mov	r5, r1
    94ae:	54 01       	movw	r10, r8
    94b0:	14 c0       	rjmp	.+40     	; 0x94da <vfprintf+0x164>
    94b2:	38 01       	movw	r6, r16
    94b4:	f2 e0       	ldi	r31, 0x02	; 2
    94b6:	6f 0e       	add	r6, r31
    94b8:	71 1c       	adc	r7, r1
    94ba:	f8 01       	movw	r30, r16
    94bc:	a0 80       	ld	r10, Z
    94be:	b1 80       	ldd	r11, Z+1	; 0x01
    94c0:	26 ff       	sbrs	r18, 6
    94c2:	03 c0       	rjmp	.+6      	; 0x94ca <vfprintf+0x154>
    94c4:	65 2d       	mov	r22, r5
    94c6:	70 e0       	ldi	r23, 0x00	; 0
    94c8:	02 c0       	rjmp	.+4      	; 0x94ce <vfprintf+0x158>
    94ca:	6f ef       	ldi	r22, 0xFF	; 255
    94cc:	7f ef       	ldi	r23, 0xFF	; 255
    94ce:	c5 01       	movw	r24, r10
    94d0:	2c 87       	std	Y+12, r18	; 0x0c
    94d2:	c9 de       	rcall	.-622    	; 0x9266 <strnlen>
    94d4:	2c 01       	movw	r4, r24
    94d6:	83 01       	movw	r16, r6
    94d8:	2c 85       	ldd	r18, Y+12	; 0x0c
    94da:	6f e7       	ldi	r22, 0x7F	; 127
    94dc:	26 2e       	mov	r2, r22
    94de:	22 22       	and	r2, r18
    94e0:	17 c0       	rjmp	.+46     	; 0x9510 <vfprintf+0x19a>
    94e2:	38 01       	movw	r6, r16
    94e4:	f2 e0       	ldi	r31, 0x02	; 2
    94e6:	6f 0e       	add	r6, r31
    94e8:	71 1c       	adc	r7, r1
    94ea:	f8 01       	movw	r30, r16
    94ec:	a0 80       	ld	r10, Z
    94ee:	b1 80       	ldd	r11, Z+1	; 0x01
    94f0:	26 ff       	sbrs	r18, 6
    94f2:	03 c0       	rjmp	.+6      	; 0x94fa <vfprintf+0x184>
    94f4:	65 2d       	mov	r22, r5
    94f6:	70 e0       	ldi	r23, 0x00	; 0
    94f8:	02 c0       	rjmp	.+4      	; 0x94fe <vfprintf+0x188>
    94fa:	6f ef       	ldi	r22, 0xFF	; 255
    94fc:	7f ef       	ldi	r23, 0xFF	; 255
    94fe:	c5 01       	movw	r24, r10
    9500:	2c 87       	std	Y+12, r18	; 0x0c
    9502:	2e d1       	rcall	.+604    	; 0x9760 <strnlen_P>
    9504:	2c 01       	movw	r4, r24
    9506:	2c 85       	ldd	r18, Y+12	; 0x0c
    9508:	50 e8       	ldi	r21, 0x80	; 128
    950a:	25 2e       	mov	r2, r21
    950c:	22 2a       	or	r2, r18
    950e:	83 01       	movw	r16, r6
    9510:	23 fc       	sbrc	r2, 3
    9512:	1a c0       	rjmp	.+52     	; 0x9548 <vfprintf+0x1d2>
    9514:	05 c0       	rjmp	.+10     	; 0x9520 <vfprintf+0x1aa>
    9516:	b7 01       	movw	r22, r14
    9518:	80 e2       	ldi	r24, 0x20	; 32
    951a:	90 e0       	ldi	r25, 0x00	; 0
    951c:	3c d1       	rcall	.+632    	; 0x9796 <fputc>
    951e:	3a 94       	dec	r3
    9520:	83 2d       	mov	r24, r3
    9522:	90 e0       	ldi	r25, 0x00	; 0
    9524:	48 16       	cp	r4, r24
    9526:	59 06       	cpc	r5, r25
    9528:	b0 f3       	brcs	.-20     	; 0x9516 <vfprintf+0x1a0>
    952a:	0e c0       	rjmp	.+28     	; 0x9548 <vfprintf+0x1d2>
    952c:	f5 01       	movw	r30, r10
    952e:	27 fc       	sbrc	r2, 7
    9530:	85 91       	lpm	r24, Z+
    9532:	27 fe       	sbrs	r2, 7
    9534:	81 91       	ld	r24, Z+
    9536:	5f 01       	movw	r10, r30
    9538:	b7 01       	movw	r22, r14
    953a:	90 e0       	ldi	r25, 0x00	; 0
    953c:	2c d1       	rcall	.+600    	; 0x9796 <fputc>
    953e:	31 10       	cpse	r3, r1
    9540:	3a 94       	dec	r3
    9542:	f1 e0       	ldi	r31, 0x01	; 1
    9544:	4f 1a       	sub	r4, r31
    9546:	51 08       	sbc	r5, r1
    9548:	41 14       	cp	r4, r1
    954a:	51 04       	cpc	r5, r1
    954c:	79 f7       	brne	.-34     	; 0x952c <vfprintf+0x1b6>
    954e:	e5 c0       	rjmp	.+458    	; 0x971a <vfprintf+0x3a4>
    9550:	84 36       	cpi	r24, 0x64	; 100
    9552:	11 f0       	breq	.+4      	; 0x9558 <vfprintf+0x1e2>
    9554:	89 36       	cpi	r24, 0x69	; 105
    9556:	39 f5       	brne	.+78     	; 0x95a6 <vfprintf+0x230>
    9558:	f8 01       	movw	r30, r16
    955a:	27 ff       	sbrs	r18, 7
    955c:	07 c0       	rjmp	.+14     	; 0x956c <vfprintf+0x1f6>
    955e:	60 81       	ld	r22, Z
    9560:	71 81       	ldd	r23, Z+1	; 0x01
    9562:	82 81       	ldd	r24, Z+2	; 0x02
    9564:	93 81       	ldd	r25, Z+3	; 0x03
    9566:	0c 5f       	subi	r16, 0xFC	; 252
    9568:	1f 4f       	sbci	r17, 0xFF	; 255
    956a:	08 c0       	rjmp	.+16     	; 0x957c <vfprintf+0x206>
    956c:	60 81       	ld	r22, Z
    956e:	71 81       	ldd	r23, Z+1	; 0x01
    9570:	88 27       	eor	r24, r24
    9572:	77 fd       	sbrc	r23, 7
    9574:	80 95       	com	r24
    9576:	98 2f       	mov	r25, r24
    9578:	0e 5f       	subi	r16, 0xFE	; 254
    957a:	1f 4f       	sbci	r17, 0xFF	; 255
    957c:	4f e6       	ldi	r20, 0x6F	; 111
    957e:	b4 2e       	mov	r11, r20
    9580:	b2 22       	and	r11, r18
    9582:	97 ff       	sbrs	r25, 7
    9584:	09 c0       	rjmp	.+18     	; 0x9598 <vfprintf+0x222>
    9586:	90 95       	com	r25
    9588:	80 95       	com	r24
    958a:	70 95       	com	r23
    958c:	61 95       	neg	r22
    958e:	7f 4f       	sbci	r23, 0xFF	; 255
    9590:	8f 4f       	sbci	r24, 0xFF	; 255
    9592:	9f 4f       	sbci	r25, 0xFF	; 255
    9594:	f0 e8       	ldi	r31, 0x80	; 128
    9596:	bf 2a       	or	r11, r31
    9598:	2a e0       	ldi	r18, 0x0A	; 10
    959a:	30 e0       	ldi	r19, 0x00	; 0
    959c:	a4 01       	movw	r20, r8
    959e:	27 d1       	rcall	.+590    	; 0x97ee <__ultoa_invert>
    95a0:	a8 2e       	mov	r10, r24
    95a2:	a8 18       	sub	r10, r8
    95a4:	42 c0       	rjmp	.+132    	; 0x962a <vfprintf+0x2b4>
    95a6:	85 37       	cpi	r24, 0x75	; 117
    95a8:	31 f4       	brne	.+12     	; 0x95b6 <vfprintf+0x240>
    95aa:	3f ee       	ldi	r19, 0xEF	; 239
    95ac:	b3 2e       	mov	r11, r19
    95ae:	b2 22       	and	r11, r18
    95b0:	2a e0       	ldi	r18, 0x0A	; 10
    95b2:	30 e0       	ldi	r19, 0x00	; 0
    95b4:	24 c0       	rjmp	.+72     	; 0x95fe <vfprintf+0x288>
    95b6:	99 ef       	ldi	r25, 0xF9	; 249
    95b8:	b9 2e       	mov	r11, r25
    95ba:	b2 22       	and	r11, r18
    95bc:	8f 36       	cpi	r24, 0x6F	; 111
    95be:	b9 f0       	breq	.+46     	; 0x95ee <vfprintf+0x278>
    95c0:	20 f4       	brcc	.+8      	; 0x95ca <vfprintf+0x254>
    95c2:	88 35       	cpi	r24, 0x58	; 88
    95c4:	09 f0       	breq	.+2      	; 0x95c8 <vfprintf+0x252>
    95c6:	ac c0       	rjmp	.+344    	; 0x9720 <vfprintf+0x3aa>
    95c8:	0d c0       	rjmp	.+26     	; 0x95e4 <vfprintf+0x26e>
    95ca:	80 37       	cpi	r24, 0x70	; 112
    95cc:	21 f0       	breq	.+8      	; 0x95d6 <vfprintf+0x260>
    95ce:	88 37       	cpi	r24, 0x78	; 120
    95d0:	09 f0       	breq	.+2      	; 0x95d4 <vfprintf+0x25e>
    95d2:	a6 c0       	rjmp	.+332    	; 0x9720 <vfprintf+0x3aa>
    95d4:	02 c0       	rjmp	.+4      	; 0x95da <vfprintf+0x264>
    95d6:	20 e1       	ldi	r18, 0x10	; 16
    95d8:	b2 2a       	or	r11, r18
    95da:	b4 fe       	sbrs	r11, 4
    95dc:	0b c0       	rjmp	.+22     	; 0x95f4 <vfprintf+0x27e>
    95de:	84 e0       	ldi	r24, 0x04	; 4
    95e0:	b8 2a       	or	r11, r24
    95e2:	08 c0       	rjmp	.+16     	; 0x95f4 <vfprintf+0x27e>
    95e4:	24 ff       	sbrs	r18, 4
    95e6:	09 c0       	rjmp	.+18     	; 0x95fa <vfprintf+0x284>
    95e8:	e6 e0       	ldi	r30, 0x06	; 6
    95ea:	be 2a       	or	r11, r30
    95ec:	06 c0       	rjmp	.+12     	; 0x95fa <vfprintf+0x284>
    95ee:	28 e0       	ldi	r18, 0x08	; 8
    95f0:	30 e0       	ldi	r19, 0x00	; 0
    95f2:	05 c0       	rjmp	.+10     	; 0x95fe <vfprintf+0x288>
    95f4:	20 e1       	ldi	r18, 0x10	; 16
    95f6:	30 e0       	ldi	r19, 0x00	; 0
    95f8:	02 c0       	rjmp	.+4      	; 0x95fe <vfprintf+0x288>
    95fa:	20 e1       	ldi	r18, 0x10	; 16
    95fc:	32 e0       	ldi	r19, 0x02	; 2
    95fe:	f8 01       	movw	r30, r16
    9600:	b7 fe       	sbrs	r11, 7
    9602:	07 c0       	rjmp	.+14     	; 0x9612 <vfprintf+0x29c>
    9604:	60 81       	ld	r22, Z
    9606:	71 81       	ldd	r23, Z+1	; 0x01
    9608:	82 81       	ldd	r24, Z+2	; 0x02
    960a:	93 81       	ldd	r25, Z+3	; 0x03
    960c:	0c 5f       	subi	r16, 0xFC	; 252
    960e:	1f 4f       	sbci	r17, 0xFF	; 255
    9610:	06 c0       	rjmp	.+12     	; 0x961e <vfprintf+0x2a8>
    9612:	60 81       	ld	r22, Z
    9614:	71 81       	ldd	r23, Z+1	; 0x01
    9616:	80 e0       	ldi	r24, 0x00	; 0
    9618:	90 e0       	ldi	r25, 0x00	; 0
    961a:	0e 5f       	subi	r16, 0xFE	; 254
    961c:	1f 4f       	sbci	r17, 0xFF	; 255
    961e:	a4 01       	movw	r20, r8
    9620:	e6 d0       	rcall	.+460    	; 0x97ee <__ultoa_invert>
    9622:	a8 2e       	mov	r10, r24
    9624:	a8 18       	sub	r10, r8
    9626:	ff e7       	ldi	r31, 0x7F	; 127
    9628:	bf 22       	and	r11, r31
    962a:	b6 fe       	sbrs	r11, 6
    962c:	0b c0       	rjmp	.+22     	; 0x9644 <vfprintf+0x2ce>
    962e:	2b 2d       	mov	r18, r11
    9630:	2e 7f       	andi	r18, 0xFE	; 254
    9632:	a5 14       	cp	r10, r5
    9634:	50 f4       	brcc	.+20     	; 0x964a <vfprintf+0x2d4>
    9636:	b4 fe       	sbrs	r11, 4
    9638:	0a c0       	rjmp	.+20     	; 0x964e <vfprintf+0x2d8>
    963a:	b2 fc       	sbrc	r11, 2
    963c:	08 c0       	rjmp	.+16     	; 0x964e <vfprintf+0x2d8>
    963e:	2b 2d       	mov	r18, r11
    9640:	2e 7e       	andi	r18, 0xEE	; 238
    9642:	05 c0       	rjmp	.+10     	; 0x964e <vfprintf+0x2d8>
    9644:	7a 2c       	mov	r7, r10
    9646:	2b 2d       	mov	r18, r11
    9648:	03 c0       	rjmp	.+6      	; 0x9650 <vfprintf+0x2da>
    964a:	7a 2c       	mov	r7, r10
    964c:	01 c0       	rjmp	.+2      	; 0x9650 <vfprintf+0x2da>
    964e:	75 2c       	mov	r7, r5
    9650:	24 ff       	sbrs	r18, 4
    9652:	0d c0       	rjmp	.+26     	; 0x966e <vfprintf+0x2f8>
    9654:	fe 01       	movw	r30, r28
    9656:	ea 0d       	add	r30, r10
    9658:	f1 1d       	adc	r31, r1
    965a:	80 81       	ld	r24, Z
    965c:	80 33       	cpi	r24, 0x30	; 48
    965e:	11 f4       	brne	.+4      	; 0x9664 <vfprintf+0x2ee>
    9660:	29 7e       	andi	r18, 0xE9	; 233
    9662:	09 c0       	rjmp	.+18     	; 0x9676 <vfprintf+0x300>
    9664:	22 ff       	sbrs	r18, 2
    9666:	06 c0       	rjmp	.+12     	; 0x9674 <vfprintf+0x2fe>
    9668:	73 94       	inc	r7
    966a:	73 94       	inc	r7
    966c:	04 c0       	rjmp	.+8      	; 0x9676 <vfprintf+0x300>
    966e:	82 2f       	mov	r24, r18
    9670:	86 78       	andi	r24, 0x86	; 134
    9672:	09 f0       	breq	.+2      	; 0x9676 <vfprintf+0x300>
    9674:	73 94       	inc	r7
    9676:	23 fd       	sbrc	r18, 3
    9678:	13 c0       	rjmp	.+38     	; 0x96a0 <vfprintf+0x32a>
    967a:	20 ff       	sbrs	r18, 0
    967c:	0e c0       	rjmp	.+28     	; 0x969a <vfprintf+0x324>
    967e:	5a 2c       	mov	r5, r10
    9680:	73 14       	cp	r7, r3
    9682:	58 f4       	brcc	.+22     	; 0x969a <vfprintf+0x324>
    9684:	53 0c       	add	r5, r3
    9686:	57 18       	sub	r5, r7
    9688:	73 2c       	mov	r7, r3
    968a:	07 c0       	rjmp	.+14     	; 0x969a <vfprintf+0x324>
    968c:	b7 01       	movw	r22, r14
    968e:	80 e2       	ldi	r24, 0x20	; 32
    9690:	90 e0       	ldi	r25, 0x00	; 0
    9692:	2c 87       	std	Y+12, r18	; 0x0c
    9694:	80 d0       	rcall	.+256    	; 0x9796 <fputc>
    9696:	73 94       	inc	r7
    9698:	2c 85       	ldd	r18, Y+12	; 0x0c
    969a:	73 14       	cp	r7, r3
    969c:	b8 f3       	brcs	.-18     	; 0x968c <vfprintf+0x316>
    969e:	04 c0       	rjmp	.+8      	; 0x96a8 <vfprintf+0x332>
    96a0:	73 14       	cp	r7, r3
    96a2:	10 f4       	brcc	.+4      	; 0x96a8 <vfprintf+0x332>
    96a4:	37 18       	sub	r3, r7
    96a6:	01 c0       	rjmp	.+2      	; 0x96aa <vfprintf+0x334>
    96a8:	31 2c       	mov	r3, r1
    96aa:	24 ff       	sbrs	r18, 4
    96ac:	11 c0       	rjmp	.+34     	; 0x96d0 <vfprintf+0x35a>
    96ae:	b7 01       	movw	r22, r14
    96b0:	80 e3       	ldi	r24, 0x30	; 48
    96b2:	90 e0       	ldi	r25, 0x00	; 0
    96b4:	2c 87       	std	Y+12, r18	; 0x0c
    96b6:	6f d0       	rcall	.+222    	; 0x9796 <fputc>
    96b8:	2c 85       	ldd	r18, Y+12	; 0x0c
    96ba:	22 ff       	sbrs	r18, 2
    96bc:	1c c0       	rjmp	.+56     	; 0x96f6 <vfprintf+0x380>
    96be:	21 ff       	sbrs	r18, 1
    96c0:	03 c0       	rjmp	.+6      	; 0x96c8 <vfprintf+0x352>
    96c2:	88 e5       	ldi	r24, 0x58	; 88
    96c4:	90 e0       	ldi	r25, 0x00	; 0
    96c6:	02 c0       	rjmp	.+4      	; 0x96cc <vfprintf+0x356>
    96c8:	88 e7       	ldi	r24, 0x78	; 120
    96ca:	90 e0       	ldi	r25, 0x00	; 0
    96cc:	b7 01       	movw	r22, r14
    96ce:	0c c0       	rjmp	.+24     	; 0x96e8 <vfprintf+0x372>
    96d0:	82 2f       	mov	r24, r18
    96d2:	86 78       	andi	r24, 0x86	; 134
    96d4:	81 f0       	breq	.+32     	; 0x96f6 <vfprintf+0x380>
    96d6:	21 fd       	sbrc	r18, 1
    96d8:	02 c0       	rjmp	.+4      	; 0x96de <vfprintf+0x368>
    96da:	80 e2       	ldi	r24, 0x20	; 32
    96dc:	01 c0       	rjmp	.+2      	; 0x96e0 <vfprintf+0x36a>
    96de:	8b e2       	ldi	r24, 0x2B	; 43
    96e0:	27 fd       	sbrc	r18, 7
    96e2:	8d e2       	ldi	r24, 0x2D	; 45
    96e4:	b7 01       	movw	r22, r14
    96e6:	90 e0       	ldi	r25, 0x00	; 0
    96e8:	56 d0       	rcall	.+172    	; 0x9796 <fputc>
    96ea:	05 c0       	rjmp	.+10     	; 0x96f6 <vfprintf+0x380>
    96ec:	b7 01       	movw	r22, r14
    96ee:	80 e3       	ldi	r24, 0x30	; 48
    96f0:	90 e0       	ldi	r25, 0x00	; 0
    96f2:	51 d0       	rcall	.+162    	; 0x9796 <fputc>
    96f4:	5a 94       	dec	r5
    96f6:	a5 14       	cp	r10, r5
    96f8:	c8 f3       	brcs	.-14     	; 0x96ec <vfprintf+0x376>
    96fa:	aa 94       	dec	r10
    96fc:	f4 01       	movw	r30, r8
    96fe:	ea 0d       	add	r30, r10
    9700:	f1 1d       	adc	r31, r1
    9702:	b7 01       	movw	r22, r14
    9704:	80 81       	ld	r24, Z
    9706:	90 e0       	ldi	r25, 0x00	; 0
    9708:	46 d0       	rcall	.+140    	; 0x9796 <fputc>
    970a:	a1 10       	cpse	r10, r1
    970c:	f6 cf       	rjmp	.-20     	; 0x96fa <vfprintf+0x384>
    970e:	05 c0       	rjmp	.+10     	; 0x971a <vfprintf+0x3a4>
    9710:	b7 01       	movw	r22, r14
    9712:	80 e2       	ldi	r24, 0x20	; 32
    9714:	90 e0       	ldi	r25, 0x00	; 0
    9716:	3f d0       	rcall	.+126    	; 0x9796 <fputc>
    9718:	3a 94       	dec	r3
    971a:	31 10       	cpse	r3, r1
    971c:	f9 cf       	rjmp	.-14     	; 0x9710 <vfprintf+0x39a>
    971e:	50 ce       	rjmp	.-864    	; 0x93c0 <vfprintf+0x4a>
    9720:	f7 01       	movw	r30, r14
    9722:	26 81       	ldd	r18, Z+6	; 0x06
    9724:	37 81       	ldd	r19, Z+7	; 0x07
    9726:	02 c0       	rjmp	.+4      	; 0x972c <vfprintf+0x3b6>
    9728:	2f ef       	ldi	r18, 0xFF	; 255
    972a:	3f ef       	ldi	r19, 0xFF	; 255
    972c:	c9 01       	movw	r24, r18
    972e:	2c 96       	adiw	r28, 0x0c	; 12
    9730:	cd bf       	out	0x3d, r28	; 61
    9732:	de bf       	out	0x3e, r29	; 62
    9734:	df 91       	pop	r29
    9736:	cf 91       	pop	r28
    9738:	1f 91       	pop	r17
    973a:	0f 91       	pop	r16
    973c:	ff 90       	pop	r15
    973e:	ef 90       	pop	r14
    9740:	df 90       	pop	r13
    9742:	cf 90       	pop	r12
    9744:	bf 90       	pop	r11
    9746:	af 90       	pop	r10
    9748:	9f 90       	pop	r9
    974a:	8f 90       	pop	r8
    974c:	7f 90       	pop	r7
    974e:	6f 90       	pop	r6
    9750:	5f 90       	pop	r5
    9752:	4f 90       	pop	r4
    9754:	3f 90       	pop	r3
    9756:	2f 90       	pop	r2
    9758:	08 95       	ret

0000975a <__ctype_isfalse>:
    975a:	99 27       	eor	r25, r25
    975c:	88 27       	eor	r24, r24

0000975e <__ctype_istrue>:
    975e:	08 95       	ret

00009760 <strnlen_P>:
    9760:	fc 01       	movw	r30, r24
    9762:	05 90       	lpm	r0, Z+
    9764:	61 50       	subi	r22, 0x01	; 1
    9766:	70 40       	sbci	r23, 0x00	; 0
    9768:	01 10       	cpse	r0, r1
    976a:	d8 f7       	brcc	.-10     	; 0x9762 <strnlen_P+0x2>
    976c:	80 95       	com	r24
    976e:	90 95       	com	r25
    9770:	8e 0f       	add	r24, r30
    9772:	9f 1f       	adc	r25, r31
    9774:	08 95       	ret

00009776 <strrev>:
    9776:	dc 01       	movw	r26, r24
    9778:	fc 01       	movw	r30, r24
    977a:	67 2f       	mov	r22, r23
    977c:	71 91       	ld	r23, Z+
    977e:	77 23       	and	r23, r23
    9780:	e1 f7       	brne	.-8      	; 0x977a <strrev+0x4>
    9782:	32 97       	sbiw	r30, 0x02	; 2
    9784:	04 c0       	rjmp	.+8      	; 0x978e <strrev+0x18>
    9786:	7c 91       	ld	r23, X
    9788:	6d 93       	st	X+, r22
    978a:	70 83       	st	Z, r23
    978c:	62 91       	ld	r22, -Z
    978e:	ae 17       	cp	r26, r30
    9790:	bf 07       	cpc	r27, r31
    9792:	c8 f3       	brcs	.-14     	; 0x9786 <strrev+0x10>
    9794:	08 95       	ret

00009796 <fputc>:
    9796:	0f 93       	push	r16
    9798:	1f 93       	push	r17
    979a:	cf 93       	push	r28
    979c:	df 93       	push	r29
    979e:	8c 01       	movw	r16, r24
    97a0:	eb 01       	movw	r28, r22
    97a2:	8b 81       	ldd	r24, Y+3	; 0x03
    97a4:	81 fd       	sbrc	r24, 1
    97a6:	03 c0       	rjmp	.+6      	; 0x97ae <fputc+0x18>
    97a8:	0f ef       	ldi	r16, 0xFF	; 255
    97aa:	1f ef       	ldi	r17, 0xFF	; 255
    97ac:	1a c0       	rjmp	.+52     	; 0x97e2 <fputc+0x4c>
    97ae:	82 ff       	sbrs	r24, 2
    97b0:	0d c0       	rjmp	.+26     	; 0x97cc <fputc+0x36>
    97b2:	2e 81       	ldd	r18, Y+6	; 0x06
    97b4:	3f 81       	ldd	r19, Y+7	; 0x07
    97b6:	8c 81       	ldd	r24, Y+4	; 0x04
    97b8:	9d 81       	ldd	r25, Y+5	; 0x05
    97ba:	28 17       	cp	r18, r24
    97bc:	39 07       	cpc	r19, r25
    97be:	64 f4       	brge	.+24     	; 0x97d8 <fputc+0x42>
    97c0:	e8 81       	ld	r30, Y
    97c2:	f9 81       	ldd	r31, Y+1	; 0x01
    97c4:	01 93       	st	Z+, r16
    97c6:	e8 83       	st	Y, r30
    97c8:	f9 83       	std	Y+1, r31	; 0x01
    97ca:	06 c0       	rjmp	.+12     	; 0x97d8 <fputc+0x42>
    97cc:	e8 85       	ldd	r30, Y+8	; 0x08
    97ce:	f9 85       	ldd	r31, Y+9	; 0x09
    97d0:	80 2f       	mov	r24, r16
    97d2:	19 95       	eicall
    97d4:	89 2b       	or	r24, r25
    97d6:	41 f7       	brne	.-48     	; 0x97a8 <fputc+0x12>
    97d8:	8e 81       	ldd	r24, Y+6	; 0x06
    97da:	9f 81       	ldd	r25, Y+7	; 0x07
    97dc:	01 96       	adiw	r24, 0x01	; 1
    97de:	8e 83       	std	Y+6, r24	; 0x06
    97e0:	9f 83       	std	Y+7, r25	; 0x07
    97e2:	c8 01       	movw	r24, r16
    97e4:	df 91       	pop	r29
    97e6:	cf 91       	pop	r28
    97e8:	1f 91       	pop	r17
    97ea:	0f 91       	pop	r16
    97ec:	08 95       	ret

000097ee <__ultoa_invert>:
    97ee:	fa 01       	movw	r30, r20
    97f0:	aa 27       	eor	r26, r26
    97f2:	28 30       	cpi	r18, 0x08	; 8
    97f4:	51 f1       	breq	.+84     	; 0x984a <__ultoa_invert+0x5c>
    97f6:	20 31       	cpi	r18, 0x10	; 16
    97f8:	81 f1       	breq	.+96     	; 0x985a <__ultoa_invert+0x6c>
    97fa:	e8 94       	clt
    97fc:	6f 93       	push	r22
    97fe:	6e 7f       	andi	r22, 0xFE	; 254
    9800:	6e 5f       	subi	r22, 0xFE	; 254
    9802:	7f 4f       	sbci	r23, 0xFF	; 255
    9804:	8f 4f       	sbci	r24, 0xFF	; 255
    9806:	9f 4f       	sbci	r25, 0xFF	; 255
    9808:	af 4f       	sbci	r26, 0xFF	; 255
    980a:	b1 e0       	ldi	r27, 0x01	; 1
    980c:	3e d0       	rcall	.+124    	; 0x988a <__ultoa_invert+0x9c>
    980e:	b4 e0       	ldi	r27, 0x04	; 4
    9810:	3c d0       	rcall	.+120    	; 0x988a <__ultoa_invert+0x9c>
    9812:	67 0f       	add	r22, r23
    9814:	78 1f       	adc	r23, r24
    9816:	89 1f       	adc	r24, r25
    9818:	9a 1f       	adc	r25, r26
    981a:	a1 1d       	adc	r26, r1
    981c:	68 0f       	add	r22, r24
    981e:	79 1f       	adc	r23, r25
    9820:	8a 1f       	adc	r24, r26
    9822:	91 1d       	adc	r25, r1
    9824:	a1 1d       	adc	r26, r1
    9826:	6a 0f       	add	r22, r26
    9828:	71 1d       	adc	r23, r1
    982a:	81 1d       	adc	r24, r1
    982c:	91 1d       	adc	r25, r1
    982e:	a1 1d       	adc	r26, r1
    9830:	20 d0       	rcall	.+64     	; 0x9872 <__ultoa_invert+0x84>
    9832:	09 f4       	brne	.+2      	; 0x9836 <__ultoa_invert+0x48>
    9834:	68 94       	set
    9836:	3f 91       	pop	r19
    9838:	2a e0       	ldi	r18, 0x0A	; 10
    983a:	26 9f       	mul	r18, r22
    983c:	11 24       	eor	r1, r1
    983e:	30 19       	sub	r19, r0
    9840:	30 5d       	subi	r19, 0xD0	; 208
    9842:	31 93       	st	Z+, r19
    9844:	de f6       	brtc	.-74     	; 0x97fc <__ultoa_invert+0xe>
    9846:	cf 01       	movw	r24, r30
    9848:	08 95       	ret
    984a:	46 2f       	mov	r20, r22
    984c:	47 70       	andi	r20, 0x07	; 7
    984e:	40 5d       	subi	r20, 0xD0	; 208
    9850:	41 93       	st	Z+, r20
    9852:	b3 e0       	ldi	r27, 0x03	; 3
    9854:	0f d0       	rcall	.+30     	; 0x9874 <__ultoa_invert+0x86>
    9856:	c9 f7       	brne	.-14     	; 0x984a <__ultoa_invert+0x5c>
    9858:	f6 cf       	rjmp	.-20     	; 0x9846 <__ultoa_invert+0x58>
    985a:	46 2f       	mov	r20, r22
    985c:	4f 70       	andi	r20, 0x0F	; 15
    985e:	40 5d       	subi	r20, 0xD0	; 208
    9860:	4a 33       	cpi	r20, 0x3A	; 58
    9862:	18 f0       	brcs	.+6      	; 0x986a <__ultoa_invert+0x7c>
    9864:	49 5d       	subi	r20, 0xD9	; 217
    9866:	31 fd       	sbrc	r19, 1
    9868:	40 52       	subi	r20, 0x20	; 32
    986a:	41 93       	st	Z+, r20
    986c:	02 d0       	rcall	.+4      	; 0x9872 <__ultoa_invert+0x84>
    986e:	a9 f7       	brne	.-22     	; 0x985a <__ultoa_invert+0x6c>
    9870:	ea cf       	rjmp	.-44     	; 0x9846 <__ultoa_invert+0x58>
    9872:	b4 e0       	ldi	r27, 0x04	; 4
    9874:	a6 95       	lsr	r26
    9876:	97 95       	ror	r25
    9878:	87 95       	ror	r24
    987a:	77 95       	ror	r23
    987c:	67 95       	ror	r22
    987e:	ba 95       	dec	r27
    9880:	c9 f7       	brne	.-14     	; 0x9874 <__ultoa_invert+0x86>
    9882:	00 97       	sbiw	r24, 0x00	; 0
    9884:	61 05       	cpc	r22, r1
    9886:	71 05       	cpc	r23, r1
    9888:	08 95       	ret
    988a:	9b 01       	movw	r18, r22
    988c:	ac 01       	movw	r20, r24
    988e:	0a 2e       	mov	r0, r26
    9890:	06 94       	lsr	r0
    9892:	57 95       	ror	r21
    9894:	47 95       	ror	r20
    9896:	37 95       	ror	r19
    9898:	27 95       	ror	r18
    989a:	ba 95       	dec	r27
    989c:	c9 f7       	brne	.-14     	; 0x9890 <__ultoa_invert+0xa2>
    989e:	62 0f       	add	r22, r18
    98a0:	73 1f       	adc	r23, r19
    98a2:	84 1f       	adc	r24, r20
    98a4:	95 1f       	adc	r25, r21
    98a6:	a0 1d       	adc	r26, r0
    98a8:	08 95       	ret

000098aa <__mulsi3>:
    98aa:	db 01       	movw	r26, r22
    98ac:	8f 93       	push	r24
    98ae:	9f 93       	push	r25
    98b0:	a0 db       	rcall	.-2240   	; 0x8ff2 <__muluhisi3>
    98b2:	bf 91       	pop	r27
    98b4:	af 91       	pop	r26
    98b6:	a2 9f       	mul	r26, r18
    98b8:	80 0d       	add	r24, r0
    98ba:	91 1d       	adc	r25, r1
    98bc:	a3 9f       	mul	r26, r19
    98be:	90 0d       	add	r25, r0
    98c0:	b2 9f       	mul	r27, r18
    98c2:	90 0d       	add	r25, r0
    98c4:	11 24       	eor	r1, r1
    98c6:	08 95       	ret

000098c8 <_exit>:
    98c8:	f8 94       	cli

000098ca <__stop_program>:
    98ca:	ff cf       	rjmp	.-2      	; 0x98ca <__stop_program>
